
X-Cube-Display-HelloWorld.elf:     file format elf32-littlearm

Sections:
Idx Name          Size      VMA       LMA       File off  Algn
  0 .isr_vector   00000238  08000000  08000000  00001000  2**0
                  CONTENTS, ALLOC, LOAD, READONLY, DATA
  1 .text         00006234  08000238  08000238  00001238  2**2
                  CONTENTS, ALLOC, LOAD, READONLY, CODE
  2 .rodata       00002498  0800646c  0800646c  0000746c  2**2
                  CONTENTS, ALLOC, LOAD, READONLY, DATA
  3 .ExtFlashSection 000c4e00  08008920  08008920  00009920  2**5
                  CONTENTS, ALLOC, LOAD, READONLY, DATA
  4 .ARM          00000008  080cd720  080cd720  000ce720  2**2
                  CONTENTS, ALLOC, LOAD, READONLY, DATA
  5 .init_array   00000004  080cd728  080cd728  000ce728  2**2
                  CONTENTS, ALLOC, LOAD, DATA
  6 .fini_array   00000004  080cd72c  080cd72c  000ce72c  2**2
                  CONTENTS, ALLOC, LOAD, DATA
  7 .data         00000100  20000000  080cd730  000cf000  2**2
                  CONTENTS, ALLOC, LOAD, DATA
  8 .bss          0000cb80  20000100  080cd830  000cf100  2**5
                  ALLOC
  9 ._user_heap_stack 00000600  2000cc80  080cd830  000cfc80  2**0
                  ALLOC
 10 .ARM.attributes 00000036  00000000  00000000  000cf100  2**0
                  CONTENTS, READONLY
 11 .comment      00000043  00000000  00000000  000cf136  2**0
                  CONTENTS, READONLY
 12 .debug_frame  0000004c  00000000  00000000  000cf17c  2**2
                  CONTENTS, READONLY, DEBUGGING, OCTETS

Disassembly of section .text:

08000238 <__do_global_dtors_aux>:
 8000238:	b510      	push	{r4, lr}
 800023a:	4c05      	ldr	r4, [pc, #20]	@ (8000250 <__do_global_dtors_aux+0x18>)
 800023c:	7823      	ldrb	r3, [r4, #0]
 800023e:	b933      	cbnz	r3, 800024e <__do_global_dtors_aux+0x16>
 8000240:	4b04      	ldr	r3, [pc, #16]	@ (8000254 <__do_global_dtors_aux+0x1c>)
 8000242:	b113      	cbz	r3, 800024a <__do_global_dtors_aux+0x12>
 8000244:	4804      	ldr	r0, [pc, #16]	@ (8000258 <__do_global_dtors_aux+0x20>)
 8000246:	f3af 8000 	nop.w
 800024a:	2301      	movs	r3, #1
 800024c:	7023      	strb	r3, [r4, #0]
 800024e:	bd10      	pop	{r4, pc}
 8000250:	20000100 	.word	0x20000100
 8000254:	00000000 	.word	0x00000000
 8000258:	08006454 	.word	0x08006454

0800025c <frame_dummy>:
 800025c:	b508      	push	{r3, lr}
 800025e:	4b03      	ldr	r3, [pc, #12]	@ (800026c <frame_dummy+0x10>)
 8000260:	b11b      	cbz	r3, 800026a <frame_dummy+0xe>
 8000262:	4903      	ldr	r1, [pc, #12]	@ (8000270 <frame_dummy+0x14>)
 8000264:	4803      	ldr	r0, [pc, #12]	@ (8000274 <frame_dummy+0x18>)
 8000266:	f3af 8000 	nop.w
 800026a:	bd08      	pop	{r3, pc}
 800026c:	00000000 	.word	0x00000000
 8000270:	20000104 	.word	0x20000104
 8000274:	08006454 	.word	0x08006454

08000278 <strlen>:
 8000278:	4603      	mov	r3, r0
 800027a:	f813 2b01 	ldrb.w	r2, [r3], #1
 800027e:	2a00      	cmp	r2, #0
 8000280:	d1fb      	bne.n	800027a <strlen+0x2>
 8000282:	1a18      	subs	r0, r3, r0
 8000284:	3801      	subs	r0, #1
 8000286:	4770      	bx	lr

08000288 <SystemClock_Config>:
 8000288:	b500      	push	{lr}
 800028a:	b09f      	sub	sp, #124	@ 0x7c
 800028c:	2260      	movs	r2, #96	@ 0x60
 800028e:	2100      	movs	r1, #0
 8000290:	a806      	add	r0, sp, #24
 8000292:	f006 f8b2 	bl	80063fa <memset>
 8000296:	2218      	movs	r2, #24
 8000298:	2100      	movs	r1, #0
 800029a:	4668      	mov	r0, sp
 800029c:	f006 f8ad 	bl	80063fa <memset>
 80002a0:	f44f 3040 	mov.w	r0, #196608	@ 0x30000
 80002a4:	f004 fce6 	bl	8004c74 <HAL_PWREx_ControlVoltageScaling>
 80002a8:	b108      	cbz	r0, 80002ae <SystemClock_Config+0x26>
 80002aa:	b672      	cpsid	i
 80002ac:	e7fe      	b.n	80002ac <SystemClock_Config+0x24>
 80002ae:	2201      	movs	r2, #1
 80002b0:	2310      	movs	r3, #16
 80002b2:	e9cd 230d 	strd	r2, r3, [sp, #52]	@ 0x34
 80002b6:	9306      	str	r3, [sp, #24]
 80002b8:	f04f 4380 	mov.w	r3, #1073741824	@ 0x40000000
 80002bc:	930f      	str	r3, [sp, #60]	@ 0x3c
 80002be:	2302      	movs	r3, #2
 80002c0:	e9cd 2016 	strd	r2, r0, [sp, #88]	@ 0x58
 80002c4:	e9cd 3214 	strd	r3, r2, [sp, #80]	@ 0x50
 80002c8:	2250      	movs	r2, #80	@ 0x50
 80002ca:	e9cd 001c 	strd	r0, r0, [sp, #112]	@ 0x70
 80002ce:	a806      	add	r0, sp, #24
 80002d0:	e9cd 2318 	strd	r2, r3, [sp, #96]	@ 0x60
 80002d4:	e9cd 331a 	strd	r3, r3, [sp, #104]	@ 0x68
 80002d8:	f004 ff9a 	bl	8005210 <HAL_RCC_OscConfig>
 80002dc:	b108      	cbz	r0, 80002e2 <SystemClock_Config+0x5a>
 80002de:	b672      	cpsid	i
 80002e0:	e7fe      	b.n	80002e0 <SystemClock_Config+0x58>
 80002e2:	221f      	movs	r2, #31
 80002e4:	2303      	movs	r3, #3
 80002e6:	e9cd 0002 	strd	r0, r0, [sp, #8]
 80002ea:	e9cd 0004 	strd	r0, r0, [sp, #16]
 80002ee:	2104      	movs	r1, #4
 80002f0:	4668      	mov	r0, sp
 80002f2:	e9cd 2300 	strd	r2, r3, [sp]
 80002f6:	f004 fe29 	bl	8004f4c <HAL_RCC_ClockConfig>
 80002fa:	b108      	cbz	r0, 8000300 <SystemClock_Config+0x78>
 80002fc:	b672      	cpsid	i
 80002fe:	e7fe      	b.n	80002fe <SystemClock_Config+0x76>
 8000300:	b01f      	add	sp, #124	@ 0x7c
 8000302:	f85d fb04 	ldr.w	pc, [sp], #4
	...

08000308 <main>:
 8000308:	b580      	push	{r7, lr}
 800030a:	b098      	sub	sp, #96	@ 0x60
 800030c:	f002 fce8 	bl	8002ce0 <HAL_Init>
 8000310:	f7ff ffba 	bl	8000288 <SystemClock_Config>
 8000314:	f004 fd22 	bl	8004d5c <HAL_PWREx_EnableVddIO2>
 8000318:	f004 fd28 	bl	8004d6c <HAL_PWREx_DisableUCPDDeadBattery>
 800031c:	2002      	movs	r0, #2
 800031e:	f004 fcf1 	bl	8004d04 <HAL_PWREx_ConfigSupply>
 8000322:	4605      	mov	r5, r0
 8000324:	b108      	cbz	r0, 800032a <main+0x22>
 8000326:	b672      	cpsid	i
 8000328:	e7fe      	b.n	8000328 <main+0x20>
 800032a:	4cbf      	ldr	r4, [pc, #764]	@ (8000628 <main+0x320>)
 800032c:	4601      	mov	r1, r0
 800032e:	2214      	movs	r2, #20
 8000330:	a810      	add	r0, sp, #64	@ 0x40
 8000332:	f006 f862 	bl	80063fa <memset>
 8000336:	f8d4 308c 	ldr.w	r3, [r4, #140]	@ 0x8c
 800033a:	f04f 0908 	mov.w	r9, #8
 800033e:	f043 0310 	orr.w	r3, r3, #16
 8000342:	f8c4 308c 	str.w	r3, [r4, #140]	@ 0x8c
 8000346:	f8d4 308c 	ldr.w	r3, [r4, #140]	@ 0x8c
 800034a:	f44f 5700 	mov.w	r7, #8192	@ 0x2000
 800034e:	f003 0310 	and.w	r3, r3, #16
 8000352:	9301      	str	r3, [sp, #4]
 8000354:	9b01      	ldr	r3, [sp, #4]
 8000356:	f8d4 308c 	ldr.w	r3, [r4, #140]	@ 0x8c
 800035a:	462a      	mov	r2, r5
 800035c:	f043 0304 	orr.w	r3, r3, #4
 8000360:	f8c4 308c 	str.w	r3, [r4, #140]	@ 0x8c
 8000364:	f8d4 308c 	ldr.w	r3, [r4, #140]	@ 0x8c
 8000368:	f44f 6100 	mov.w	r1, #2048	@ 0x800
 800036c:	f003 0304 	and.w	r3, r3, #4
 8000370:	9302      	str	r3, [sp, #8]
 8000372:	9b02      	ldr	r3, [sp, #8]
 8000374:	f8d4 308c 	ldr.w	r3, [r4, #140]	@ 0x8c
 8000378:	48ac      	ldr	r0, [pc, #688]	@ (800062c <main+0x324>)
 800037a:	f043 0320 	orr.w	r3, r3, #32
 800037e:	f8c4 308c 	str.w	r3, [r4, #140]	@ 0x8c
 8000382:	f8d4 308c 	ldr.w	r3, [r4, #140]	@ 0x8c
 8000386:	2601      	movs	r6, #1
 8000388:	f003 0320 	and.w	r3, r3, #32
 800038c:	9303      	str	r3, [sp, #12]
 800038e:	9b03      	ldr	r3, [sp, #12]
 8000390:	f8d4 308c 	ldr.w	r3, [r4, #140]	@ 0x8c
 8000394:	f04f 0804 	mov.w	r8, #4
 8000398:	f043 0301 	orr.w	r3, r3, #1
 800039c:	f8c4 308c 	str.w	r3, [r4, #140]	@ 0x8c
 80003a0:	f8d4 308c 	ldr.w	r3, [r4, #140]	@ 0x8c
 80003a4:	f04f 0a80 	mov.w	sl, #128	@ 0x80
 80003a8:	f003 0301 	and.w	r3, r3, #1
 80003ac:	9304      	str	r3, [sp, #16]
 80003ae:	9b04      	ldr	r3, [sp, #16]
 80003b0:	f8d4 308c 	ldr.w	r3, [r4, #140]	@ 0x8c
 80003b4:	f043 0302 	orr.w	r3, r3, #2
 80003b8:	f8c4 308c 	str.w	r3, [r4, #140]	@ 0x8c
 80003bc:	f8d4 308c 	ldr.w	r3, [r4, #140]	@ 0x8c
 80003c0:	f003 0302 	and.w	r3, r3, #2
 80003c4:	9305      	str	r3, [sp, #20]
 80003c6:	9b05      	ldr	r3, [sp, #20]
 80003c8:	f8d4 308c 	ldr.w	r3, [r4, #140]	@ 0x8c
 80003cc:	f043 0308 	orr.w	r3, r3, #8
 80003d0:	f8c4 308c 	str.w	r3, [r4, #140]	@ 0x8c
 80003d4:	f8d4 308c 	ldr.w	r3, [r4, #140]	@ 0x8c
 80003d8:	f003 0308 	and.w	r3, r3, #8
 80003dc:	9306      	str	r3, [sp, #24]
 80003de:	9b06      	ldr	r3, [sp, #24]
 80003e0:	f8d4 308c 	ldr.w	r3, [r4, #140]	@ 0x8c
 80003e4:	f043 0340 	orr.w	r3, r3, #64	@ 0x40
 80003e8:	f8c4 308c 	str.w	r3, [r4, #140]	@ 0x8c
 80003ec:	f8d4 308c 	ldr.w	r3, [r4, #140]	@ 0x8c
 80003f0:	f003 0340 	and.w	r3, r3, #64	@ 0x40
 80003f4:	9307      	str	r3, [sp, #28]
 80003f6:	9b07      	ldr	r3, [sp, #28]
 80003f8:	f003 fc50 	bl	8003c9c <HAL_GPIO_WritePin>
 80003fc:	462a      	mov	r2, r5
 80003fe:	2104      	movs	r1, #4
 8000400:	488b      	ldr	r0, [pc, #556]	@ (8000630 <main+0x328>)
 8000402:	f003 fc4b 	bl	8003c9c <HAL_GPIO_WritePin>
 8000406:	462a      	mov	r2, r5
 8000408:	2180      	movs	r1, #128	@ 0x80
 800040a:	488a      	ldr	r0, [pc, #552]	@ (8000634 <main+0x32c>)
 800040c:	f003 fc46 	bl	8003c9c <HAL_GPIO_WritePin>
 8000410:	462a      	mov	r2, r5
 8000412:	2180      	movs	r1, #128	@ 0x80
 8000414:	4888      	ldr	r0, [pc, #544]	@ (8000638 <main+0x330>)
 8000416:	f003 fc41 	bl	8003c9c <HAL_GPIO_WritePin>
 800041a:	4884      	ldr	r0, [pc, #528]	@ (800062c <main+0x324>)
 800041c:	a910      	add	r1, sp, #64	@ 0x40
 800041e:	e9cd 9510 	strd	r9, r5, [sp, #64]	@ 0x40
 8000422:	9512      	str	r5, [sp, #72]	@ 0x48
 8000424:	f003 faa4 	bl	8003970 <HAL_GPIO_Init>
 8000428:	4882      	ldr	r0, [pc, #520]	@ (8000634 <main+0x32c>)
 800042a:	a910      	add	r1, sp, #64	@ 0x40
 800042c:	e9cd 7510 	strd	r7, r5, [sp, #64]	@ 0x40
 8000430:	9512      	str	r5, [sp, #72]	@ 0x48
 8000432:	f003 fa9d 	bl	8003970 <HAL_GPIO_Init>
 8000436:	f44f 7360 	mov.w	r3, #896	@ 0x380
 800043a:	4880      	ldr	r0, [pc, #512]	@ (800063c <main+0x334>)
 800043c:	a910      	add	r1, sp, #64	@ 0x40
 800043e:	e9cd 3510 	strd	r3, r5, [sp, #64]	@ 0x40
 8000442:	9512      	str	r5, [sp, #72]	@ 0x48
 8000444:	f003 fa94 	bl	8003970 <HAL_GPIO_Init>
 8000448:	487d      	ldr	r0, [pc, #500]	@ (8000640 <main+0x338>)
 800044a:	a910      	add	r1, sp, #64	@ 0x40
 800044c:	e9cd 6510 	strd	r6, r5, [sp, #64]	@ 0x40
 8000450:	9512      	str	r5, [sp, #72]	@ 0x48
 8000452:	f003 fa8d 	bl	8003970 <HAL_GPIO_Init>
 8000456:	f44f 6300 	mov.w	r3, #2048	@ 0x800
 800045a:	4874      	ldr	r0, [pc, #464]	@ (800062c <main+0x324>)
 800045c:	a910      	add	r1, sp, #64	@ 0x40
 800045e:	e9cd 3610 	strd	r3, r6, [sp, #64]	@ 0x40
 8000462:	e9cd 5512 	strd	r5, r5, [sp, #72]	@ 0x48
 8000466:	f003 fa83 	bl	8003970 <HAL_GPIO_Init>
 800046a:	9710      	str	r7, [sp, #64]	@ 0x40
 800046c:	2702      	movs	r7, #2
 800046e:	4b75      	ldr	r3, [pc, #468]	@ (8000644 <main+0x33c>)
 8000470:	486e      	ldr	r0, [pc, #440]	@ (800062c <main+0x324>)
 8000472:	a910      	add	r1, sp, #64	@ 0x40
 8000474:	e9cd 3511 	strd	r3, r5, [sp, #68]	@ 0x44
 8000478:	f003 fa7a 	bl	8003970 <HAL_GPIO_Init>
 800047c:	486c      	ldr	r0, [pc, #432]	@ (8000630 <main+0x328>)
 800047e:	a910      	add	r1, sp, #64	@ 0x40
 8000480:	e9cd 8610 	strd	r8, r6, [sp, #64]	@ 0x40
 8000484:	9612      	str	r6, [sp, #72]	@ 0x48
 8000486:	9713      	str	r7, [sp, #76]	@ 0x4c
 8000488:	f003 fa72 	bl	8003970 <HAL_GPIO_Init>
 800048c:	4869      	ldr	r0, [pc, #420]	@ (8000634 <main+0x32c>)
 800048e:	a910      	add	r1, sp, #64	@ 0x40
 8000490:	e9cd a610 	strd	sl, r6, [sp, #64]	@ 0x40
 8000494:	e9cd 6712 	strd	r6, r7, [sp, #72]	@ 0x48
 8000498:	f003 fa6a 	bl	8003970 <HAL_GPIO_Init>
 800049c:	4866      	ldr	r0, [pc, #408]	@ (8000638 <main+0x330>)
 800049e:	a910      	add	r1, sp, #64	@ 0x40
 80004a0:	e9cd a610 	strd	sl, r6, [sp, #64]	@ 0x40
 80004a4:	e9cd 6712 	strd	r6, r7, [sp, #72]	@ 0x48
 80004a8:	f003 fa62 	bl	8003970 <HAL_GPIO_Init>
 80004ac:	462a      	mov	r2, r5
 80004ae:	2107      	movs	r1, #7
 80004b0:	2018      	movs	r0, #24
 80004b2:	f002 fc75 	bl	8002da0 <HAL_NVIC_SetPriority>
 80004b6:	2018      	movs	r0, #24
 80004b8:	f002 fca2 	bl	8002e00 <HAL_NVIC_EnableIRQ>
 80004bc:	f8d4 3088 	ldr.w	r3, [r4, #136]	@ 0x88
 80004c0:	462a      	mov	r2, r5
 80004c2:	4333      	orrs	r3, r6
 80004c4:	f8c4 3088 	str.w	r3, [r4, #136]	@ 0x88
 80004c8:	f8d4 3088 	ldr.w	r3, [r4, #136]	@ 0x88
 80004cc:	2106      	movs	r1, #6
 80004ce:	4033      	ands	r3, r6
 80004d0:	2055      	movs	r0, #85	@ 0x55
 80004d2:	9300      	str	r3, [sp, #0]
 80004d4:	9b00      	ldr	r3, [sp, #0]
 80004d6:	f002 fc63 	bl	8002da0 <HAL_NVIC_SetPriority>
 80004da:	2055      	movs	r0, #85	@ 0x55
 80004dc:	f002 fc90 	bl	8002e00 <HAL_NVIC_EnableIRQ>
 80004e0:	4c59      	ldr	r4, [pc, #356]	@ (8000648 <main+0x340>)
 80004e2:	4b5a      	ldr	r3, [pc, #360]	@ (800064c <main+0x344>)
 80004e4:	4620      	mov	r0, r4
 80004e6:	6023      	str	r3, [r4, #0]
 80004e8:	f44f 0340 	mov.w	r3, #12582912	@ 0xc00000
 80004ec:	e9c4 350e 	strd	r3, r5, [r4, #56]	@ 0x38
 80004f0:	f44f 3500 	mov.w	r5, #131072	@ 0x20000
 80004f4:	f04f 4340 	mov.w	r3, #3221225472	@ 0xc0000000
 80004f8:	f8c4 a048 	str.w	sl, [r4, #72]	@ 0x48
 80004fc:	e9c4 5310 	strd	r5, r3, [r4, #64]	@ 0x40
 8000500:	f002 ff1c 	bl	800333c <HAL_DMAEx_List_Init>
 8000504:	b108      	cbz	r0, 800050a <main+0x202>
 8000506:	b672      	cpsid	i
 8000508:	e7fe      	b.n	8000508 <main+0x200>
 800050a:	2110      	movs	r1, #16
 800050c:	4620      	mov	r0, r4
 800050e:	f002 fe61 	bl	80031d4 <HAL_DMA_ConfigChannelAttributes>
 8000512:	b108      	cbz	r0, 8000518 <main+0x210>
 8000514:	b672      	cpsid	i
 8000516:	e7fe      	b.n	8000516 <main+0x20e>
 8000518:	f003 fbdc 	bl	8003cd4 <HAL_ICACHE_ConfigAssociativityMode>
 800051c:	b108      	cbz	r0, 8000522 <main+0x21a>
 800051e:	b672      	cpsid	i
 8000520:	e7fe      	b.n	8000520 <main+0x218>
 8000522:	f003 fbe7 	bl	8003cf4 <HAL_ICACHE_Enable>
 8000526:	4603      	mov	r3, r0
 8000528:	b108      	cbz	r0, 800052e <main+0x226>
 800052a:	b672      	cpsid	i
 800052c:	e7fe      	b.n	800052c <main+0x224>
 800052e:	e9cd 000b 	strd	r0, r0, [sp, #44]	@ 0x2c
 8000532:	e9cd 0013 	strd	r0, r0, [sp, #76]	@ 0x4c
 8000536:	4a46      	ldr	r2, [pc, #280]	@ (8000650 <main+0x348>)
 8000538:	4846      	ldr	r0, [pc, #280]	@ (8000654 <main+0x34c>)
 800053a:	2110      	movs	r1, #16
 800053c:	6002      	str	r2, [r0, #0]
 800053e:	f502 7282 	add.w	r2, r2, #260	@ 0x104
 8000542:	e9c0 2301 	strd	r2, r3, [r0, #4]
 8000546:	f44f 5280 	mov.w	r2, #4096	@ 0x1000
 800054a:	e9c0 2309 	strd	r2, r3, [r0, #36]	@ 0x24
 800054e:	f44f 4280 	mov.w	r2, #16384	@ 0x4000
 8000552:	e9c0 3303 	strd	r3, r3, [r0, #12]
 8000556:	e9c0 230b 	strd	r2, r3, [r0, #44]	@ 0x2c
 800055a:	e9c0 3305 	strd	r3, r3, [r0, #20]
 800055e:	e9c0 3307 	strd	r3, r3, [r0, #28]
 8000562:	e9c0 330d 	strd	r3, r3, [r0, #52]	@ 0x34
 8000566:	e9c0 3310 	strd	r3, r3, [r0, #64]	@ 0x40
 800056a:	f880 3048 	strb.w	r3, [r0, #72]	@ 0x48
 800056e:	f44f 1200 	mov.w	r2, #2097152	@ 0x200000
 8000572:	2320      	movs	r3, #32
 8000574:	63c2      	str	r2, [r0, #60]	@ 0x3c
 8000576:	930a      	str	r3, [sp, #40]	@ 0x28
 8000578:	2211      	movs	r2, #17
 800057a:	f04f 5340 	mov.w	r3, #805306368	@ 0x30000000
 800057e:	e9cd 120d 	strd	r1, r2, [sp, #52]	@ 0x34
 8000582:	e9cd 360f 	strd	r3, r6, [sp, #60]	@ 0x3c
 8000586:	e9cd 6608 	strd	r6, r6, [sp, #32]
 800058a:	e9cd 6811 	strd	r6, r8, [sp, #68]	@ 0x44
 800058e:	e9cd 1215 	strd	r1, r2, [sp, #84]	@ 0x54
 8000592:	aa10      	add	r2, sp, #64	@ 0x40
 8000594:	a908      	add	r1, sp, #32
 8000596:	9317      	str	r3, [sp, #92]	@ 0x5c
 8000598:	f005 fe44 	bl	8006224 <HAL_SRAM_Init>
 800059c:	4605      	mov	r5, r0
 800059e:	b108      	cbz	r0, 80005a4 <main+0x29c>
 80005a0:	b672      	cpsid	i
 80005a2:	e7fe      	b.n	80005a2 <main+0x29a>
 80005a4:	4601      	mov	r1, r0
 80005a6:	2218      	movs	r2, #24
 80005a8:	a810      	add	r0, sp, #64	@ 0x40
 80005aa:	f005 ff26 	bl	80063fa <memset>
 80005ae:	4c2a      	ldr	r4, [pc, #168]	@ (8000658 <main+0x350>)
 80005b0:	4b2a      	ldr	r3, [pc, #168]	@ (800065c <main+0x354>)
 80005b2:	f04f 7280 	mov.w	r2, #16777216	@ 0x1000000
 80005b6:	e9c4 3800 	strd	r3, r8, [r4]
 80005ba:	2317      	movs	r3, #23
 80005bc:	2103      	movs	r1, #3
 80005be:	e9c4 2303 	strd	r2, r3, [r4, #12]
 80005c2:	f04f 4380 	mov.w	r3, #1073741824	@ 0x40000000
 80005c6:	4620      	mov	r0, r4
 80005c8:	e9cd 5508 	strd	r5, r5, [sp, #32]
 80005cc:	e9c4 7505 	strd	r7, r5, [r4, #20]
 80005d0:	e9c4 5507 	strd	r5, r5, [r4, #28]
 80005d4:	e9c4 1309 	strd	r1, r3, [r4, #36]	@ 0x24
 80005d8:	e9c4 550b 	strd	r5, r5, [r4, #44]	@ 0x2c
 80005dc:	e9c4 950d 	strd	r9, r5, [r4, #52]	@ 0x34
 80005e0:	60a5      	str	r5, [r4, #8]
 80005e2:	63e5      	str	r5, [r4, #60]	@ 0x3c
 80005e4:	f003 fcb2 	bl	8003f4c <HAL_OSPI_Init>
 80005e8:	b108      	cbz	r0, 80005ee <main+0x2e6>
 80005ea:	b672      	cpsid	i
 80005ec:	e7fe      	b.n	80005ec <main+0x2e4>
 80005ee:	f04f 1301 	mov.w	r3, #65537	@ 0x10001
 80005f2:	f241 3288 	movw	r2, #5000	@ 0x1388
 80005f6:	4620      	mov	r0, r4
 80005f8:	a910      	add	r1, sp, #64	@ 0x40
 80005fa:	9610      	str	r6, [sp, #64]	@ 0x40
 80005fc:	9612      	str	r6, [sp, #72]	@ 0x48
 80005fe:	9313      	str	r3, [sp, #76]	@ 0x4c
 8000600:	f004 f890 	bl	8004724 <HAL_OSPIM_Config>
 8000604:	b108      	cbz	r0, 800060a <main+0x302>
 8000606:	b672      	cpsid	i
 8000608:	e7fe      	b.n	8000608 <main+0x300>
 800060a:	e9cd 0008 	strd	r0, r0, [sp, #32]
 800060e:	a908      	add	r1, sp, #32
 8000610:	4620      	mov	r0, r4
 8000612:	f004 fb01 	bl	8004c18 <HAL_OSPI_DLYB_SetConfig>
 8000616:	b108      	cbz	r0, 800061c <main+0x314>
 8000618:	b672      	cpsid	i
 800061a:	e7fe      	b.n	800061a <main+0x312>
 800061c:	f000 fa70 	bl	8000b00 <MX_DISPLAY_Init>
 8000620:	f000 fbbc 	bl	8000d9c <MX_DISPLAY_Process>
 8000624:	e7fc      	b.n	8000620 <main+0x318>
 8000626:	bf00      	nop
 8000628:	46020c00 	.word	0x46020c00
 800062c:	42021000 	.word	0x42021000
 8000630:	42021800 	.word	0x42021800
 8000634:	42020800 	.word	0x42020800
 8000638:	42020400 	.word	0x42020400
 800063c:	42021400 	.word	0x42021400
 8000640:	42020000 	.word	0x42020000
 8000644:	10110000 	.word	0x10110000
 8000648:	200001d0 	.word	0x200001d0
 800064c:	400206d0 	.word	0x400206d0
 8000650:	420d0400 	.word	0x420d0400
 8000654:	2000011c 	.word	0x2000011c
 8000658:	20000174 	.word	0x20000174
 800065c:	420d1400 	.word	0x420d1400

08000660 <Error_Handler>:
 8000660:	b672      	cpsid	i
 8000662:	e7fe      	b.n	8000662 <Error_Handler+0x2>

08000664 <HAL_MspInit>:
 8000664:	2004      	movs	r0, #4
 8000666:	4b08      	ldr	r3, [pc, #32]	@ (8000688 <HAL_MspInit+0x24>)
 8000668:	b082      	sub	sp, #8
 800066a:	f8d3 2094 	ldr.w	r2, [r3, #148]	@ 0x94
 800066e:	f042 0204 	orr.w	r2, r2, #4
 8000672:	f8c3 2094 	str.w	r2, [r3, #148]	@ 0x94
 8000676:	f8d3 3094 	ldr.w	r3, [r3, #148]	@ 0x94
 800067a:	f003 0304 	and.w	r3, r3, #4
 800067e:	9301      	str	r3, [sp, #4]
 8000680:	9b01      	ldr	r3, [sp, #4]
 8000682:	b002      	add	sp, #8
 8000684:	f002 bb7a 	b.w	8002d7c <HAL_NVIC_SetPriorityGrouping>
 8000688:	46020c00 	.word	0x46020c00

0800068c <HAL_OSPI_MspInit>:
 800068c:	2214      	movs	r2, #20
 800068e:	b5f0      	push	{r4, r5, r6, r7, lr}
 8000690:	4604      	mov	r4, r0
 8000692:	b0bb      	sub	sp, #236	@ 0xec
 8000694:	2100      	movs	r1, #0
 8000696:	eb0d 0002 	add.w	r0, sp, r2
 800069a:	f005 feae 	bl	80063fa <memset>
 800069e:	22c0      	movs	r2, #192	@ 0xc0
 80006a0:	2100      	movs	r1, #0
 80006a2:	a80a      	add	r0, sp, #40	@ 0x28
 80006a4:	f005 fea9 	bl	80063fa <memset>
 80006a8:	6822      	ldr	r2, [r4, #0]
 80006aa:	4b38      	ldr	r3, [pc, #224]	@ (800078c <HAL_OSPI_MspInit+0x100>)
 80006ac:	429a      	cmp	r2, r3
 80006ae:	d16b      	bne.n	8000788 <HAL_OSPI_MspInit+0xfc>
 80006b0:	f04f 6280 	mov.w	r2, #67108864	@ 0x4000000
 80006b4:	2300      	movs	r3, #0
 80006b6:	a80a      	add	r0, sp, #40	@ 0x28
 80006b8:	e9cd 230a 	strd	r2, r3, [sp, #40]	@ 0x28
 80006bc:	f005 fae0 	bl	8005c80 <HAL_RCCEx_PeriphCLKConfig>
 80006c0:	b108      	cbz	r0, 80006c6 <HAL_OSPI_MspInit+0x3a>
 80006c2:	f7ff ffcd 	bl	8000660 <Error_Handler>
 80006c6:	4b32      	ldr	r3, [pc, #200]	@ (8000790 <HAL_OSPI_MspInit+0x104>)
 80006c8:	2702      	movs	r7, #2
 80006ca:	f8d3 208c 	ldr.w	r2, [r3, #140]	@ 0x8c
 80006ce:	2600      	movs	r6, #0
 80006d0:	f442 1200 	orr.w	r2, r2, #2097152	@ 0x200000
 80006d4:	f8c3 208c 	str.w	r2, [r3, #140]	@ 0x8c
 80006d8:	f8d3 208c 	ldr.w	r2, [r3, #140]	@ 0x8c
 80006dc:	2503      	movs	r5, #3
 80006de:	f402 1200 	and.w	r2, r2, #2097152	@ 0x200000
 80006e2:	9200      	str	r2, [sp, #0]
 80006e4:	9a00      	ldr	r2, [sp, #0]
 80006e6:	f8d3 2090 	ldr.w	r2, [r3, #144]	@ 0x90
 80006ea:	240a      	movs	r4, #10
 80006ec:	f042 0210 	orr.w	r2, r2, #16
 80006f0:	f8c3 2090 	str.w	r2, [r3, #144]	@ 0x90
 80006f4:	f8d3 2090 	ldr.w	r2, [r3, #144]	@ 0x90
 80006f8:	4826      	ldr	r0, [pc, #152]	@ (8000794 <HAL_OSPI_MspInit+0x108>)
 80006fa:	f002 0210 	and.w	r2, r2, #16
 80006fe:	9201      	str	r2, [sp, #4]
 8000700:	9a01      	ldr	r2, [sp, #4]
 8000702:	f8d3 208c 	ldr.w	r2, [r3, #140]	@ 0x8c
 8000706:	a905      	add	r1, sp, #20
 8000708:	f042 0201 	orr.w	r2, r2, #1
 800070c:	f8c3 208c 	str.w	r2, [r3, #140]	@ 0x8c
 8000710:	f8d3 208c 	ldr.w	r2, [r3, #140]	@ 0x8c
 8000714:	f002 0201 	and.w	r2, r2, #1
 8000718:	9202      	str	r2, [sp, #8]
 800071a:	9a02      	ldr	r2, [sp, #8]
 800071c:	f8d3 208c 	ldr.w	r2, [r3, #140]	@ 0x8c
 8000720:	f042 0202 	orr.w	r2, r2, #2
 8000724:	f8c3 208c 	str.w	r2, [r3, #140]	@ 0x8c
 8000728:	f8d3 208c 	ldr.w	r2, [r3, #140]	@ 0x8c
 800072c:	f002 0202 	and.w	r2, r2, #2
 8000730:	9203      	str	r2, [sp, #12]
 8000732:	9a03      	ldr	r2, [sp, #12]
 8000734:	f8d3 208c 	ldr.w	r2, [r3, #140]	@ 0x8c
 8000738:	f042 0210 	orr.w	r2, r2, #16
 800073c:	f8c3 208c 	str.w	r2, [r3, #140]	@ 0x8c
 8000740:	f8d3 308c 	ldr.w	r3, [r3, #140]	@ 0x8c
 8000744:	e9cd 6507 	strd	r6, r5, [sp, #28]
 8000748:	f003 0310 	and.w	r3, r3, #16
 800074c:	9304      	str	r3, [sp, #16]
 800074e:	9b04      	ldr	r3, [sp, #16]
 8000750:	2304      	movs	r3, #4
 8000752:	9409      	str	r4, [sp, #36]	@ 0x24
 8000754:	e9cd 3705 	strd	r3, r7, [sp, #20]
 8000758:	f003 f90a 	bl	8003970 <HAL_GPIO_Init>
 800075c:	f240 4301 	movw	r3, #1025	@ 0x401
 8000760:	480d      	ldr	r0, [pc, #52]	@ (8000798 <HAL_OSPI_MspInit+0x10c>)
 8000762:	a905      	add	r1, sp, #20
 8000764:	e9cd 3705 	strd	r3, r7, [sp, #20]
 8000768:	e9cd 6507 	strd	r6, r5, [sp, #28]
 800076c:	9409      	str	r4, [sp, #36]	@ 0x24
 800076e:	f003 f8ff 	bl	8003970 <HAL_GPIO_Init>
 8000772:	f44f 4350 	mov.w	r3, #53248	@ 0xd000
 8000776:	4809      	ldr	r0, [pc, #36]	@ (800079c <HAL_OSPI_MspInit+0x110>)
 8000778:	a905      	add	r1, sp, #20
 800077a:	e9cd 3705 	strd	r3, r7, [sp, #20]
 800077e:	e9cd 6507 	strd	r6, r5, [sp, #28]
 8000782:	9409      	str	r4, [sp, #36]	@ 0x24
 8000784:	f003 f8f4 	bl	8003970 <HAL_GPIO_Init>
 8000788:	b03b      	add	sp, #236	@ 0xec
 800078a:	bdf0      	pop	{r4, r5, r6, r7, pc}
 800078c:	420d1400 	.word	0x420d1400
 8000790:	46020c00 	.word	0x46020c00
 8000794:	42020000 	.word	0x42020000
 8000798:	42020400 	.word	0x42020400
 800079c:	42021000 	.word	0x42021000

080007a0 <HAL_OSPI_MspDeInit>:
 80007a0:	b508      	push	{r3, lr}
 80007a2:	6802      	ldr	r2, [r0, #0]
 80007a4:	4b10      	ldr	r3, [pc, #64]	@ (80007e8 <HAL_OSPI_MspDeInit+0x48>)
 80007a6:	429a      	cmp	r2, r3
 80007a8:	d11c      	bne.n	80007e4 <HAL_OSPI_MspDeInit+0x44>
 80007aa:	4b10      	ldr	r3, [pc, #64]	@ (80007ec <HAL_OSPI_MspDeInit+0x4c>)
 80007ac:	2104      	movs	r1, #4
 80007ae:	f8d3 208c 	ldr.w	r2, [r3, #140]	@ 0x8c
 80007b2:	480f      	ldr	r0, [pc, #60]	@ (80007f0 <HAL_OSPI_MspDeInit+0x50>)
 80007b4:	f422 1200 	bic.w	r2, r2, #2097152	@ 0x200000
 80007b8:	f8c3 208c 	str.w	r2, [r3, #140]	@ 0x8c
 80007bc:	f8d3 2090 	ldr.w	r2, [r3, #144]	@ 0x90
 80007c0:	f022 0210 	bic.w	r2, r2, #16
 80007c4:	f8c3 2090 	str.w	r2, [r3, #144]	@ 0x90
 80007c8:	f003 f9e0 	bl	8003b8c <HAL_GPIO_DeInit>
 80007cc:	f240 4101 	movw	r1, #1025	@ 0x401
 80007d0:	4808      	ldr	r0, [pc, #32]	@ (80007f4 <HAL_OSPI_MspDeInit+0x54>)
 80007d2:	f003 f9db 	bl	8003b8c <HAL_GPIO_DeInit>
 80007d6:	e8bd 4008 	ldmia.w	sp!, {r3, lr}
 80007da:	f44f 4150 	mov.w	r1, #53248	@ 0xd000
 80007de:	4806      	ldr	r0, [pc, #24]	@ (80007f8 <HAL_OSPI_MspDeInit+0x58>)
 80007e0:	f003 b9d4 	b.w	8003b8c <HAL_GPIO_DeInit>
 80007e4:	bd08      	pop	{r3, pc}
 80007e6:	bf00      	nop
 80007e8:	420d1400 	.word	0x420d1400
 80007ec:	46020c00 	.word	0x46020c00
 80007f0:	42020000 	.word	0x42020000
 80007f4:	42020400 	.word	0x42020400
 80007f8:	42021000 	.word	0x42021000

080007fc <HAL_SRAM_MspInit>:
 80007fc:	2300      	movs	r3, #0
 80007fe:	b5f0      	push	{r4, r5, r6, r7, lr}
 8000800:	b087      	sub	sp, #28
 8000802:	9303      	str	r3, [sp, #12]
 8000804:	4b15      	ldr	r3, [pc, #84]	@ (800085c <HAL_SRAM_MspInit+0x60>)
 8000806:	681e      	ldr	r6, [r3, #0]
 8000808:	bb36      	cbnz	r6, 8000858 <HAL_SRAM_MspInit+0x5c>
 800080a:	2201      	movs	r2, #1
 800080c:	601a      	str	r2, [r3, #0]
 800080e:	4b14      	ldr	r3, [pc, #80]	@ (8000860 <HAL_SRAM_MspInit+0x64>)
 8000810:	2702      	movs	r7, #2
 8000812:	f8d3 2090 	ldr.w	r2, [r3, #144]	@ 0x90
 8000816:	2503      	movs	r5, #3
 8000818:	f042 0201 	orr.w	r2, r2, #1
 800081c:	f8c3 2090 	str.w	r2, [r3, #144]	@ 0x90
 8000820:	f8d3 3090 	ldr.w	r3, [r3, #144]	@ 0x90
 8000824:	240c      	movs	r4, #12
 8000826:	f003 0301 	and.w	r3, r3, #1
 800082a:	9300      	str	r3, [sp, #0]
 800082c:	9b00      	ldr	r3, [sp, #0]
 800082e:	f44f 63f2 	mov.w	r3, #1936	@ 0x790
 8000832:	480c      	ldr	r0, [pc, #48]	@ (8000864 <HAL_SRAM_MspInit+0x68>)
 8000834:	a901      	add	r1, sp, #4
 8000836:	e9cd 3701 	strd	r3, r7, [sp, #4]
 800083a:	e9cd 5404 	strd	r5, r4, [sp, #16]
 800083e:	f003 f897 	bl	8003970 <HAL_GPIO_Init>
 8000842:	f24c 03b3 	movw	r3, #49331	@ 0xc0b3
 8000846:	4808      	ldr	r0, [pc, #32]	@ (8000868 <HAL_SRAM_MspInit+0x6c>)
 8000848:	a901      	add	r1, sp, #4
 800084a:	e9cd 3701 	strd	r3, r7, [sp, #4]
 800084e:	e9cd 6503 	strd	r6, r5, [sp, #12]
 8000852:	9405      	str	r4, [sp, #20]
 8000854:	f003 f88c 	bl	8003970 <HAL_GPIO_Init>
 8000858:	b007      	add	sp, #28
 800085a:	bdf0      	pop	{r4, r5, r6, r7, pc}
 800085c:	20000248 	.word	0x20000248
 8000860:	46020c00 	.word	0x46020c00
 8000864:	42021000 	.word	0x42021000
 8000868:	42020c00 	.word	0x42020c00

0800086c <NMI_Handler>:
 800086c:	e7fe      	b.n	800086c <NMI_Handler>

0800086e <HardFault_Handler>:
 800086e:	e7fe      	b.n	800086e <HardFault_Handler>

08000870 <MemManage_Handler>:
 8000870:	e7fe      	b.n	8000870 <MemManage_Handler>

08000872 <BusFault_Handler>:
 8000872:	e7fe      	b.n	8000872 <BusFault_Handler>

08000874 <UsageFault_Handler>:
 8000874:	e7fe      	b.n	8000874 <UsageFault_Handler>

08000876 <SVC_Handler>:
 8000876:	4770      	bx	lr

08000878 <DebugMon_Handler>:
 8000878:	4770      	bx	lr

0800087a <PendSV_Handler>:
 800087a:	4770      	bx	lr

0800087c <SysTick_Handler>:
 800087c:	f002 ba5a 	b.w	8002d34 <HAL_IncTick>

08000880 <EXTI13_IRQHandler>:
 8000880:	f44f 5000 	mov.w	r0, #8192	@ 0x2000
 8000884:	f003 ba12 	b.w	8003cac <HAL_GPIO_EXTI_IRQHandler>

08000888 <GPDMA1_Channel13_IRQHandler>:
 8000888:	4801      	ldr	r0, [pc, #4]	@ (8000890 <GPDMA1_Channel13_IRQHandler+0x8>)
 800088a:	f002 bbc8 	b.w	800301e <HAL_DMA_IRQHandler>
 800088e:	bf00      	nop
 8000890:	200001d0 	.word	0x200001d0

08000894 <SystemInit>:
 8000894:	2201      	movs	r2, #1
 8000896:	480e      	ldr	r0, [pc, #56]	@ (80008d0 <SystemInit+0x3c>)
 8000898:	f8d0 3088 	ldr.w	r3, [r0, #136]	@ 0x88
 800089c:	f443 0370 	orr.w	r3, r3, #15728640	@ 0xf00000
 80008a0:	f8c0 3088 	str.w	r3, [r0, #136]	@ 0x88
 80008a4:	4b0b      	ldr	r3, [pc, #44]	@ (80008d4 <SystemInit+0x40>)
 80008a6:	601a      	str	r2, [r3, #0]
 80008a8:	2200      	movs	r2, #0
 80008aa:	61da      	str	r2, [r3, #28]
 80008ac:	621a      	str	r2, [r3, #32]
 80008ae:	625a      	str	r2, [r3, #36]	@ 0x24
 80008b0:	6819      	ldr	r1, [r3, #0]
 80008b2:	f021 51a8 	bic.w	r1, r1, #352321536	@ 0x15000000
 80008b6:	f421 2110 	bic.w	r1, r1, #589824	@ 0x90000
 80008ba:	6019      	str	r1, [r3, #0]
 80008bc:	629a      	str	r2, [r3, #40]	@ 0x28
 80008be:	6819      	ldr	r1, [r3, #0]
 80008c0:	f421 2180 	bic.w	r1, r1, #262144	@ 0x40000
 80008c4:	6019      	str	r1, [r3, #0]
 80008c6:	651a      	str	r2, [r3, #80]	@ 0x50
 80008c8:	f04f 6300 	mov.w	r3, #134217728	@ 0x8000000
 80008cc:	6083      	str	r3, [r0, #8]
 80008ce:	4770      	bx	lr
 80008d0:	e000ed00 	.word	0xe000ed00
 80008d4:	46020c00 	.word	0x46020c00

080008d8 <Reset_Handler>:
 80008d8:	f8df d034 	ldr.w	sp, [pc, #52]	@ 8000910 <LoopForever+0x2>
 80008dc:	f7ff ffda 	bl	8000894 <SystemInit>
 80008e0:	2100      	movs	r1, #0
 80008e2:	e003      	b.n	80008ec <LoopCopyDataInit>

080008e4 <CopyDataInit>:
 80008e4:	4b0b      	ldr	r3, [pc, #44]	@ (8000914 <LoopForever+0x6>)
 80008e6:	585b      	ldr	r3, [r3, r1]
 80008e8:	5043      	str	r3, [r0, r1]
 80008ea:	3104      	adds	r1, #4

080008ec <LoopCopyDataInit>:
 80008ec:	480a      	ldr	r0, [pc, #40]	@ (8000918 <LoopForever+0xa>)
 80008ee:	4b0b      	ldr	r3, [pc, #44]	@ (800091c <LoopForever+0xe>)
 80008f0:	1842      	adds	r2, r0, r1
 80008f2:	429a      	cmp	r2, r3
 80008f4:	d3f6      	bcc.n	80008e4 <CopyDataInit>
 80008f6:	4a0a      	ldr	r2, [pc, #40]	@ (8000920 <LoopForever+0x12>)
 80008f8:	e002      	b.n	8000900 <LoopFillZerobss>

080008fa <FillZerobss>:
 80008fa:	2300      	movs	r3, #0
 80008fc:	f842 3b04 	str.w	r3, [r2], #4

08000900 <LoopFillZerobss>:
 8000900:	4b08      	ldr	r3, [pc, #32]	@ (8000924 <LoopForever+0x16>)
 8000902:	429a      	cmp	r2, r3
 8000904:	d3f9      	bcc.n	80008fa <FillZerobss>
 8000906:	f005 fd81 	bl	800640c <__libc_init_array>
 800090a:	f7ff fcfd 	bl	8000308 <main>

0800090e <LoopForever>:
 800090e:	e7fe      	b.n	800090e <LoopForever>
 8000910:	200c0000 	.word	0x200c0000
 8000914:	080cd730 	.word	0x080cd730
 8000918:	20000000 	.word	0x20000000
 800091c:	20000100 	.word	0x20000100
 8000920:	20000100 	.word	0x20000100
 8000924:	2000cc80 	.word	0x2000cc80

08000928 <ADC1_IRQHandler>:
 8000928:	e7fe      	b.n	8000928 <ADC1_IRQHandler>

0800092a <BSP_LCD_GetPixelFormat>:
 800092a:	b910      	cbnz	r0, 8000932 <BSP_LCD_GetPixelFormat+0x8>
 800092c:	2302      	movs	r3, #2
 800092e:	600b      	str	r3, [r1, #0]
 8000930:	4770      	bx	lr
 8000932:	f06f 0001 	mvn.w	r0, #1
 8000936:	4770      	bx	lr

08000938 <BSP_LCD_FillRect>:
 8000938:	e92d 4ff0 	stmdb	sp!, {r4, r5, r6, r7, r8, r9, sl, fp, lr}
 800093c:	b085      	sub	sp, #20
 800093e:	9f0e      	ldr	r7, [sp, #56]	@ 0x38
 8000940:	4681      	mov	r9, r0
 8000942:	2f50      	cmp	r7, #80	@ 0x50
 8000944:	fb07 f403 	mul.w	r4, r7, r3
 8000948:	bf28      	it	cs
 800094a:	2750      	movcs	r7, #80	@ 0x50
 800094c:	fb07 f803 	mul.w	r8, r7, r3
 8000950:	ea4f 0848 	mov.w	r8, r8, lsl #1
 8000954:	468a      	mov	sl, r1
 8000956:	4616      	mov	r6, r2
 8000958:	990f      	ldr	r1, [sp, #60]	@ 0x3c
 800095a:	4642      	mov	r2, r8
 800095c:	481c      	ldr	r0, [pc, #112]	@ (80009d0 <BSP_LCD_FillRect+0x98>)
 800095e:	461d      	mov	r5, r3
 8000960:	46c3      	mov	fp, r8
 8000962:	f005 fd4a 	bl	80063fa <memset>
 8000966:	0064      	lsls	r4, r4, #1
 8000968:	2000      	movs	r0, #0
 800096a:	f001 f8d5 	bl	8001b18 <BSP_LCD_WaitForTransferToBeDone>
 800096e:	4653      	mov	r3, sl
 8000970:	2101      	movs	r1, #1
 8000972:	4648      	mov	r0, r9
 8000974:	e9cd 5701 	strd	r5, r7, [sp, #4]
 8000978:	4a15      	ldr	r2, [pc, #84]	@ (80009d0 <BSP_LCD_FillRect+0x98>)
 800097a:	9600      	str	r6, [sp, #0]
 800097c:	f001 f8a8 	bl	8001ad0 <BSP_LCD_FillRGBRect>
 8000980:	b108      	cbz	r0, 8000986 <BSP_LCD_FillRect+0x4e>
 8000982:	f7ff fe6d 	bl	8000660 <Error_Handler>
 8000986:	455c      	cmp	r4, fp
 8000988:	443e      	add	r6, r7
 800098a:	d017      	beq.n	80009bc <BSP_LCD_FillRect+0x84>
 800098c:	eb08 030b 	add.w	r3, r8, fp
 8000990:	429c      	cmp	r4, r3
 8000992:	d21a      	bcs.n	80009ca <BSP_LCD_FillRect+0x92>
 8000994:	006b      	lsls	r3, r5, #1
 8000996:	eba4 040b 	sub.w	r4, r4, fp
 800099a:	fbb4 f4f3 	udiv	r4, r4, r3
 800099e:	2000      	movs	r0, #0
 80009a0:	f001 f8ba 	bl	8001b18 <BSP_LCD_WaitForTransferToBeDone>
 80009a4:	4653      	mov	r3, sl
 80009a6:	2101      	movs	r1, #1
 80009a8:	4648      	mov	r0, r9
 80009aa:	e9cd 5401 	strd	r5, r4, [sp, #4]
 80009ae:	4a08      	ldr	r2, [pc, #32]	@ (80009d0 <BSP_LCD_FillRect+0x98>)
 80009b0:	9600      	str	r6, [sp, #0]
 80009b2:	f001 f88d 	bl	8001ad0 <BSP_LCD_FillRGBRect>
 80009b6:	b108      	cbz	r0, 80009bc <BSP_LCD_FillRect+0x84>
 80009b8:	f7ff fe52 	bl	8000660 <Error_Handler>
 80009bc:	2000      	movs	r0, #0
 80009be:	f001 f8ab 	bl	8001b18 <BSP_LCD_WaitForTransferToBeDone>
 80009c2:	2000      	movs	r0, #0
 80009c4:	b005      	add	sp, #20
 80009c6:	e8bd 8ff0 	ldmia.w	sp!, {r4, r5, r6, r7, r8, r9, sl, fp, pc}
 80009ca:	469b      	mov	fp, r3
 80009cc:	e7cc      	b.n	8000968 <BSP_LCD_FillRect+0x30>
 80009ce:	bf00      	nop
 80009d0:	20000280 	.word	0x20000280

080009d4 <BSP_LCD_FillRGBRect2>:
 80009d4:	b5f0      	push	{r4, r5, r6, r7, lr}
 80009d6:	460e      	mov	r6, r1
 80009d8:	4617      	mov	r7, r2
 80009da:	461d      	mov	r5, r3
 80009dc:	4604      	mov	r4, r0
 80009de:	b085      	sub	sp, #20
 80009e0:	2000      	movs	r0, #0
 80009e2:	f001 f899 	bl	8001b18 <BSP_LCD_WaitForTransferToBeDone>
 80009e6:	9b0b      	ldr	r3, [sp, #44]	@ 0x2c
 80009e8:	462a      	mov	r2, r5
 80009ea:	9302      	str	r3, [sp, #8]
 80009ec:	9b0a      	ldr	r3, [sp, #40]	@ 0x28
 80009ee:	2100      	movs	r1, #0
 80009f0:	e9cd 7300 	strd	r7, r3, [sp]
 80009f4:	4620      	mov	r0, r4
 80009f6:	4633      	mov	r3, r6
 80009f8:	f001 f86a 	bl	8001ad0 <BSP_LCD_FillRGBRect>
 80009fc:	b005      	add	sp, #20
 80009fe:	bdf0      	pop	{r4, r5, r6, r7, pc}

08000a00 <Display_Image>:
 8000a00:	e92d 43f0 	stmdb	sp!, {r4, r5, r6, r7, r8, r9, lr}
 8000a04:	4b15      	ldr	r3, [pc, #84]	@ (8000a5c <Display_Image+0x5c>)
 8000a06:	6844      	ldr	r4, [r0, #4]
 8000a08:	681b      	ldr	r3, [r3, #0]
 8000a0a:	4690      	mov	r8, r2
 8000a0c:	42a3      	cmp	r3, r4
 8000a0e:	bf3f      	itttt	cc
 8000a10:	7a06      	ldrbcc	r6, [r0, #8]
 8000a12:	6802      	ldrcc	r2, [r0, #0]
 8000a14:	1ae4      	subcc	r4, r4, r3
 8000a16:	4356      	mulcc	r6, r2
 8000a18:	bf3e      	ittt	cc
 8000a1a:	0864      	lsrcc	r4, r4, #1
 8000a1c:	4366      	mulcc	r6, r4
 8000a1e:	461c      	movcc	r4, r3
 8000a20:	4605      	mov	r5, r0
 8000a22:	460f      	mov	r7, r1
 8000a24:	bf28      	it	cs
 8000a26:	2600      	movcs	r6, #0
 8000a28:	b085      	sub	sp, #20
 8000a2a:	f8d0 900c 	ldr.w	r9, [r0, #12]
 8000a2e:	2000      	movs	r0, #0
 8000a30:	f001 f872 	bl	8001b18 <BSP_LCD_WaitForTransferToBeDone>
 8000a34:	9402      	str	r4, [sp, #8]
 8000a36:	682b      	ldr	r3, [r5, #0]
 8000a38:	2101      	movs	r1, #1
 8000a3a:	e9cd 8300 	strd	r8, r3, [sp]
 8000a3e:	2000      	movs	r0, #0
 8000a40:	463b      	mov	r3, r7
 8000a42:	eb09 0206 	add.w	r2, r9, r6
 8000a46:	f001 f843 	bl	8001ad0 <BSP_LCD_FillRGBRect>
 8000a4a:	b108      	cbz	r0, 8000a50 <Display_Image+0x50>
 8000a4c:	f7ff fe08 	bl	8000660 <Error_Handler>
 8000a50:	2000      	movs	r0, #0
 8000a52:	b005      	add	sp, #20
 8000a54:	e8bd 43f0 	ldmia.w	sp!, {r4, r5, r6, r7, r8, r9, lr}
 8000a58:	f001 b85e 	b.w	8001b18 <BSP_LCD_WaitForTransferToBeDone>
 8000a5c:	20000254 	.word	0x20000254

08000a60 <Display_DemoDescription>:
 8000a60:	b507      	push	{r0, r1, r2, lr}
 8000a62:	2000      	movs	r0, #0
 8000a64:	4669      	mov	r1, sp
 8000a66:	f000 ff5d 	bl	8001924 <BSP_LCD_GetXSize>
 8000a6a:	a901      	add	r1, sp, #4
 8000a6c:	2000      	movs	r0, #0
 8000a6e:	f000 ff7d 	bl	800196c <BSP_LCD_GetYSize>
 8000a72:	2000      	movs	r0, #0
 8000a74:	f000 fb8a 	bl	800118c <UTIL_LCD_SetBackColor>
 8000a78:	f06f 00ff 	mvn.w	r0, #255	@ 0xff
 8000a7c:	f000 fb7e 	bl	800117c <UTIL_LCD_SetTextColor>
 8000a80:	4817      	ldr	r0, [pc, #92]	@ (8000ae0 <Display_DemoDescription+0x80>)
 8000a82:	f000 fb8b 	bl	800119c <UTIL_LCD_SetFont>
 8000a86:	2100      	movs	r1, #0
 8000a88:	2301      	movs	r3, #1
 8000a8a:	4608      	mov	r0, r1
 8000a8c:	4a15      	ldr	r2, [pc, #84]	@ (8000ae4 <Display_DemoDescription+0x84>)
 8000a8e:	f000 fc7d 	bl	800138c <UTIL_LCD_DisplayStringAt>
 8000a92:	4815      	ldr	r0, [pc, #84]	@ (8000ae8 <Display_DemoDescription+0x88>)
 8000a94:	f000 fb82 	bl	800119c <UTIL_LCD_SetFont>
 8000a98:	2301      	movs	r3, #1
 8000a9a:	2114      	movs	r1, #20
 8000a9c:	2000      	movs	r0, #0
 8000a9e:	4a13      	ldr	r2, [pc, #76]	@ (8000aec <Display_DemoDescription+0x8c>)
 8000aa0:	f000 fc74 	bl	800138c <UTIL_LCD_DisplayStringAt>
 8000aa4:	f46f 407f 	mvn.w	r0, #65280	@ 0xff00
 8000aa8:	f000 fb68 	bl	800117c <UTIL_LCD_SetTextColor>
 8000aac:	4b10      	ldr	r3, [pc, #64]	@ (8000af0 <Display_DemoDescription+0x90>)
 8000aae:	681b      	ldr	r3, [r3, #0]
 8000ab0:	3b02      	subs	r3, #2
 8000ab2:	2b01      	cmp	r3, #1
 8000ab4:	d80c      	bhi.n	8000ad0 <Display_DemoDescription+0x70>
 8000ab6:	480f      	ldr	r0, [pc, #60]	@ (8000af4 <Display_DemoDescription+0x94>)
 8000ab8:	f000 fb70 	bl	800119c <UTIL_LCD_SetFont>
 8000abc:	2301      	movs	r3, #1
 8000abe:	9901      	ldr	r1, [sp, #4]
 8000ac0:	4a0d      	ldr	r2, [pc, #52]	@ (8000af8 <Display_DemoDescription+0x98>)
 8000ac2:	390c      	subs	r1, #12
 8000ac4:	2000      	movs	r0, #0
 8000ac6:	f000 fc61 	bl	800138c <UTIL_LCD_DisplayStringAt>
 8000aca:	b003      	add	sp, #12
 8000acc:	f85d fb04 	ldr.w	pc, [sp], #4
 8000ad0:	480a      	ldr	r0, [pc, #40]	@ (8000afc <Display_DemoDescription+0x9c>)
 8000ad2:	f000 fb63 	bl	800119c <UTIL_LCD_SetFont>
 8000ad6:	9901      	ldr	r1, [sp, #4]
 8000ad8:	2301      	movs	r3, #1
 8000ada:	4a07      	ldr	r2, [pc, #28]	@ (8000af8 <Display_DemoDescription+0x98>)
 8000adc:	3908      	subs	r1, #8
 8000ade:	e7f1      	b.n	8000ac4 <Display_DemoDescription+0x64>
 8000ae0:	20000090 	.word	0x20000090
 8000ae4:	080064bc 	.word	0x080064bc
 8000ae8:	20000088 	.word	0x20000088
 8000aec:	080064cc 	.word	0x080064cc
 8000af0:	20000250 	.word	0x20000250
 8000af4:	20000080 	.word	0x20000080
 8000af8:	080064dd 	.word	0x080064dd
 8000afc:	20000078 	.word	0x20000078

08000b00 <MX_DISPLAY_Init>:
 8000b00:	e92d 47ff 	stmdb	sp!, {r0, r1, r2, r3, r4, r5, r6, r7, r8, r9, sl, lr}
 8000b04:	2100      	movs	r1, #0
 8000b06:	4608      	mov	r0, r1
 8000b08:	f000 fe46 	bl	8001798 <BSP_LCD_Init>
 8000b0c:	b108      	cbz	r0, 8000b12 <MX_DISPLAY_Init+0x12>
 8000b0e:	f7ff fda7 	bl	8000660 <Error_Handler>
 8000b12:	2000      	movs	r0, #0
 8000b14:	f001 f878 	bl	8001c08 <BSP_MEM_Init>
 8000b18:	b108      	cbz	r0, 8000b1e <MX_DISPLAY_Init+0x1e>
 8000b1a:	f7ff fda1 	bl	8000660 <Error_Handler>
 8000b1e:	2100      	movs	r1, #0
 8000b20:	4608      	mov	r0, r1
 8000b22:	f000 fca3 	bl	800146c <BSP_KEY_Init>
 8000b26:	b108      	cbz	r0, 8000b2c <MX_DISPLAY_Init+0x2c>
 8000b28:	f7ff fd9a 	bl	8000660 <Error_Handler>
 8000b2c:	2000      	movs	r0, #0
 8000b2e:	498a      	ldr	r1, [pc, #552]	@ (8000d58 <MX_DISPLAY_Init+0x258>)
 8000b30:	f000 fef8 	bl	8001924 <BSP_LCD_GetXSize>
 8000b34:	2800      	cmp	r0, #0
 8000b36:	f000 80bf 	beq.w	8000cb8 <MX_DISPLAY_Init+0x1b8>
 8000b3a:	f7ff fd91 	bl	8000660 <Error_Handler>
 8000b3e:	2400      	movs	r4, #0
 8000b40:	4f86      	ldr	r7, [pc, #536]	@ (8000d5c <MX_DISPLAY_Init+0x25c>)
 8000b42:	9401      	str	r4, [sp, #4]
 8000b44:	683b      	ldr	r3, [r7, #0]
 8000b46:	4e84      	ldr	r6, [pc, #528]	@ (8000d58 <MX_DISPLAY_Init+0x258>)
 8000b48:	9300      	str	r3, [sp, #0]
 8000b4a:	4622      	mov	r2, r4
 8000b4c:	4621      	mov	r1, r4
 8000b4e:	4620      	mov	r0, r4
 8000b50:	6833      	ldr	r3, [r6, #0]
 8000b52:	f7ff fef1 	bl	8000938 <BSP_LCD_FillRect>
 8000b56:	4620      	mov	r0, r4
 8000b58:	f000 ff2c 	bl	80019b4 <BSP_LCD_DisplayOn>
 8000b5c:	b108      	cbz	r0, 8000b62 <MX_DISPLAY_Init+0x62>
 8000b5e:	f7ff fd7f 	bl	8000660 <Error_Handler>
 8000b62:	f04f 34ff 	mov.w	r4, #4294967295
 8000b66:	487e      	ldr	r0, [pc, #504]	@ (8000d60 <MX_DISPLAY_Init+0x260>)
 8000b68:	f000 fad8 	bl	800111c <UTIL_LCD_SetFuncDriver>
 8000b6c:	4d7d      	ldr	r5, [pc, #500]	@ (8000d64 <MX_DISPLAY_Init+0x264>)
 8000b6e:	f7ff ff77 	bl	8000a60 <Display_DemoDescription>
 8000b72:	a902      	add	r1, sp, #8
 8000b74:	2000      	movs	r0, #0
 8000b76:	f000 fed5 	bl	8001924 <BSP_LCD_GetXSize>
 8000b7a:	a903      	add	r1, sp, #12
 8000b7c:	2000      	movs	r0, #0
 8000b7e:	f000 fef5 	bl	800196c <BSP_LCD_GetYSize>
 8000b82:	686b      	ldr	r3, [r5, #4]
 8000b84:	683a      	ldr	r2, [r7, #0]
 8000b86:	6831      	ldr	r1, [r6, #0]
 8000b88:	1ad2      	subs	r2, r2, r3
 8000b8a:	682b      	ldr	r3, [r5, #0]
 8000b8c:	f3c2 024f 	ubfx	r2, r2, #1, #16
 8000b90:	1ac9      	subs	r1, r1, r3
 8000b92:	f3c1 014f 	ubfx	r1, r1, #1, #16
 8000b96:	4628      	mov	r0, r5
 8000b98:	f7ff ff32 	bl	8000a00 <Display_Image>
 8000b9c:	4872      	ldr	r0, [pc, #456]	@ (8000d68 <MX_DISPLAY_Init+0x268>)
 8000b9e:	f000 fafd 	bl	800119c <UTIL_LCD_SetFont>
 8000ba2:	9903      	ldr	r1, [sp, #12]
 8000ba4:	9a02      	ldr	r2, [sp, #8]
 8000ba6:	0849      	lsrs	r1, r1, #1
 8000ba8:	235e      	movs	r3, #94	@ 0x5e
 8000baa:	3a08      	subs	r2, #8
 8000bac:	392f      	subs	r1, #47	@ 0x2f
 8000bae:	2004      	movs	r0, #4
 8000bb0:	9400      	str	r4, [sp, #0]
 8000bb2:	f000 fc37 	bl	8001424 <UTIL_LCD_FillRect>
 8000bb6:	4620      	mov	r0, r4
 8000bb8:	f000 fae8 	bl	800118c <UTIL_LCD_SetBackColor>
 8000bbc:	486b      	ldr	r0, [pc, #428]	@ (8000d6c <MX_DISPLAY_Init+0x26c>)
 8000bbe:	f000 fadd 	bl	800117c <UTIL_LCD_SetTextColor>
 8000bc2:	9903      	ldr	r1, [sp, #12]
 8000bc4:	2303      	movs	r3, #3
 8000bc6:	0849      	lsrs	r1, r1, #1
 8000bc8:	4a69      	ldr	r2, [pc, #420]	@ (8000d70 <MX_DISPLAY_Init+0x270>)
 8000bca:	392c      	subs	r1, #44	@ 0x2c
 8000bcc:	2008      	movs	r0, #8
 8000bce:	f000 fbdd 	bl	800138c <UTIL_LCD_DisplayStringAt>
 8000bd2:	4868      	ldr	r0, [pc, #416]	@ (8000d74 <MX_DISPLAY_Init+0x274>)
 8000bd4:	f000 fae2 	bl	800119c <UTIL_LCD_SetFont>
 8000bd8:	9903      	ldr	r1, [sp, #12]
 8000bda:	2303      	movs	r3, #3
 8000bdc:	0849      	lsrs	r1, r1, #1
 8000bde:	2008      	movs	r0, #8
 8000be0:	4a65      	ldr	r2, [pc, #404]	@ (8000d78 <MX_DISPLAY_Init+0x278>)
 8000be2:	3915      	subs	r1, #21
 8000be4:	f000 fbd2 	bl	800138c <UTIL_LCD_DisplayStringAt>
 8000be8:	9903      	ldr	r1, [sp, #12]
 8000bea:	2303      	movs	r3, #3
 8000bec:	0849      	lsrs	r1, r1, #1
 8000bee:	2008      	movs	r0, #8
 8000bf0:	4a62      	ldr	r2, [pc, #392]	@ (8000d7c <MX_DISPLAY_Init+0x27c>)
 8000bf2:	3907      	subs	r1, #7
 8000bf4:	f000 fbca 	bl	800138c <UTIL_LCD_DisplayStringAt>
 8000bf8:	9903      	ldr	r1, [sp, #12]
 8000bfa:	2303      	movs	r3, #3
 8000bfc:	0849      	lsrs	r1, r1, #1
 8000bfe:	2008      	movs	r0, #8
 8000c00:	4a5f      	ldr	r2, [pc, #380]	@ (8000d80 <MX_DISPLAY_Init+0x280>)
 8000c02:	3107      	adds	r1, #7
 8000c04:	f000 fbc2 	bl	800138c <UTIL_LCD_DisplayStringAt>
 8000c08:	240a      	movs	r4, #10
 8000c0a:	f8df 9180 	ldr.w	r9, [pc, #384]	@ 8000d8c <MX_DISPLAY_Init+0x28c>
 8000c0e:	f8df 815c 	ldr.w	r8, [pc, #348]	@ 8000d6c <MX_DISPLAY_Init+0x26c>
 8000c12:	f8df a184 	ldr.w	sl, [pc, #388]	@ 8000d98 <MX_DISPLAY_Init+0x298>
 8000c16:	f44f 5100 	mov.w	r1, #8192	@ 0x2000
 8000c1a:	4648      	mov	r0, r9
 8000c1c:	f003 f838 	bl	8003c90 <HAL_GPIO_ReadPin>
 8000c20:	2801      	cmp	r0, #1
 8000c22:	d156      	bne.n	8000cd2 <MX_DISPLAY_Init+0x1d2>
 8000c24:	f44f 70c8 	mov.w	r0, #400	@ 0x190
 8000c28:	f002 f896 	bl	8002d58 <HAL_Delay>
 8000c2c:	686b      	ldr	r3, [r5, #4]
 8000c2e:	683a      	ldr	r2, [r7, #0]
 8000c30:	6831      	ldr	r1, [r6, #0]
 8000c32:	1ad2      	subs	r2, r2, r3
 8000c34:	682b      	ldr	r3, [r5, #0]
 8000c36:	f04f 35ff 	mov.w	r5, #4294967295
 8000c3a:	1ac9      	subs	r1, r1, r3
 8000c3c:	f3c2 024f 	ubfx	r2, r2, #1, #16
 8000c40:	f3c1 014f 	ubfx	r1, r1, #1, #16
 8000c44:	4847      	ldr	r0, [pc, #284]	@ (8000d64 <MX_DISPLAY_Init+0x264>)
 8000c46:	f7ff fedb 	bl	8000a00 <Display_Image>
 8000c4a:	4847      	ldr	r0, [pc, #284]	@ (8000d68 <MX_DISPLAY_Init+0x268>)
 8000c4c:	f000 faa6 	bl	800119c <UTIL_LCD_SetFont>
 8000c50:	9903      	ldr	r1, [sp, #12]
 8000c52:	9a02      	ldr	r2, [sp, #8]
 8000c54:	0849      	lsrs	r1, r1, #1
 8000c56:	2342      	movs	r3, #66	@ 0x42
 8000c58:	3a08      	subs	r2, #8
 8000c5a:	3921      	subs	r1, #33	@ 0x21
 8000c5c:	2004      	movs	r0, #4
 8000c5e:	9500      	str	r5, [sp, #0]
 8000c60:	f000 fbe0 	bl	8001424 <UTIL_LCD_FillRect>
 8000c64:	4628      	mov	r0, r5
 8000c66:	f000 fa91 	bl	800118c <UTIL_LCD_SetBackColor>
 8000c6a:	4840      	ldr	r0, [pc, #256]	@ (8000d6c <MX_DISPLAY_Init+0x26c>)
 8000c6c:	f000 fa86 	bl	800117c <UTIL_LCD_SetTextColor>
 8000c70:	9903      	ldr	r1, [sp, #12]
 8000c72:	2303      	movs	r3, #3
 8000c74:	0849      	lsrs	r1, r1, #1
 8000c76:	4a43      	ldr	r2, [pc, #268]	@ (8000d84 <MX_DISPLAY_Init+0x284>)
 8000c78:	391e      	subs	r1, #30
 8000c7a:	2008      	movs	r0, #8
 8000c7c:	f000 fb86 	bl	800138c <UTIL_LCD_DisplayStringAt>
 8000c80:	483c      	ldr	r0, [pc, #240]	@ (8000d74 <MX_DISPLAY_Init+0x274>)
 8000c82:	f000 fa8b 	bl	800119c <UTIL_LCD_SetFont>
 8000c86:	9903      	ldr	r1, [sp, #12]
 8000c88:	2303      	movs	r3, #3
 8000c8a:	0849      	lsrs	r1, r1, #1
 8000c8c:	2008      	movs	r0, #8
 8000c8e:	4a3e      	ldr	r2, [pc, #248]	@ (8000d88 <MX_DISPLAY_Init+0x288>)
 8000c90:	3907      	subs	r1, #7
 8000c92:	f000 fb7b 	bl	800138c <UTIL_LCD_DisplayStringAt>
 8000c96:	4e3d      	ldr	r6, [pc, #244]	@ (8000d8c <MX_DISPLAY_Init+0x28c>)
 8000c98:	4d34      	ldr	r5, [pc, #208]	@ (8000d6c <MX_DISPLAY_Init+0x26c>)
 8000c9a:	4f3d      	ldr	r7, [pc, #244]	@ (8000d90 <MX_DISPLAY_Init+0x290>)
 8000c9c:	f44f 5100 	mov.w	r1, #8192	@ 0x2000
 8000ca0:	4630      	mov	r0, r6
 8000ca2:	f002 fff5 	bl	8003c90 <HAL_GPIO_ReadPin>
 8000ca6:	2801      	cmp	r0, #1
 8000ca8:	d134      	bne.n	8000d14 <MX_DISPLAY_Init+0x214>
 8000caa:	f44f 70c8 	mov.w	r0, #400	@ 0x190
 8000cae:	f002 f853 	bl	8002d58 <HAL_Delay>
 8000cb2:	b004      	add	sp, #16
 8000cb4:	e8bd 87f0 	ldmia.w	sp!, {r4, r5, r6, r7, r8, r9, sl, pc}
 8000cb8:	4928      	ldr	r1, [pc, #160]	@ (8000d5c <MX_DISPLAY_Init+0x25c>)
 8000cba:	f000 fe57 	bl	800196c <BSP_LCD_GetYSize>
 8000cbe:	2800      	cmp	r0, #0
 8000cc0:	f47f af3b 	bne.w	8000b3a <MX_DISPLAY_Init+0x3a>
 8000cc4:	4933      	ldr	r1, [pc, #204]	@ (8000d94 <MX_DISPLAY_Init+0x294>)
 8000cc6:	f000 fe09 	bl	80018dc <BSP_LCD_GetOrientation>
 8000cca:	2800      	cmp	r0, #0
 8000ccc:	f47f af35 	bne.w	8000b3a <MX_DISPLAY_Init+0x3a>
 8000cd0:	e735      	b.n	8000b3e <MX_DISPLAY_Init+0x3e>
 8000cd2:	2c05      	cmp	r4, #5
 8000cd4:	d113      	bne.n	8000cfe <MX_DISPLAY_Init+0x1fe>
 8000cd6:	4640      	mov	r0, r8
 8000cd8:	f000 fa58 	bl	800118c <UTIL_LCD_SetBackColor>
 8000cdc:	f04f 30ff 	mov.w	r0, #4294967295
 8000ce0:	f000 fa4c 	bl	800117c <UTIL_LCD_SetTextColor>
 8000ce4:	9903      	ldr	r1, [sp, #12]
 8000ce6:	2301      	movs	r3, #1
 8000ce8:	0849      	lsrs	r1, r1, #1
 8000cea:	4652      	mov	r2, sl
 8000cec:	2004      	movs	r0, #4
 8000cee:	311f      	adds	r1, #31
 8000cf0:	f000 fb4c 	bl	800138c <UTIL_LCD_DisplayStringAt>
 8000cf4:	2064      	movs	r0, #100	@ 0x64
 8000cf6:	3401      	adds	r4, #1
 8000cf8:	f002 f82e 	bl	8002d58 <HAL_Delay>
 8000cfc:	e78b      	b.n	8000c16 <MX_DISPLAY_Init+0x116>
 8000cfe:	2c0a      	cmp	r4, #10
 8000d00:	d1f0      	bne.n	8000ce4 <MX_DISPLAY_Init+0x1e4>
 8000d02:	f04f 30ff 	mov.w	r0, #4294967295
 8000d06:	f000 fa41 	bl	800118c <UTIL_LCD_SetBackColor>
 8000d0a:	4640      	mov	r0, r8
 8000d0c:	f000 fa36 	bl	800117c <UTIL_LCD_SetTextColor>
 8000d10:	2400      	movs	r4, #0
 8000d12:	e7e7      	b.n	8000ce4 <MX_DISPLAY_Init+0x1e4>
 8000d14:	2c05      	cmp	r4, #5
 8000d16:	d113      	bne.n	8000d40 <MX_DISPLAY_Init+0x240>
 8000d18:	4628      	mov	r0, r5
 8000d1a:	f000 fa37 	bl	800118c <UTIL_LCD_SetBackColor>
 8000d1e:	f04f 30ff 	mov.w	r0, #4294967295
 8000d22:	f000 fa2b 	bl	800117c <UTIL_LCD_SetTextColor>
 8000d26:	9903      	ldr	r1, [sp, #12]
 8000d28:	2301      	movs	r3, #1
 8000d2a:	0849      	lsrs	r1, r1, #1
 8000d2c:	463a      	mov	r2, r7
 8000d2e:	2004      	movs	r0, #4
 8000d30:	3111      	adds	r1, #17
 8000d32:	f000 fb2b 	bl	800138c <UTIL_LCD_DisplayStringAt>
 8000d36:	2064      	movs	r0, #100	@ 0x64
 8000d38:	3401      	adds	r4, #1
 8000d3a:	f002 f80d 	bl	8002d58 <HAL_Delay>
 8000d3e:	e7ad      	b.n	8000c9c <MX_DISPLAY_Init+0x19c>
 8000d40:	2c0a      	cmp	r4, #10
 8000d42:	d1f0      	bne.n	8000d26 <MX_DISPLAY_Init+0x226>
 8000d44:	f04f 30ff 	mov.w	r0, #4294967295
 8000d48:	f000 fa20 	bl	800118c <UTIL_LCD_SetBackColor>
 8000d4c:	4628      	mov	r0, r5
 8000d4e:	f000 fa15 	bl	800117c <UTIL_LCD_SetTextColor>
 8000d52:	2400      	movs	r4, #0
 8000d54:	e7e7      	b.n	8000d26 <MX_DISPLAY_Init+0x226>
 8000d56:	bf00      	nop
 8000d58:	20000258 	.word	0x20000258
 8000d5c:	20000254 	.word	0x20000254
 8000d60:	080065d4 	.word	0x080065d4
 8000d64:	20000004 	.word	0x20000004
 8000d68:	20000088 	.word	0x20000088
 8000d6c:	ff0000ff 	.word	0xff0000ff
 8000d70:	08006503 	.word	0x08006503
 8000d74:	20000080 	.word	0x20000080
 8000d78:	08006512 	.word	0x08006512
 8000d7c:	08006530 	.word	0x08006530
 8000d80:	08006551 	.word	0x08006551
 8000d84:	0800658d 	.word	0x0800658d
 8000d88:	0800659f 	.word	0x0800659f
 8000d8c:	42020800 	.word	0x42020800
 8000d90:	080065b9 	.word	0x080065b9
 8000d94:	20000250 	.word	0x20000250
 8000d98:	0800656f 	.word	0x0800656f

08000d9c <MX_DISPLAY_Process>:
 8000d9c:	e92d 4ff7 	stmdb	sp!, {r0, r1, r2, r4, r5, r6, r7, r8, r9, sl, fp, lr}
 8000da0:	4d90      	ldr	r5, [pc, #576]	@ (8000fe4 <MX_DISPLAY_Process+0x248>)
 8000da2:	782b      	ldrb	r3, [r5, #0]
 8000da4:	2b00      	cmp	r3, #0
 8000da6:	d079      	beq.n	8000e9c <MX_DISPLAY_Process+0x100>
 8000da8:	4a8f      	ldr	r2, [pc, #572]	@ (8000fe8 <MX_DISPLAY_Process+0x24c>)
 8000daa:	4f90      	ldr	r7, [pc, #576]	@ (8000fec <MX_DISPLAY_Process+0x250>)
 8000dac:	7811      	ldrb	r1, [r2, #0]
 8000dae:	783b      	ldrb	r3, [r7, #0]
 8000db0:	4c8f      	ldr	r4, [pc, #572]	@ (8000ff0 <MX_DISPLAY_Process+0x254>)
 8000db2:	b961      	cbnz	r1, 8000dce <MX_DISPLAY_Process+0x32>
 8000db4:	eb04 1103 	add.w	r1, r4, r3, lsl #4
 8000db8:	6848      	ldr	r0, [r1, #4]
 8000dba:	498e      	ldr	r1, [pc, #568]	@ (8000ff4 <MX_DISPLAY_Process+0x258>)
 8000dbc:	6809      	ldr	r1, [r1, #0]
 8000dbe:	4288      	cmp	r0, r1
 8000dc0:	d205      	bcs.n	8000dce <MX_DISPLAY_Process+0x32>
 8000dc2:	498d      	ldr	r1, [pc, #564]	@ (8000ff8 <MX_DISPLAY_Process+0x25c>)
 8000dc4:	6809      	ldr	r1, [r1, #0]
 8000dc6:	2901      	cmp	r1, #1
 8000dc8:	bf9c      	itt	ls
 8000dca:	2101      	movls	r1, #1
 8000dcc:	7011      	strbls	r1, [r2, #0]
 8000dce:	4e8b      	ldr	r6, [pc, #556]	@ (8000ffc <MX_DISPLAY_Process+0x260>)
 8000dd0:	f8df 8234 	ldr.w	r8, [pc, #564]	@ 8001008 <MX_DISPLAY_Process+0x26c>
 8000dd4:	8831      	ldrh	r1, [r6, #0]
 8000dd6:	f8df c228 	ldr.w	ip, [pc, #552]	@ 8001000 <MX_DISPLAY_Process+0x264>
 8000dda:	2900      	cmp	r1, #0
 8000ddc:	d16e      	bne.n	8000ebc <MX_DISPLAY_Process+0x120>
 8000dde:	f8df 9224 	ldr.w	r9, [pc, #548]	@ 8001004 <MX_DISPLAY_Process+0x268>
 8000de2:	0118      	lsls	r0, r3, #4
 8000de4:	5820      	ldr	r0, [r4, r0]
 8000de6:	f8d9 2000 	ldr.w	r2, [r9]
 8000dea:	f8df a208 	ldr.w	sl, [pc, #520]	@ 8000ff4 <MX_DISPLAY_Process+0x258>
 8000dee:	eb04 1303 	add.w	r3, r4, r3, lsl #4
 8000df2:	1a12      	subs	r2, r2, r0
 8000df4:	6858      	ldr	r0, [r3, #4]
 8000df6:	f8da 3000 	ldr.w	r3, [sl]
 8000dfa:	ea4f 0e52 	mov.w	lr, r2, lsr #1
 8000dfe:	4298      	cmp	r0, r3
 8000e00:	bf3c      	itt	cc
 8000e02:	1a18      	subcc	r0, r3, r0
 8000e04:	f3c0 014f 	ubfxcc	r1, r0, #1, #16
 8000e08:	f3c2 024f 	ubfx	r2, r2, #1, #16
 8000e0c:	f8a8 2000 	strh.w	r2, [r8]
 8000e10:	8031      	strh	r1, [r6, #0]
 8000e12:	f8ac 1000 	strh.w	r1, [ip]
 8000e16:	b1ca      	cbz	r2, 8000e4c <MX_DISPLAY_Process+0xb0>
 8000e18:	f04f 0b00 	mov.w	fp, #0
 8000e1c:	465a      	mov	r2, fp
 8000e1e:	4659      	mov	r1, fp
 8000e20:	e9cd 3b00 	strd	r3, fp, [sp]
 8000e24:	4658      	mov	r0, fp
 8000e26:	fa1f f38e 	uxth.w	r3, lr
 8000e2a:	f7ff fd85 	bl	8000938 <BSP_LCD_FillRect>
 8000e2e:	783a      	ldrb	r2, [r7, #0]
 8000e30:	f8b8 3000 	ldrh.w	r3, [r8]
 8000e34:	0112      	lsls	r2, r2, #4
 8000e36:	58a1      	ldr	r1, [r4, r2]
 8000e38:	f8cd b004 	str.w	fp, [sp, #4]
 8000e3c:	f8da 2000 	ldr.w	r2, [sl]
 8000e40:	4658      	mov	r0, fp
 8000e42:	9200      	str	r2, [sp, #0]
 8000e44:	4419      	add	r1, r3
 8000e46:	465a      	mov	r2, fp
 8000e48:	f7ff fd76 	bl	8000938 <BSP_LCD_FillRect>
 8000e4c:	8833      	ldrh	r3, [r6, #0]
 8000e4e:	b1cb      	cbz	r3, 8000e84 <MX_DISPLAY_Process+0xe8>
 8000e50:	f04f 0a00 	mov.w	sl, #0
 8000e54:	f8cd a004 	str.w	sl, [sp, #4]
 8000e58:	9300      	str	r3, [sp, #0]
 8000e5a:	4652      	mov	r2, sl
 8000e5c:	4651      	mov	r1, sl
 8000e5e:	f8d9 3000 	ldr.w	r3, [r9]
 8000e62:	4650      	mov	r0, sl
 8000e64:	f7ff fd68 	bl	8000938 <BSP_LCD_FillRect>
 8000e68:	783b      	ldrb	r3, [r7, #0]
 8000e6a:	8832      	ldrh	r2, [r6, #0]
 8000e6c:	eb04 1303 	add.w	r3, r4, r3, lsl #4
 8000e70:	6859      	ldr	r1, [r3, #4]
 8000e72:	e9cd 2a00 	strd	r2, sl, [sp]
 8000e76:	4650      	mov	r0, sl
 8000e78:	440a      	add	r2, r1
 8000e7a:	f8d9 3000 	ldr.w	r3, [r9]
 8000e7e:	4651      	mov	r1, sl
 8000e80:	f7ff fd5a 	bl	8000938 <BSP_LCD_FillRect>
 8000e84:	7838      	ldrb	r0, [r7, #0]
 8000e86:	8832      	ldrh	r2, [r6, #0]
 8000e88:	f8b8 1000 	ldrh.w	r1, [r8]
 8000e8c:	eb04 1000 	add.w	r0, r4, r0, lsl #4
 8000e90:	f7ff fdb6 	bl	8000a00 <Display_Image>
 8000e94:	f7ff fde4 	bl	8000a60 <Display_DemoDescription>
 8000e98:	2300      	movs	r3, #0
 8000e9a:	702b      	strb	r3, [r5, #0]
 8000e9c:	2000      	movs	r0, #0
 8000e9e:	4951      	ldr	r1, [pc, #324]	@ (8000fe4 <MX_DISPLAY_Process+0x248>)
 8000ea0:	f000 faf8 	bl	8001494 <BSP_KEY_GetState>
 8000ea4:	2800      	cmp	r0, #0
 8000ea6:	f040 80b1 	bne.w	800100c <MX_DISPLAY_Process+0x270>
 8000eaa:	782b      	ldrb	r3, [r5, #0]
 8000eac:	3b01      	subs	r3, #1
 8000eae:	2b04      	cmp	r3, #4
 8000eb0:	d827      	bhi.n	8000f02 <MX_DISPLAY_Process+0x166>
 8000eb2:	e8df f003 	tbb	[pc, r3]
 8000eb6:	2917      	.short	0x2917
 8000eb8:	6345      	.short	0x6345
 8000eba:	79          	.byte	0x79
 8000ebb:	00          	.byte	0x00
 8000ebc:	f8bc 2000 	ldrh.w	r2, [ip]
 8000ec0:	428a      	cmp	r2, r1
 8000ec2:	d1df      	bne.n	8000e84 <MX_DISPLAY_Process+0xe8>
 8000ec4:	f04f 0a00 	mov.w	sl, #0
 8000ec8:	eb04 1203 	add.w	r2, r4, r3, lsl #4
 8000ecc:	4b49      	ldr	r3, [pc, #292]	@ (8000ff4 <MX_DISPLAY_Process+0x258>)
 8000ece:	6852      	ldr	r2, [r2, #4]
 8000ed0:	681b      	ldr	r3, [r3, #0]
 8000ed2:	f8df 9130 	ldr.w	r9, [pc, #304]	@ 8001004 <MX_DISPLAY_Process+0x268>
 8000ed6:	1a9b      	subs	r3, r3, r2
 8000ed8:	085b      	lsrs	r3, r3, #1
 8000eda:	8033      	strh	r3, [r6, #0]
 8000edc:	f8cd a004 	str.w	sl, [sp, #4]
 8000ee0:	b29b      	uxth	r3, r3
 8000ee2:	e7b9      	b.n	8000e58 <MX_DISPLAY_Process+0xbc>
 8000ee4:	4b46      	ldr	r3, [pc, #280]	@ (8001000 <MX_DISPLAY_Process+0x264>)
 8000ee6:	881a      	ldrh	r2, [r3, #0]
 8000ee8:	4b44      	ldr	r3, [pc, #272]	@ (8000ffc <MX_DISPLAY_Process+0x260>)
 8000eea:	8819      	ldrh	r1, [r3, #0]
 8000eec:	4291      	cmp	r1, r2
 8000eee:	d006      	beq.n	8000efe <MX_DISPLAY_Process+0x162>
 8000ef0:	801a      	strh	r2, [r3, #0]
 8000ef2:	20c8      	movs	r0, #200	@ 0xc8
 8000ef4:	b003      	add	sp, #12
 8000ef6:	e8bd 4ff0 	ldmia.w	sp!, {r4, r5, r6, r7, r8, r9, sl, fp, lr}
 8000efa:	f001 bf2d 	b.w	8002d58 <HAL_Delay>
 8000efe:	2300      	movs	r3, #0
 8000f00:	702b      	strb	r3, [r5, #0]
 8000f02:	b003      	add	sp, #12
 8000f04:	e8bd 8ff0 	ldmia.w	sp!, {r4, r5, r6, r7, r8, r9, sl, fp, pc}
 8000f08:	4b37      	ldr	r3, [pc, #220]	@ (8000fe8 <MX_DISPLAY_Process+0x24c>)
 8000f0a:	781b      	ldrb	r3, [r3, #0]
 8000f0c:	2b00      	cmp	r3, #0
 8000f0e:	d0f6      	beq.n	8000efe <MX_DISPLAY_Process+0x162>
 8000f10:	4c3a      	ldr	r4, [pc, #232]	@ (8000ffc <MX_DISPLAY_Process+0x260>)
 8000f12:	8822      	ldrh	r2, [r4, #0]
 8000f14:	2a01      	cmp	r2, #1
 8000f16:	d9f2      	bls.n	8000efe <MX_DISPLAY_Process+0x162>
 8000f18:	4b34      	ldr	r3, [pc, #208]	@ (8000fec <MX_DISPLAY_Process+0x250>)
 8000f1a:	7819      	ldrb	r1, [r3, #0]
 8000f1c:	4b34      	ldr	r3, [pc, #208]	@ (8000ff0 <MX_DISPLAY_Process+0x254>)
 8000f1e:	eb03 1301 	add.w	r3, r3, r1, lsl #4
 8000f22:	6858      	ldr	r0, [r3, #4]
 8000f24:	2100      	movs	r1, #0
 8000f26:	2301      	movs	r3, #1
 8000f28:	e9cd 3100 	strd	r3, r1, [sp]
 8000f2c:	4b35      	ldr	r3, [pc, #212]	@ (8001004 <MX_DISPLAY_Process+0x268>)
 8000f2e:	4402      	add	r2, r0
 8000f30:	681b      	ldr	r3, [r3, #0]
 8000f32:	4608      	mov	r0, r1
 8000f34:	f7ff fd00 	bl	8000938 <BSP_LCD_FillRect>
 8000f38:	8823      	ldrh	r3, [r4, #0]
 8000f3a:	3b01      	subs	r3, #1
 8000f3c:	8023      	strh	r3, [r4, #0]
 8000f3e:	e7e0      	b.n	8000f02 <MX_DISPLAY_Process+0x166>
 8000f40:	4b29      	ldr	r3, [pc, #164]	@ (8000fe8 <MX_DISPLAY_Process+0x24c>)
 8000f42:	781b      	ldrb	r3, [r3, #0]
 8000f44:	2b00      	cmp	r3, #0
 8000f46:	d0da      	beq.n	8000efe <MX_DISPLAY_Process+0x162>
 8000f48:	4928      	ldr	r1, [pc, #160]	@ (8000fec <MX_DISPLAY_Process+0x250>)
 8000f4a:	4b2a      	ldr	r3, [pc, #168]	@ (8000ff4 <MX_DISPLAY_Process+0x258>)
 8000f4c:	7808      	ldrb	r0, [r1, #0]
 8000f4e:	4928      	ldr	r1, [pc, #160]	@ (8000ff0 <MX_DISPLAY_Process+0x254>)
 8000f50:	4c2a      	ldr	r4, [pc, #168]	@ (8000ffc <MX_DISPLAY_Process+0x260>)
 8000f52:	681b      	ldr	r3, [r3, #0]
 8000f54:	eb01 1100 	add.w	r1, r1, r0, lsl #4
 8000f58:	6849      	ldr	r1, [r1, #4]
 8000f5a:	8822      	ldrh	r2, [r4, #0]
 8000f5c:	3b01      	subs	r3, #1
 8000f5e:	1a5b      	subs	r3, r3, r1
 8000f60:	429a      	cmp	r2, r3
 8000f62:	d2cc      	bcs.n	8000efe <MX_DISPLAY_Process+0x162>
 8000f64:	2100      	movs	r1, #0
 8000f66:	2301      	movs	r3, #1
 8000f68:	e9cd 3100 	strd	r3, r1, [sp]
 8000f6c:	4b25      	ldr	r3, [pc, #148]	@ (8001004 <MX_DISPLAY_Process+0x268>)
 8000f6e:	4608      	mov	r0, r1
 8000f70:	681b      	ldr	r3, [r3, #0]
 8000f72:	f7ff fce1 	bl	8000938 <BSP_LCD_FillRect>
 8000f76:	8823      	ldrh	r3, [r4, #0]
 8000f78:	3301      	adds	r3, #1
 8000f7a:	e7df      	b.n	8000f3c <MX_DISPLAY_Process+0x1a0>
 8000f7c:	491b      	ldr	r1, [pc, #108]	@ (8000fec <MX_DISPLAY_Process+0x250>)
 8000f7e:	4821      	ldr	r0, [pc, #132]	@ (8001004 <MX_DISPLAY_Process+0x268>)
 8000f80:	780a      	ldrb	r2, [r1, #0]
 8000f82:	6800      	ldr	r0, [r0, #0]
 8000f84:	4e1a      	ldr	r6, [pc, #104]	@ (8000ff0 <MX_DISPLAY_Process+0x254>)
 8000f86:	1e53      	subs	r3, r2, #1
 8000f88:	1c5c      	adds	r4, r3, #1
 8000f8a:	d003      	beq.n	8000f94 <MX_DISPLAY_Process+0x1f8>
 8000f8c:	011c      	lsls	r4, r3, #4
 8000f8e:	5934      	ldr	r4, [r6, r4]
 8000f90:	4284      	cmp	r4, r0
 8000f92:	d807      	bhi.n	8000fa4 <MX_DISPLAY_Process+0x208>
 8000f94:	2a00      	cmp	r2, #0
 8000f96:	d0b2      	beq.n	8000efe <MX_DISPLAY_Process+0x162>
 8000f98:	2200      	movs	r2, #0
 8000f9a:	4813      	ldr	r0, [pc, #76]	@ (8000fe8 <MX_DISPLAY_Process+0x24c>)
 8000f9c:	700b      	strb	r3, [r1, #0]
 8000f9e:	7002      	strb	r2, [r0, #0]
 8000fa0:	4b16      	ldr	r3, [pc, #88]	@ (8000ffc <MX_DISPLAY_Process+0x260>)
 8000fa2:	e7a5      	b.n	8000ef0 <MX_DISPLAY_Process+0x154>
 8000fa4:	3b01      	subs	r3, #1
 8000fa6:	e7ef      	b.n	8000f88 <MX_DISPLAY_Process+0x1ec>
 8000fa8:	4810      	ldr	r0, [pc, #64]	@ (8000fec <MX_DISPLAY_Process+0x250>)
 8000faa:	4a16      	ldr	r2, [pc, #88]	@ (8001004 <MX_DISPLAY_Process+0x268>)
 8000fac:	7803      	ldrb	r3, [r0, #0]
 8000fae:	6816      	ldr	r6, [r2, #0]
 8000fb0:	1c5c      	adds	r4, r3, #1
 8000fb2:	4621      	mov	r1, r4
 8000fb4:	4a0e      	ldr	r2, [pc, #56]	@ (8000ff0 <MX_DISPLAY_Process+0x254>)
 8000fb6:	eb02 1303 	add.w	r3, r2, r3, lsl #4
 8000fba:	695f      	ldr	r7, [r3, #20]
 8000fbc:	b11f      	cbz	r7, 8000fc6 <MX_DISPLAY_Process+0x22a>
 8000fbe:	f853 7f10 	ldr.w	r7, [r3, #16]!
 8000fc2:	42b7      	cmp	r7, r6
 8000fc4:	d80b      	bhi.n	8000fde <MX_DISPLAY_Process+0x242>
 8000fc6:	eb02 1204 	add.w	r2, r2, r4, lsl #4
 8000fca:	6853      	ldr	r3, [r2, #4]
 8000fcc:	2b00      	cmp	r3, #0
 8000fce:	d096      	beq.n	8000efe <MX_DISPLAY_Process+0x162>
 8000fd0:	2300      	movs	r3, #0
 8000fd2:	4a05      	ldr	r2, [pc, #20]	@ (8000fe8 <MX_DISPLAY_Process+0x24c>)
 8000fd4:	7001      	strb	r1, [r0, #0]
 8000fd6:	7013      	strb	r3, [r2, #0]
 8000fd8:	4a08      	ldr	r2, [pc, #32]	@ (8000ffc <MX_DISPLAY_Process+0x260>)
 8000fda:	8013      	strh	r3, [r2, #0]
 8000fdc:	e789      	b.n	8000ef2 <MX_DISPLAY_Process+0x156>
 8000fde:	3101      	adds	r1, #1
 8000fe0:	e7eb      	b.n	8000fba <MX_DISPLAY_Process+0x21e>
 8000fe2:	bf00      	nop
 8000fe4:	20000074 	.word	0x20000074
 8000fe8:	2000024c 	.word	0x2000024c
 8000fec:	2000025c 	.word	0x2000025c
 8000ff0:	20000004 	.word	0x20000004
 8000ff4:	20000254 	.word	0x20000254
 8000ff8:	20000250 	.word	0x20000250
 8000ffc:	2000025e 	.word	0x2000025e
 8001000:	20000262 	.word	0x20000262
 8001004:	20000258 	.word	0x20000258
 8001008:	20000260 	.word	0x20000260
 800100c:	f44f 5100 	mov.w	r1, #8192	@ 0x2000
 8001010:	4831      	ldr	r0, [pc, #196]	@ (80010d8 <MX_DISPLAY_Process+0x33c>)
 8001012:	f002 fe3d 	bl	8003c90 <HAL_GPIO_ReadPin>
 8001016:	2801      	cmp	r0, #1
 8001018:	f47f af73 	bne.w	8000f02 <MX_DISPLAY_Process+0x166>
 800101c:	4f2f      	ldr	r7, [pc, #188]	@ (80010dc <MX_DISPLAY_Process+0x340>)
 800101e:	2400      	movs	r4, #0
 8001020:	783b      	ldrb	r3, [r7, #0]
 8001022:	f8df 80c4 	ldr.w	r8, [pc, #196]	@ 80010e8 <MX_DISPLAY_Process+0x34c>
 8001026:	3301      	adds	r3, #1
 8001028:	b2db      	uxtb	r3, r3
 800102a:	2b04      	cmp	r3, #4
 800102c:	bf08      	it	eq
 800102e:	2300      	moveq	r3, #0
 8001030:	703b      	strb	r3, [r7, #0]
 8001032:	4b2b      	ldr	r3, [pc, #172]	@ (80010e0 <MX_DISPLAY_Process+0x344>)
 8001034:	9401      	str	r4, [sp, #4]
 8001036:	681b      	ldr	r3, [r3, #0]
 8001038:	4621      	mov	r1, r4
 800103a:	9300      	str	r3, [sp, #0]
 800103c:	f8d8 3000 	ldr.w	r3, [r8]
 8001040:	4622      	mov	r2, r4
 8001042:	4620      	mov	r0, r4
 8001044:	f7ff fc78 	bl	8000938 <BSP_LCD_FillRect>
 8001048:	4e26      	ldr	r6, [pc, #152]	@ (80010e4 <MX_DISPLAY_Process+0x348>)
 800104a:	783b      	ldrb	r3, [r7, #0]
 800104c:	4620      	mov	r0, r4
 800104e:	f856 1033 	ldr.w	r1, [r6, r3, lsl #3]
 8001052:	f000 fc1f 	bl	8001894 <BSP_LCD_SetOrientation>
 8001056:	b108      	cbz	r0, 800105c <MX_DISPLAY_Process+0x2c0>
 8001058:	f7ff fb02 	bl	8000660 <Error_Handler>
 800105c:	783b      	ldrb	r3, [r7, #0]
 800105e:	2000      	movs	r0, #0
 8001060:	eb06 06c3 	add.w	r6, r6, r3, lsl #3
 8001064:	6871      	ldr	r1, [r6, #4]
 8001066:	f000 fa09 	bl	800147c <BSP_KEY_SetOrientation>
 800106a:	b108      	cbz	r0, 8001070 <MX_DISPLAY_Process+0x2d4>
 800106c:	f7ff faf8 	bl	8000660 <Error_Handler>
 8001070:	2000      	movs	r0, #0
 8001072:	491d      	ldr	r1, [pc, #116]	@ (80010e8 <MX_DISPLAY_Process+0x34c>)
 8001074:	f000 fc56 	bl	8001924 <BSP_LCD_GetXSize>
 8001078:	b300      	cbz	r0, 80010bc <MX_DISPLAY_Process+0x320>
 800107a:	f7ff faf1 	bl	8000660 <Error_Handler>
 800107e:	481b      	ldr	r0, [pc, #108]	@ (80010ec <MX_DISPLAY_Process+0x350>)
 8001080:	f000 f84c 	bl	800111c <UTIL_LCD_SetFuncDriver>
 8001084:	491a      	ldr	r1, [pc, #104]	@ (80010f0 <MX_DISPLAY_Process+0x354>)
 8001086:	f8d8 0000 	ldr.w	r0, [r8]
 800108a:	780b      	ldrb	r3, [r1, #0]
 800108c:	4a19      	ldr	r2, [pc, #100]	@ (80010f4 <MX_DISPLAY_Process+0x358>)
 800108e:	011c      	lsls	r4, r3, #4
 8001090:	5914      	ldr	r4, [r2, r4]
 8001092:	4284      	cmp	r4, r0
 8001094:	d901      	bls.n	800109a <MX_DISPLAY_Process+0x2fe>
 8001096:	3b01      	subs	r3, #1
 8001098:	d2f9      	bcs.n	800108e <MX_DISPLAY_Process+0x2f2>
 800109a:	eb02 1203 	add.w	r2, r2, r3, lsl #4
 800109e:	6854      	ldr	r4, [r2, #4]
 80010a0:	b11c      	cbz	r4, 80010aa <MX_DISPLAY_Process+0x30e>
 80010a2:	f852 4b10 	ldr.w	r4, [r2], #16
 80010a6:	42a0      	cmp	r0, r4
 80010a8:	d313      	bcc.n	80010d2 <MX_DISPLAY_Process+0x336>
 80010aa:	700b      	strb	r3, [r1, #0]
 80010ac:	23ff      	movs	r3, #255	@ 0xff
 80010ae:	702b      	strb	r3, [r5, #0]
 80010b0:	2300      	movs	r3, #0
 80010b2:	4a11      	ldr	r2, [pc, #68]	@ (80010f8 <MX_DISPLAY_Process+0x35c>)
 80010b4:	8013      	strh	r3, [r2, #0]
 80010b6:	4a11      	ldr	r2, [pc, #68]	@ (80010fc <MX_DISPLAY_Process+0x360>)
 80010b8:	7013      	strb	r3, [r2, #0]
 80010ba:	e71a      	b.n	8000ef2 <MX_DISPLAY_Process+0x156>
 80010bc:	4908      	ldr	r1, [pc, #32]	@ (80010e0 <MX_DISPLAY_Process+0x344>)
 80010be:	f000 fc55 	bl	800196c <BSP_LCD_GetYSize>
 80010c2:	2800      	cmp	r0, #0
 80010c4:	d1d9      	bne.n	800107a <MX_DISPLAY_Process+0x2de>
 80010c6:	490e      	ldr	r1, [pc, #56]	@ (8001100 <MX_DISPLAY_Process+0x364>)
 80010c8:	f000 fc08 	bl	80018dc <BSP_LCD_GetOrientation>
 80010cc:	2800      	cmp	r0, #0
 80010ce:	d1d4      	bne.n	800107a <MX_DISPLAY_Process+0x2de>
 80010d0:	e7d5      	b.n	800107e <MX_DISPLAY_Process+0x2e2>
 80010d2:	3301      	adds	r3, #1
 80010d4:	e7e3      	b.n	800109e <MX_DISPLAY_Process+0x302>
 80010d6:	bf00      	nop
 80010d8:	42020800 	.word	0x42020800
 80010dc:	2000024d 	.word	0x2000024d
 80010e0:	20000254 	.word	0x20000254
 80010e4:	08006600 	.word	0x08006600
 80010e8:	20000258 	.word	0x20000258
 80010ec:	080065d4 	.word	0x080065d4
 80010f0:	2000025c 	.word	0x2000025c
 80010f4:	20000004 	.word	0x20000004
 80010f8:	2000025e 	.word	0x2000025e
 80010fc:	2000024c 	.word	0x2000024c
 8001100:	20000250 	.word	0x20000250

08001104 <BSP_LCD_SignalTearingEffectEvent>:
 8001104:	b918      	cbnz	r0, 800110e <BSP_LCD_SignalTearingEffectEvent+0xa>
 8001106:	b119      	cbz	r1, 8001110 <BSP_LCD_SignalTearingEffectEvent+0xc>
 8001108:	b90a      	cbnz	r2, 800110e <BSP_LCD_SignalTearingEffectEvent+0xa>
 800110a:	4b03      	ldr	r3, [pc, #12]	@ (8001118 <BSP_LCD_SignalTearingEffectEvent+0x14>)
 800110c:	701a      	strb	r2, [r3, #0]
 800110e:	4770      	bx	lr
 8001110:	2201      	movs	r2, #1
 8001112:	4b01      	ldr	r3, [pc, #4]	@ (8001118 <BSP_LCD_SignalTearingEffectEvent+0x14>)
 8001114:	e7fa      	b.n	800110c <BSP_LCD_SignalTearingEffectEvent+0x8>
 8001116:	bf00      	nop
 8001118:	2000ca80 	.word	0x2000ca80

0800111c <UTIL_LCD_SetFuncDriver>:
 800111c:	b570      	push	{r4, r5, r6, lr}
 800111e:	2500      	movs	r5, #0
 8001120:	4c14      	ldr	r4, [pc, #80]	@ (8001174 <UTIL_LCD_SetFuncDriver+0x58>)
 8001122:	6803      	ldr	r3, [r0, #0]
 8001124:	6a02      	ldr	r2, [r0, #32]
 8001126:	6023      	str	r3, [r4, #0]
 8001128:	6843      	ldr	r3, [r0, #4]
 800112a:	6222      	str	r2, [r4, #32]
 800112c:	6063      	str	r3, [r4, #4]
 800112e:	6883      	ldr	r3, [r0, #8]
 8001130:	6a42      	ldr	r2, [r0, #36]	@ 0x24
 8001132:	60a3      	str	r3, [r4, #8]
 8001134:	68c3      	ldr	r3, [r0, #12]
 8001136:	4e10      	ldr	r6, [pc, #64]	@ (8001178 <UTIL_LCD_SetFuncDriver+0x5c>)
 8001138:	60e3      	str	r3, [r4, #12]
 800113a:	6903      	ldr	r3, [r0, #16]
 800113c:	6262      	str	r2, [r4, #36]	@ 0x24
 800113e:	6123      	str	r3, [r4, #16]
 8001140:	6943      	ldr	r3, [r0, #20]
 8001142:	6a82      	ldr	r2, [r0, #40]	@ 0x28
 8001144:	6163      	str	r3, [r4, #20]
 8001146:	6983      	ldr	r3, [r0, #24]
 8001148:	f106 0114 	add.w	r1, r6, #20
 800114c:	61a3      	str	r3, [r4, #24]
 800114e:	69c3      	ldr	r3, [r0, #28]
 8001150:	e9c6 5503 	strd	r5, r5, [r6, #12]
 8001154:	4628      	mov	r0, r5
 8001156:	61e3      	str	r3, [r4, #28]
 8001158:	62a2      	str	r2, [r4, #40]	@ 0x28
 800115a:	4798      	blx	r3
 800115c:	6a23      	ldr	r3, [r4, #32]
 800115e:	f106 0118 	add.w	r1, r6, #24
 8001162:	4628      	mov	r0, r5
 8001164:	4798      	blx	r3
 8001166:	4628      	mov	r0, r5
 8001168:	6aa3      	ldr	r3, [r4, #40]	@ 0x28
 800116a:	f106 011c 	add.w	r1, r6, #28
 800116e:	e8bd 4070 	ldmia.w	sp!, {r4, r5, r6, lr}
 8001172:	4718      	bx	r3
 8001174:	2000ca84 	.word	0x2000ca84
 8001178:	2000cab0 	.word	0x2000cab0

0800117c <UTIL_LCD_SetTextColor>:
 800117c:	4a02      	ldr	r2, [pc, #8]	@ (8001188 <UTIL_LCD_SetTextColor+0xc>)
 800117e:	68d3      	ldr	r3, [r2, #12]
 8001180:	015b      	lsls	r3, r3, #5
 8001182:	50d0      	str	r0, [r2, r3]
 8001184:	4770      	bx	lr
 8001186:	bf00      	nop
 8001188:	2000cab0 	.word	0x2000cab0

0800118c <UTIL_LCD_SetBackColor>:
 800118c:	4b02      	ldr	r3, [pc, #8]	@ (8001198 <UTIL_LCD_SetBackColor+0xc>)
 800118e:	68da      	ldr	r2, [r3, #12]
 8001190:	eb03 1342 	add.w	r3, r3, r2, lsl #5
 8001194:	6058      	str	r0, [r3, #4]
 8001196:	4770      	bx	lr
 8001198:	2000cab0 	.word	0x2000cab0

0800119c <UTIL_LCD_SetFont>:
 800119c:	4b02      	ldr	r3, [pc, #8]	@ (80011a8 <UTIL_LCD_SetFont+0xc>)
 800119e:	68da      	ldr	r2, [r3, #12]
 80011a0:	eb03 1342 	add.w	r3, r3, r2, lsl #5
 80011a4:	6098      	str	r0, [r3, #8]
 80011a6:	4770      	bx	lr
 80011a8:	2000cab0 	.word	0x2000cab0

080011ac <UTIL_LCD_FillRGBRect>:
 80011ac:	b513      	push	{r0, r1, r4, lr}
 80011ae:	9c04      	ldr	r4, [sp, #16]
 80011b0:	e9cd 3400 	strd	r3, r4, [sp]
 80011b4:	4b04      	ldr	r3, [pc, #16]	@ (80011c8 <UTIL_LCD_FillRGBRect+0x1c>)
 80011b6:	685c      	ldr	r4, [r3, #4]
 80011b8:	4613      	mov	r3, r2
 80011ba:	460a      	mov	r2, r1
 80011bc:	4601      	mov	r1, r0
 80011be:	4803      	ldr	r0, [pc, #12]	@ (80011cc <UTIL_LCD_FillRGBRect+0x20>)
 80011c0:	6900      	ldr	r0, [r0, #16]
 80011c2:	47a0      	blx	r4
 80011c4:	b002      	add	sp, #8
 80011c6:	bd10      	pop	{r4, pc}
 80011c8:	2000ca84 	.word	0x2000ca84
 80011cc:	2000cab0 	.word	0x2000cab0

080011d0 <UTIL_LCD_DisplayChar>:
 80011d0:	e92d 4ff0 	stmdb	sp!, {r4, r5, r6, r7, r8, r9, sl, fp, lr}
 80011d4:	4f6c      	ldr	r7, [pc, #432]	@ (8001388 <UTIL_LCD_DisplayChar+0x1b8>)
 80011d6:	b0af      	sub	sp, #188	@ 0xbc
 80011d8:	68fb      	ldr	r3, [r7, #12]
 80011da:	9108      	str	r1, [sp, #32]
 80011dc:	eb07 1343 	add.w	r3, r7, r3, lsl #5
 80011e0:	6899      	ldr	r1, [r3, #8]
 80011e2:	9005      	str	r0, [sp, #20]
 80011e4:	88cb      	ldrh	r3, [r1, #6]
 80011e6:	f8b1 8004 	ldrh.w	r8, [r1, #4]
 80011ea:	9307      	str	r3, [sp, #28]
 80011ec:	f108 0307 	add.w	r3, r8, #7
 80011f0:	08d8      	lsrs	r0, r3, #3
 80011f2:	9006      	str	r0, [sp, #24]
 80011f4:	9808      	ldr	r0, [sp, #32]
 80011f6:	3a20      	subs	r2, #32
 80011f8:	3001      	adds	r0, #1
 80011fa:	9004      	str	r0, [sp, #16]
 80011fc:	9807      	ldr	r0, [sp, #28]
 80011fe:	680e      	ldr	r6, [r1, #0]
 8001200:	4342      	muls	r2, r0
 8001202:	f023 0907 	bic.w	r9, r3, #7
 8001206:	10db      	asrs	r3, r3, #3
 8001208:	fb03 6602 	mla	r6, r3, r2, r6
 800120c:	9b04      	ldr	r3, [sp, #16]
 800120e:	9a08      	ldr	r2, [sp, #32]
 8001210:	3b01      	subs	r3, #1
 8001212:	9303      	str	r3, [sp, #12]
 8001214:	9b04      	ldr	r3, [sp, #16]
 8001216:	1a9b      	subs	r3, r3, r2
 8001218:	9a07      	ldr	r2, [sp, #28]
 800121a:	3b01      	subs	r3, #1
 800121c:	429a      	cmp	r2, r3
 800121e:	d802      	bhi.n	8001226 <UTIL_LCD_DisplayChar+0x56>
 8001220:	b02f      	add	sp, #188	@ 0xbc
 8001222:	e8bd 8ff0 	ldmia.w	sp!, {r4, r5, r6, r7, r8, r9, sl, fp, pc}
 8001226:	9b06      	ldr	r3, [sp, #24]
 8001228:	7835      	ldrb	r5, [r6, #0]
 800122a:	2b01      	cmp	r3, #1
 800122c:	d004      	beq.n	8001238 <UTIL_LCD_DisplayChar+0x68>
 800122e:	2b02      	cmp	r3, #2
 8001230:	d117      	bne.n	8001262 <UTIL_LCD_DisplayChar+0x92>
 8001232:	8835      	ldrh	r5, [r6, #0]
 8001234:	ba6d      	rev16	r5, r5
 8001236:	b2ad      	uxth	r5, r5
 8001238:	68f8      	ldr	r0, [r7, #12]
 800123a:	eb07 1040 	add.w	r0, r7, r0, lsl #5
 800123e:	69c3      	ldr	r3, [r0, #28]
 8001240:	6844      	ldr	r4, [r0, #4]
 8001242:	2b02      	cmp	r3, #2
 8001244:	d168      	bne.n	8001318 <UTIL_LCD_DisplayChar+0x148>
 8001246:	b99c      	cbnz	r4, 8001270 <UTIL_LCD_DisplayChar+0xa0>
 8001248:	f04f 0a01 	mov.w	sl, #1
 800124c:	aa0a      	add	r2, sp, #40	@ 0x28
 800124e:	f109 3bff 	add.w	fp, r9, #4294967295
 8001252:	45a0      	cmp	r8, r4
 8001254:	d828      	bhi.n	80012a8 <UTIL_LCD_DisplayChar+0xd8>
 8001256:	9b04      	ldr	r3, [sp, #16]
 8001258:	3301      	adds	r3, #1
 800125a:	9304      	str	r3, [sp, #16]
 800125c:	9b06      	ldr	r3, [sp, #24]
 800125e:	441e      	add	r6, r3
 8001260:	e7d4      	b.n	800120c <UTIL_LCD_DisplayChar+0x3c>
 8001262:	7873      	ldrb	r3, [r6, #1]
 8001264:	042d      	lsls	r5, r5, #16
 8001266:	ea45 2503 	orr.w	r5, r5, r3, lsl #8
 800126a:	78b3      	ldrb	r3, [r6, #2]
 800126c:	431d      	orrs	r5, r3
 800126e:	e7e3      	b.n	8001238 <UTIL_LCD_DisplayChar+0x68>
 8001270:	f3c4 02c4 	ubfx	r2, r4, #3, #5
 8001274:	0ce3      	lsrs	r3, r4, #19
 8001276:	0964      	lsrs	r4, r4, #5
 8001278:	f404 64fc 	and.w	r4, r4, #2016	@ 0x7e0
 800127c:	ea42 22c3 	orr.w	r2, r2, r3, lsl #11
 8001280:	4322      	orrs	r2, r4
 8001282:	f04f 0c01 	mov.w	ip, #1
 8001286:	2400      	movs	r4, #0
 8001288:	b292      	uxth	r2, r2
 800128a:	f10d 0e28 	add.w	lr, sp, #40	@ 0x28
 800128e:	f109 3aff 	add.w	sl, r9, #4294967295
 8001292:	45a0      	cmp	r8, r4
 8001294:	d828      	bhi.n	80012e8 <UTIL_LCD_DisplayChar+0x118>
 8001296:	4643      	mov	r3, r8
 8001298:	f8cd c000 	str.w	ip, [sp]
 800129c:	aa0a      	add	r2, sp, #40	@ 0x28
 800129e:	9903      	ldr	r1, [sp, #12]
 80012a0:	9805      	ldr	r0, [sp, #20]
 80012a2:	f7ff ff83 	bl	80011ac <UTIL_LCD_FillRGBRect>
 80012a6:	e7d6      	b.n	8001256 <UTIL_LCD_DisplayChar+0x86>
 80012a8:	ebab 0304 	sub.w	r3, fp, r4
 80012ac:	fa0a f303 	lsl.w	r3, sl, r3
 80012b0:	422b      	tst	r3, r5
 80012b2:	d016      	beq.n	80012e2 <UTIL_LCD_DisplayChar+0x112>
 80012b4:	68fb      	ldr	r3, [r7, #12]
 80012b6:	9209      	str	r2, [sp, #36]	@ 0x24
 80012b8:	015b      	lsls	r3, r3, #5
 80012ba:	58fb      	ldr	r3, [r7, r3]
 80012bc:	0cd8      	lsrs	r0, r3, #19
 80012be:	f3c3 01c4 	ubfx	r1, r3, #3, #5
 80012c2:	095b      	lsrs	r3, r3, #5
 80012c4:	ea41 21c0 	orr.w	r1, r1, r0, lsl #11
 80012c8:	f403 63fc 	and.w	r3, r3, #2016	@ 0x7e0
 80012cc:	9805      	ldr	r0, [sp, #20]
 80012ce:	430b      	orrs	r3, r1
 80012d0:	8013      	strh	r3, [r2, #0]
 80012d2:	9903      	ldr	r1, [sp, #12]
 80012d4:	2301      	movs	r3, #1
 80012d6:	f8cd a000 	str.w	sl, [sp]
 80012da:	4420      	add	r0, r4
 80012dc:	f7ff ff66 	bl	80011ac <UTIL_LCD_FillRGBRect>
 80012e0:	9a09      	ldr	r2, [sp, #36]	@ 0x24
 80012e2:	3401      	adds	r4, #1
 80012e4:	3202      	adds	r2, #2
 80012e6:	e7b4      	b.n	8001252 <UTIL_LCD_DisplayChar+0x82>
 80012e8:	ebaa 0304 	sub.w	r3, sl, r4
 80012ec:	fa0c f303 	lsl.w	r3, ip, r3
 80012f0:	422b      	tst	r3, r5
 80012f2:	d00f      	beq.n	8001314 <UTIL_LCD_DisplayChar+0x144>
 80012f4:	6801      	ldr	r1, [r0, #0]
 80012f6:	f3c1 03c4 	ubfx	r3, r1, #3, #5
 80012fa:	ea4f 4bd1 	mov.w	fp, r1, lsr #19
 80012fe:	0949      	lsrs	r1, r1, #5
 8001300:	ea43 23cb 	orr.w	r3, r3, fp, lsl #11
 8001304:	f401 61fc 	and.w	r1, r1, #2016	@ 0x7e0
 8001308:	430b      	orrs	r3, r1
 800130a:	b29b      	uxth	r3, r3
 800130c:	f82e 3b02 	strh.w	r3, [lr], #2
 8001310:	3401      	adds	r4, #1
 8001312:	e7be      	b.n	8001292 <UTIL_LCD_DisplayChar+0xc2>
 8001314:	4613      	mov	r3, r2
 8001316:	e7f9      	b.n	800130c <UTIL_LCD_DisplayChar+0x13c>
 8001318:	b15c      	cbz	r4, 8001332 <UTIL_LCD_DisplayChar+0x162>
 800131a:	2300      	movs	r3, #0
 800131c:	2101      	movs	r1, #1
 800131e:	f10d 0c58 	add.w	ip, sp, #88	@ 0x58
 8001322:	f109 3eff 	add.w	lr, r9, #4294967295
 8001326:	4598      	cmp	r8, r3
 8001328:	d821      	bhi.n	800136e <UTIL_LCD_DisplayChar+0x19e>
 800132a:	4643      	mov	r3, r8
 800132c:	9100      	str	r1, [sp, #0]
 800132e:	aa16      	add	r2, sp, #88	@ 0x58
 8001330:	e7b5      	b.n	800129e <UTIL_LCD_DisplayChar+0xce>
 8001332:	f04f 0a01 	mov.w	sl, #1
 8001336:	aa16      	add	r2, sp, #88	@ 0x58
 8001338:	f109 3bff 	add.w	fp, r9, #4294967295
 800133c:	45a0      	cmp	r8, r4
 800133e:	d98a      	bls.n	8001256 <UTIL_LCD_DisplayChar+0x86>
 8001340:	ebab 0304 	sub.w	r3, fp, r4
 8001344:	fa0a f303 	lsl.w	r3, sl, r3
 8001348:	422b      	tst	r3, r5
 800134a:	d00d      	beq.n	8001368 <UTIL_LCD_DisplayChar+0x198>
 800134c:	68fb      	ldr	r3, [r7, #12]
 800134e:	9805      	ldr	r0, [sp, #20]
 8001350:	015b      	lsls	r3, r3, #5
 8001352:	58fb      	ldr	r3, [r7, r3]
 8001354:	9903      	ldr	r1, [sp, #12]
 8001356:	6013      	str	r3, [r2, #0]
 8001358:	4420      	add	r0, r4
 800135a:	2301      	movs	r3, #1
 800135c:	f8cd a000 	str.w	sl, [sp]
 8001360:	9209      	str	r2, [sp, #36]	@ 0x24
 8001362:	f7ff ff23 	bl	80011ac <UTIL_LCD_FillRGBRect>
 8001366:	9a09      	ldr	r2, [sp, #36]	@ 0x24
 8001368:	3401      	adds	r4, #1
 800136a:	3204      	adds	r2, #4
 800136c:	e7e6      	b.n	800133c <UTIL_LCD_DisplayChar+0x16c>
 800136e:	ebae 0203 	sub.w	r2, lr, r3
 8001372:	fa01 f202 	lsl.w	r2, r1, r2
 8001376:	422a      	tst	r2, r5
 8001378:	bf0c      	ite	eq
 800137a:	4622      	moveq	r2, r4
 800137c:	6802      	ldrne	r2, [r0, #0]
 800137e:	3301      	adds	r3, #1
 8001380:	f84c 2b04 	str.w	r2, [ip], #4
 8001384:	e7cf      	b.n	8001326 <UTIL_LCD_DisplayChar+0x156>
 8001386:	bf00      	nop
 8001388:	2000cab0 	.word	0x2000cab0

0800138c <UTIL_LCD_DisplayStringAt>:
 800138c:	e92d 43f8 	stmdb	sp!, {r3, r4, r5, r6, r7, r8, r9, lr}
 8001390:	4699      	mov	r9, r3
 8001392:	f8df 808c 	ldr.w	r8, [pc, #140]	@ 8001420 <UTIL_LCD_DisplayStringAt+0x94>
 8001396:	4604      	mov	r4, r0
 8001398:	4610      	mov	r0, r2
 800139a:	460f      	mov	r7, r1
 800139c:	4616      	mov	r6, r2
 800139e:	f7fe ff6b 	bl	8000278 <strlen>
 80013a2:	f8d8 300c 	ldr.w	r3, [r8, #12]
 80013a6:	f8d8 5014 	ldr.w	r5, [r8, #20]
 80013aa:	eb08 1343 	add.w	r3, r8, r3, lsl #5
 80013ae:	689b      	ldr	r3, [r3, #8]
 80013b0:	f1b9 0f01 	cmp.w	r9, #1
 80013b4:	889b      	ldrh	r3, [r3, #4]
 80013b6:	fbb5 f5f3 	udiv	r5, r5, r3
 80013ba:	d01a      	beq.n	80013f2 <UTIL_LCD_DisplayStringAt+0x66>
 80013bc:	f1b9 0f02 	cmp.w	r9, #2
 80013c0:	d01c      	beq.n	80013fc <UTIL_LCD_DisplayStringAt+0x70>
 80013c2:	f647 73fe 	movw	r3, #32766	@ 0x7ffe
 80013c6:	1e62      	subs	r2, r4, #1
 80013c8:	429a      	cmp	r2, r3
 80013ca:	bf88      	it	hi
 80013cc:	2401      	movhi	r4, #1
 80013ce:	2500      	movs	r5, #0
 80013d0:	f8d8 300c 	ldr.w	r3, [r8, #12]
 80013d4:	5d72      	ldrb	r2, [r6, r5]
 80013d6:	eb08 1343 	add.w	r3, r8, r3, lsl #5
 80013da:	689b      	ldr	r3, [r3, #8]
 80013dc:	8899      	ldrh	r1, [r3, #4]
 80013de:	f8d8 3014 	ldr.w	r3, [r8, #20]
 80013e2:	fb05 3311 	mls	r3, r5, r1, r3
 80013e6:	b29b      	uxth	r3, r3
 80013e8:	4299      	cmp	r1, r3
 80013ea:	d800      	bhi.n	80013ee <UTIL_LCD_DisplayStringAt+0x62>
 80013ec:	b952      	cbnz	r2, 8001404 <UTIL_LCD_DisplayStringAt+0x78>
 80013ee:	e8bd 83f8 	ldmia.w	sp!, {r3, r4, r5, r6, r7, r8, r9, pc}
 80013f2:	1a2d      	subs	r5, r5, r0
 80013f4:	435d      	muls	r5, r3
 80013f6:	eb04 0455 	add.w	r4, r4, r5, lsr #1
 80013fa:	e7e2      	b.n	80013c2 <UTIL_LCD_DisplayStringAt+0x36>
 80013fc:	1a2d      	subs	r5, r5, r0
 80013fe:	435d      	muls	r5, r3
 8001400:	1b2c      	subs	r4, r5, r4
 8001402:	e7de      	b.n	80013c2 <UTIL_LCD_DisplayStringAt+0x36>
 8001404:	4620      	mov	r0, r4
 8001406:	4639      	mov	r1, r7
 8001408:	f7ff fee2 	bl	80011d0 <UTIL_LCD_DisplayChar>
 800140c:	f8d8 300c 	ldr.w	r3, [r8, #12]
 8001410:	3501      	adds	r5, #1
 8001412:	eb08 1343 	add.w	r3, r8, r3, lsl #5
 8001416:	689b      	ldr	r3, [r3, #8]
 8001418:	889b      	ldrh	r3, [r3, #4]
 800141a:	441c      	add	r4, r3
 800141c:	e7d8      	b.n	80013d0 <UTIL_LCD_DisplayStringAt+0x44>
 800141e:	bf00      	nop
 8001420:	2000cab0 	.word	0x2000cab0

08001424 <UTIL_LCD_FillRect>:
 8001424:	b5f7      	push	{r0, r1, r2, r4, r5, r6, r7, lr}
 8001426:	4c0f      	ldr	r4, [pc, #60]	@ (8001464 <UTIL_LCD_FillRect+0x40>)
 8001428:	4606      	mov	r6, r0
 800142a:	480f      	ldr	r0, [pc, #60]	@ (8001468 <UTIL_LCD_FillRect+0x44>)
 800142c:	9d08      	ldr	r5, [sp, #32]
 800142e:	6907      	ldr	r7, [r0, #16]
 8001430:	6920      	ldr	r0, [r4, #16]
 8001432:	69e4      	ldr	r4, [r4, #28]
 8001434:	2c02      	cmp	r4, #2
 8001436:	d113      	bne.n	8001460 <UTIL_LCD_FillRect+0x3c>
 8001438:	096c      	lsrs	r4, r5, #5
 800143a:	ea4f 2c15 	mov.w	ip, r5, lsr #8
 800143e:	f404 64fc 	and.w	r4, r4, #2016	@ 0x7e0
 8001442:	f40c 4c78 	and.w	ip, ip, #63488	@ 0xf800
 8001446:	ea44 040c 	orr.w	r4, r4, ip
 800144a:	f3c5 05c4 	ubfx	r5, r5, #3, #5
 800144e:	432c      	orrs	r4, r5
 8001450:	9401      	str	r4, [sp, #4]
 8001452:	9300      	str	r3, [sp, #0]
 8001454:	4613      	mov	r3, r2
 8001456:	460a      	mov	r2, r1
 8001458:	4631      	mov	r1, r6
 800145a:	47b8      	blx	r7
 800145c:	b003      	add	sp, #12
 800145e:	bdf0      	pop	{r4, r5, r6, r7, pc}
 8001460:	9501      	str	r5, [sp, #4]
 8001462:	e7f6      	b.n	8001452 <UTIL_LCD_FillRect+0x2e>
 8001464:	2000cab0 	.word	0x2000cab0
 8001468:	2000ca84 	.word	0x2000ca84

0800146c <BSP_KEY_Init>:
 800146c:	4b02      	ldr	r3, [pc, #8]	@ (8001478 <BSP_KEY_Init+0xc>)
 800146e:	f843 1020 	str.w	r1, [r3, r0, lsl #2]
 8001472:	2000      	movs	r0, #0
 8001474:	4770      	bx	lr
 8001476:	bf00      	nop
 8001478:	2000caf0 	.word	0x2000caf0

0800147c <BSP_KEY_SetOrientation>:
 800147c:	4b04      	ldr	r3, [pc, #16]	@ (8001490 <BSP_KEY_SetOrientation+0x14>)
 800147e:	f853 2020 	ldr.w	r2, [r3, r0, lsl #2]
 8001482:	428a      	cmp	r2, r1
 8001484:	bf18      	it	ne
 8001486:	f843 1020 	strne.w	r1, [r3, r0, lsl #2]
 800148a:	2000      	movs	r0, #0
 800148c:	4770      	bx	lr
 800148e:	bf00      	nop
 8001490:	2000caf0 	.word	0x2000caf0

08001494 <BSP_KEY_GetState>:
 8001494:	b538      	push	{r3, r4, r5, lr}
 8001496:	2300      	movs	r3, #0
 8001498:	4605      	mov	r5, r0
 800149a:	460c      	mov	r4, r1
 800149c:	700b      	strb	r3, [r1, #0]
 800149e:	4829      	ldr	r0, [pc, #164]	@ (8001544 <BSP_KEY_GetState+0xb0>)
 80014a0:	2101      	movs	r1, #1
 80014a2:	f002 fbf5 	bl	8003c90 <HAL_GPIO_ReadPin>
 80014a6:	b918      	cbnz	r0, 80014b0 <BSP_KEY_GetState+0x1c>
 80014a8:	2301      	movs	r3, #1
 80014aa:	7023      	strb	r3, [r4, #0]
 80014ac:	2000      	movs	r0, #0
 80014ae:	bd38      	pop	{r3, r4, r5, pc}
 80014b0:	f44f 7100 	mov.w	r1, #512	@ 0x200
 80014b4:	4824      	ldr	r0, [pc, #144]	@ (8001548 <BSP_KEY_GetState+0xb4>)
 80014b6:	f002 fbeb 	bl	8003c90 <HAL_GPIO_ReadPin>
 80014ba:	b960      	cbnz	r0, 80014d6 <BSP_KEY_GetState+0x42>
 80014bc:	4b23      	ldr	r3, [pc, #140]	@ (800154c <BSP_KEY_GetState+0xb8>)
 80014be:	f853 3025 	ldr.w	r3, [r3, r5, lsl #2]
 80014c2:	b12b      	cbz	r3, 80014d0 <BSP_KEY_GetState+0x3c>
 80014c4:	3b01      	subs	r3, #1
 80014c6:	2b02      	cmp	r3, #2
 80014c8:	d803      	bhi.n	80014d2 <BSP_KEY_GetState+0x3e>
 80014ca:	4a21      	ldr	r2, [pc, #132]	@ (8001550 <BSP_KEY_GetState+0xbc>)
 80014cc:	5cd0      	ldrb	r0, [r2, r3]
 80014ce:	e000      	b.n	80014d2 <BSP_KEY_GetState+0x3e>
 80014d0:	2002      	movs	r0, #2
 80014d2:	7020      	strb	r0, [r4, #0]
 80014d4:	e7ea      	b.n	80014ac <BSP_KEY_GetState+0x18>
 80014d6:	f44f 7180 	mov.w	r1, #256	@ 0x100
 80014da:	481b      	ldr	r0, [pc, #108]	@ (8001548 <BSP_KEY_GetState+0xb4>)
 80014dc:	f002 fbd8 	bl	8003c90 <HAL_GPIO_ReadPin>
 80014e0:	b950      	cbnz	r0, 80014f8 <BSP_KEY_GetState+0x64>
 80014e2:	4b1a      	ldr	r3, [pc, #104]	@ (800154c <BSP_KEY_GetState+0xb8>)
 80014e4:	f853 3025 	ldr.w	r3, [r3, r5, lsl #2]
 80014e8:	b123      	cbz	r3, 80014f4 <BSP_KEY_GetState+0x60>
 80014ea:	3b01      	subs	r3, #1
 80014ec:	2b02      	cmp	r3, #2
 80014ee:	d8f0      	bhi.n	80014d2 <BSP_KEY_GetState+0x3e>
 80014f0:	4a18      	ldr	r2, [pc, #96]	@ (8001554 <BSP_KEY_GetState+0xc0>)
 80014f2:	e7eb      	b.n	80014cc <BSP_KEY_GetState+0x38>
 80014f4:	2003      	movs	r0, #3
 80014f6:	e7ec      	b.n	80014d2 <BSP_KEY_GetState+0x3e>
 80014f8:	2108      	movs	r1, #8
 80014fa:	4817      	ldr	r0, [pc, #92]	@ (8001558 <BSP_KEY_GetState+0xc4>)
 80014fc:	f002 fbc8 	bl	8003c90 <HAL_GPIO_ReadPin>
 8001500:	b950      	cbnz	r0, 8001518 <BSP_KEY_GetState+0x84>
 8001502:	4b12      	ldr	r3, [pc, #72]	@ (800154c <BSP_KEY_GetState+0xb8>)
 8001504:	f853 3025 	ldr.w	r3, [r3, r5, lsl #2]
 8001508:	b123      	cbz	r3, 8001514 <BSP_KEY_GetState+0x80>
 800150a:	3b01      	subs	r3, #1
 800150c:	2b02      	cmp	r3, #2
 800150e:	d8e0      	bhi.n	80014d2 <BSP_KEY_GetState+0x3e>
 8001510:	4a12      	ldr	r2, [pc, #72]	@ (800155c <BSP_KEY_GetState+0xc8>)
 8001512:	e7db      	b.n	80014cc <BSP_KEY_GetState+0x38>
 8001514:	2004      	movs	r0, #4
 8001516:	e7dc      	b.n	80014d2 <BSP_KEY_GetState+0x3e>
 8001518:	2180      	movs	r1, #128	@ 0x80
 800151a:	480b      	ldr	r0, [pc, #44]	@ (8001548 <BSP_KEY_GetState+0xb4>)
 800151c:	f002 fbb8 	bl	8003c90 <HAL_GPIO_ReadPin>
 8001520:	b950      	cbnz	r0, 8001538 <BSP_KEY_GetState+0xa4>
 8001522:	4b0a      	ldr	r3, [pc, #40]	@ (800154c <BSP_KEY_GetState+0xb8>)
 8001524:	f853 3025 	ldr.w	r3, [r3, r5, lsl #2]
 8001528:	b123      	cbz	r3, 8001534 <BSP_KEY_GetState+0xa0>
 800152a:	3b01      	subs	r3, #1
 800152c:	2b02      	cmp	r3, #2
 800152e:	d8d0      	bhi.n	80014d2 <BSP_KEY_GetState+0x3e>
 8001530:	4a0b      	ldr	r2, [pc, #44]	@ (8001560 <BSP_KEY_GetState+0xcc>)
 8001532:	e7cb      	b.n	80014cc <BSP_KEY_GetState+0x38>
 8001534:	2005      	movs	r0, #5
 8001536:	e7cc      	b.n	80014d2 <BSP_KEY_GetState+0x3e>
 8001538:	7823      	ldrb	r3, [r4, #0]
 800153a:	2b00      	cmp	r3, #0
 800153c:	d1b6      	bne.n	80014ac <BSP_KEY_GetState+0x18>
 800153e:	f06f 0003 	mvn.w	r0, #3
 8001542:	e7b4      	b.n	80014ae <BSP_KEY_GetState+0x1a>
 8001544:	42020000 	.word	0x42020000
 8001548:	42021400 	.word	0x42021400
 800154c:	2000caf0 	.word	0x2000caf0
 8001550:	0800884d 	.word	0x0800884d
 8001554:	0800884a 	.word	0x0800884a
 8001558:	42021000 	.word	0x42021000
 800155c:	08008847 	.word	0x08008847
 8001560:	08008844 	.word	0x08008844

08001564 <DMA_TxErrorCallback>:
 8001564:	b672      	cpsid	i
 8001566:	e7fe      	b.n	8001566 <DMA_TxErrorCallback+0x2>

08001568 <LCD_IO_DeInit>:
 8001568:	2000      	movs	r0, #0
 800156a:	4770      	bx	lr

0800156c <LCD_IO_WriteReg>:
 800156c:	f04f 43c0 	mov.w	r3, #1610612736	@ 0x60000000
 8001570:	7802      	ldrb	r2, [r0, #0]
 8001572:	701a      	strb	r2, [r3, #0]
 8001574:	f3bf 8f4f 	dsb	sy
 8001578:	2000      	movs	r0, #0
 800157a:	4770      	bx	lr

0800157c <LCD_IO_ReadReg>:
 800157c:	f06f 000a 	mvn.w	r0, #10
 8001580:	4770      	bx	lr
	...

08001584 <LCD_IO_SendData>:
 8001584:	4b05      	ldr	r3, [pc, #20]	@ (800159c <LCD_IO_SendData+0x18>)
 8001586:	4401      	add	r1, r0
 8001588:	4288      	cmp	r0, r1
 800158a:	d101      	bne.n	8001590 <LCD_IO_SendData+0xc>
 800158c:	2000      	movs	r0, #0
 800158e:	4770      	bx	lr
 8001590:	f810 2b01 	ldrb.w	r2, [r0], #1
 8001594:	701a      	strb	r2, [r3, #0]
 8001596:	f3bf 8f4f 	dsb	sy
 800159a:	e7f5      	b.n	8001588 <LCD_IO_SendData+0x4>
 800159c:	60100000 	.word	0x60100000

080015a0 <LCD_IO_RecvData>:
 80015a0:	f04f 43c0 	mov.w	r3, #1610612736	@ 0x60000000
 80015a4:	7802      	ldrb	r2, [r0, #0]
 80015a6:	701a      	strb	r2, [r3, #0]
 80015a8:	f3bf 8f4f 	dsb	sy
 80015ac:	4401      	add	r1, r0
 80015ae:	f503 1380 	add.w	r3, r3, #1048576	@ 0x100000
 80015b2:	4288      	cmp	r0, r1
 80015b4:	d101      	bne.n	80015ba <LCD_IO_RecvData+0x1a>
 80015b6:	2000      	movs	r0, #0
 80015b8:	4770      	bx	lr
 80015ba:	781a      	ldrb	r2, [r3, #0]
 80015bc:	f800 2b01 	strb.w	r2, [r0], #1
 80015c0:	e7f7      	b.n	80015b2 <LCD_IO_RecvData+0x12>

080015c2 <LCD_IO_Delay>:
 80015c2:	b508      	push	{r3, lr}
 80015c4:	f001 fbc8 	bl	8002d58 <HAL_Delay>
 80015c8:	2000      	movs	r0, #0
 80015ca:	bd08      	pop	{r3, pc}

080015cc <LCD_IO_GetTick>:
 80015cc:	f001 bbbe 	b.w	8002d4c <HAL_GetTick>

080015d0 <LCD_IO_Init>:
 80015d0:	b538      	push	{r3, r4, r5, lr}
 80015d2:	f44f 6500 	mov.w	r5, #2048	@ 0x800
 80015d6:	4c12      	ldr	r4, [pc, #72]	@ (8001620 <LCD_IO_Init+0x50>)
 80015d8:	2078      	movs	r0, #120	@ 0x78
 80015da:	62a5      	str	r5, [r4, #40]	@ 0x28
 80015dc:	f001 fbbc 	bl	8002d58 <HAL_Delay>
 80015e0:	61a5      	str	r5, [r4, #24]
 80015e2:	4c10      	ldr	r4, [pc, #64]	@ (8001624 <LCD_IO_Init+0x54>)
 80015e4:	2078      	movs	r0, #120	@ 0x78
 80015e6:	f001 fbb7 	bl	8002d58 <HAL_Delay>
 80015ea:	4620      	mov	r0, r4
 80015ec:	490e      	ldr	r1, [pc, #56]	@ (8001628 <LCD_IO_Init+0x58>)
 80015ee:	f002 f9a4 	bl	800393a <HAL_EXTI_GetHandle>
 80015f2:	2101      	movs	r1, #1
 80015f4:	4620      	mov	r0, r4
 80015f6:	4a0d      	ldr	r2, [pc, #52]	@ (800162c <LCD_IO_Init+0x5c>)
 80015f8:	f002 f992 	bl	8003920 <HAL_EXTI_RegisterCallback>
 80015fc:	4620      	mov	r0, r4
 80015fe:	4c0c      	ldr	r4, [pc, #48]	@ (8001630 <LCD_IO_Init+0x60>)
 8001600:	2102      	movs	r1, #2
 8001602:	4a0c      	ldr	r2, [pc, #48]	@ (8001634 <LCD_IO_Init+0x64>)
 8001604:	f002 f98c 	bl	8003920 <HAL_EXTI_RegisterCallback>
 8001608:	2100      	movs	r1, #0
 800160a:	4620      	mov	r0, r4
 800160c:	4a0a      	ldr	r2, [pc, #40]	@ (8001638 <LCD_IO_Init+0x68>)
 800160e:	f001 fdc5 	bl	800319c <HAL_DMA_RegisterCallback>
 8001612:	2102      	movs	r1, #2
 8001614:	4620      	mov	r0, r4
 8001616:	4a09      	ldr	r2, [pc, #36]	@ (800163c <LCD_IO_Init+0x6c>)
 8001618:	f001 fdc0 	bl	800319c <HAL_DMA_RegisterCallback>
 800161c:	2000      	movs	r0, #0
 800161e:	bd38      	pop	{r3, r4, r5, pc}
 8001620:	42021000 	.word	0x42021000
 8001624:	2000cc0c 	.word	0x2000cc0c
 8001628:	0600000d 	.word	0x0600000d
 800162c:	08001b5d 	.word	0x08001b5d
 8001630:	200001d0 	.word	0x200001d0
 8001634:	08001b41 	.word	0x08001b41
 8001638:	08001b25 	.word	0x08001b25
 800163c:	08001565 	.word	0x08001565

08001640 <LCD_IO_SendDataDMA>:
 8001640:	f64f 72fe 	movw	r2, #65534	@ 0xfffe
 8001644:	fbb1 f3f2 	udiv	r3, r1, r2
 8001648:	e92d 47f0 	stmdb	sp!, {r4, r5, r6, r7, r8, r9, sl, lr}
 800164c:	fa5f fa83 	uxtb.w	sl, r3
 8001650:	fb02 1313 	mls	r3, r2, r3, r1
 8001654:	4689      	mov	r9, r1
 8001656:	b09c      	sub	sp, #112	@ 0x70
 8001658:	b11b      	cbz	r3, 8001662 <LCD_IO_SendDataDMA+0x22>
 800165a:	f10a 0a01 	add.w	sl, sl, #1
 800165e:	fa5f fa8a 	uxtb.w	sl, sl
 8001662:	4b47      	ldr	r3, [pc, #284]	@ (8001780 <LCD_IO_SendDataDMA+0x140>)
 8001664:	6d1a      	ldr	r2, [r3, #80]	@ 0x50
 8001666:	0611      	lsls	r1, r2, #24
 8001668:	d570      	bpl.n	800174c <LCD_IO_SendDataDMA+0x10c>
 800166a:	2400      	movs	r4, #0
 800166c:	f44f 7300 	mov.w	r3, #512	@ 0x200
 8001670:	2222      	movs	r2, #34	@ 0x22
 8001672:	e9cd 4303 	strd	r4, r3, [sp, #12]
 8001676:	e9cd 2301 	strd	r2, r3, [sp, #4]
 800167a:	2308      	movs	r3, #8
 800167c:	f44f 3280 	mov.w	r2, #65536	@ 0x10000
 8001680:	e9cd 3405 	strd	r3, r4, [sp, #20]
 8001684:	2301      	movs	r3, #1
 8001686:	e9cd 3207 	strd	r3, r2, [sp, #28]
 800168a:	e9cd 330a 	strd	r3, r3, [sp, #40]	@ 0x28
 800168e:	e9cd 3414 	strd	r3, r4, [sp, #80]	@ 0x50
 8001692:	4b3c      	ldr	r3, [pc, #240]	@ (8001784 <LCD_IO_SendDataDMA+0x144>)
 8001694:	f04f 4240 	mov.w	r2, #3221225472	@ 0xc0000000
 8001698:	931a      	str	r3, [sp, #104]	@ 0x68
 800169a:	f64f 73fe 	movw	r3, #65534	@ 0xfffe
 800169e:	f1ba 0f01 	cmp.w	sl, #1
 80016a2:	bf98      	it	ls
 80016a4:	464b      	movls	r3, r9
 80016a6:	e9cd 4416 	strd	r4, r4, [sp, #88]	@ 0x58
 80016aa:	e9cd 440f 	strd	r4, r4, [sp, #60]	@ 0x3c
 80016ae:	940c      	str	r4, [sp, #48]	@ 0x30
 80016b0:	920d      	str	r2, [sp, #52]	@ 0x34
 80016b2:	9418      	str	r4, [sp, #96]	@ 0x60
 80016b4:	9412      	str	r4, [sp, #72]	@ 0x48
 80016b6:	9019      	str	r0, [sp, #100]	@ 0x64
 80016b8:	931b      	str	r3, [sp, #108]	@ 0x6c
 80016ba:	f1ba 0f00 	cmp.w	sl, #0
 80016be:	d01f      	beq.n	8001700 <LCD_IO_SendDataDMA+0xc0>
 80016c0:	4e31      	ldr	r6, [pc, #196]	@ (8001788 <LCD_IO_SendDataDMA+0x148>)
 80016c2:	4f32      	ldr	r7, [pc, #200]	@ (800178c <LCD_IO_SendDataDMA+0x14c>)
 80016c4:	46b0      	mov	r8, r6
 80016c6:	bb4c      	cbnz	r4, 800171c <LCD_IO_SendDataDMA+0xdc>
 80016c8:	4638      	mov	r0, r7
 80016ca:	f002 f897 	bl	80037fc <HAL_DMAEx_List_ResetQ>
 80016ce:	4641      	mov	r1, r8
 80016d0:	4605      	mov	r5, r0
 80016d2:	a801      	add	r0, sp, #4
 80016d4:	f001 ff7c 	bl	80035d0 <HAL_DMAEx_List_BuildNode>
 80016d8:	4641      	mov	r1, r8
 80016da:	4305      	orrs	r5, r0
 80016dc:	4638      	mov	r0, r7
 80016de:	b2ed      	uxtb	r5, r5
 80016e0:	f002 f812 	bl	8003708 <HAL_DMAEx_List_InsertNode_Head>
 80016e4:	9b19      	ldr	r3, [sp, #100]	@ 0x64
 80016e6:	4328      	orrs	r0, r5
 80016e8:	f503 437f 	add.w	r3, r3, #65280	@ 0xff00
 80016ec:	33fe      	adds	r3, #254	@ 0xfe
 80016ee:	b2c0      	uxtb	r0, r0
 80016f0:	9319      	str	r3, [sp, #100]	@ 0x64
 80016f2:	b970      	cbnz	r0, 8001712 <LCD_IO_SendDataDMA+0xd2>
 80016f4:	3401      	adds	r4, #1
 80016f6:	b2e3      	uxtb	r3, r4
 80016f8:	459a      	cmp	sl, r3
 80016fa:	f106 0624 	add.w	r6, r6, #36	@ 0x24
 80016fe:	d8e2      	bhi.n	80016c6 <LCD_IO_SendDataDMA+0x86>
 8001700:	4922      	ldr	r1, [pc, #136]	@ (800178c <LCD_IO_SendDataDMA+0x14c>)
 8001702:	481f      	ldr	r0, [pc, #124]	@ (8001780 <LCD_IO_SendDataDMA+0x140>)
 8001704:	f002 f8bc 	bl	8003880 <HAL_DMAEx_List_LinkQ>
 8001708:	b918      	cbnz	r0, 8001712 <LCD_IO_SendDataDMA+0xd2>
 800170a:	481d      	ldr	r0, [pc, #116]	@ (8001780 <LCD_IO_SendDataDMA+0x140>)
 800170c:	f001 ff0e 	bl	800352c <HAL_DMAEx_List_Start_IT>
 8001710:	b1d0      	cbz	r0, 8001748 <LCD_IO_SendDataDMA+0x108>
 8001712:	f06f 0007 	mvn.w	r0, #7
 8001716:	b01c      	add	sp, #112	@ 0x70
 8001718:	e8bd 87f0 	ldmia.w	sp!, {r4, r5, r6, r7, r8, r9, sl, pc}
 800171c:	f1ba 0f01 	cmp.w	sl, #1
 8001720:	d008      	beq.n	8001734 <LCD_IO_SendDataDMA+0xf4>
 8001722:	f10a 33ff 	add.w	r3, sl, #4294967295
 8001726:	42a3      	cmp	r3, r4
 8001728:	bf02      	ittt	eq
 800172a:	eba4 33c4 	subeq.w	r3, r4, r4, lsl #15
 800172e:	eb09 0343 	addeq.w	r3, r9, r3, lsl #1
 8001732:	931b      	streq	r3, [sp, #108]	@ 0x6c
 8001734:	4631      	mov	r1, r6
 8001736:	a801      	add	r0, sp, #4
 8001738:	f001 ff4a 	bl	80035d0 <HAL_DMAEx_List_BuildNode>
 800173c:	4631      	mov	r1, r6
 800173e:	4605      	mov	r5, r0
 8001740:	4638      	mov	r0, r7
 8001742:	f002 f816 	bl	8003772 <HAL_DMAEx_List_InsertNode_Tail>
 8001746:	e7cd      	b.n	80016e4 <LCD_IO_SendDataDMA+0xa4>
 8001748:	2000      	movs	r0, #0
 800174a:	e7e4      	b.n	8001716 <LCD_IO_SendDataDMA+0xd6>
 800174c:	f1ba 0f01 	cmp.w	sl, #1
 8001750:	d812      	bhi.n	8001778 <LCD_IO_SendDataDMA+0x138>
 8001752:	69db      	ldr	r3, [r3, #28]
 8001754:	f5b3 3f80 	cmp.w	r3, #65536	@ 0x10000
 8001758:	d00b      	beq.n	8001772 <LCD_IO_SendDataDMA+0x132>
 800175a:	f5b3 3f00 	cmp.w	r3, #131072	@ 0x20000
 800175e:	d101      	bne.n	8001764 <LCD_IO_SendDataDMA+0x124>
 8001760:	ea4f 0999 	mov.w	r9, r9, lsr #2
 8001764:	4601      	mov	r1, r0
 8001766:	464b      	mov	r3, r9
 8001768:	4a06      	ldr	r2, [pc, #24]	@ (8001784 <LCD_IO_SendDataDMA+0x144>)
 800176a:	4805      	ldr	r0, [pc, #20]	@ (8001780 <LCD_IO_SendDataDMA+0x140>)
 800176c:	f001 fbba 	bl	8002ee4 <HAL_DMA_Start_IT>
 8001770:	e7ce      	b.n	8001710 <LCD_IO_SendDataDMA+0xd0>
 8001772:	ea4f 0959 	mov.w	r9, r9, lsr #1
 8001776:	e7f5      	b.n	8001764 <LCD_IO_SendDataDMA+0x124>
 8001778:	f06f 000a 	mvn.w	r0, #10
 800177c:	e7cb      	b.n	8001716 <LCD_IO_SendDataDMA+0xd6>
 800177e:	bf00      	nop
 8001780:	200001d0 	.word	0x200001d0
 8001784:	60100000 	.word	0x60100000
 8001788:	2000cb00 	.word	0x2000cb00
 800178c:	2000cb6c 	.word	0x2000cb6c

08001790 <LCD_IO_RecvDataDMA>:
 8001790:	f06f 000a 	mvn.w	r0, #10
 8001794:	4770      	bx	lr
	...

08001798 <BSP_LCD_Init>:
 8001798:	b5f0      	push	{r4, r5, r6, r7, lr}
 800179a:	460c      	mov	r4, r1
 800179c:	b08f      	sub	sp, #60	@ 0x3c
 800179e:	2800      	cmp	r0, #0
 80017a0:	d152      	bne.n	8001848 <BSP_LCD_Init+0xb0>
 80017a2:	2903      	cmp	r1, #3
 80017a4:	d850      	bhi.n	8001848 <BSP_LCD_Init+0xb0>
 80017a6:	f000 f9e7 	bl	8001b78 <LCD_OS_Initialize>
 80017aa:	2800      	cmp	r0, #0
 80017ac:	d14f      	bne.n	800184e <BSP_LCD_Init+0xb6>
 80017ae:	4929      	ldr	r1, [pc, #164]	@ (8001854 <BSP_LCD_Init+0xbc>)
 80017b0:	4b29      	ldr	r3, [pc, #164]	@ (8001858 <BSP_LCD_Init+0xc0>)
 80017b2:	4d2a      	ldr	r5, [pc, #168]	@ (800185c <BSP_LCD_Init+0xc4>)
 80017b4:	600b      	str	r3, [r1, #0]
 80017b6:	4b2a      	ldr	r3, [pc, #168]	@ (8001860 <BSP_LCD_Init+0xc8>)
 80017b8:	9001      	str	r0, [sp, #4]
 80017ba:	604b      	str	r3, [r1, #4]
 80017bc:	4b29      	ldr	r3, [pc, #164]	@ (8001864 <BSP_LCD_Init+0xcc>)
 80017be:	4628      	mov	r0, r5
 80017c0:	610b      	str	r3, [r1, #16]
 80017c2:	4b29      	ldr	r3, [pc, #164]	@ (8001868 <BSP_LCD_Init+0xd0>)
 80017c4:	60cb      	str	r3, [r1, #12]
 80017c6:	4b29      	ldr	r3, [pc, #164]	@ (800186c <BSP_LCD_Init+0xd4>)
 80017c8:	614b      	str	r3, [r1, #20]
 80017ca:	4b29      	ldr	r3, [pc, #164]	@ (8001870 <BSP_LCD_Init+0xd8>)
 80017cc:	618b      	str	r3, [r1, #24]
 80017ce:	4b29      	ldr	r3, [pc, #164]	@ (8001874 <BSP_LCD_Init+0xdc>)
 80017d0:	61cb      	str	r3, [r1, #28]
 80017d2:	4b29      	ldr	r3, [pc, #164]	@ (8001878 <BSP_LCD_Init+0xe0>)
 80017d4:	620b      	str	r3, [r1, #32]
 80017d6:	4b29      	ldr	r3, [pc, #164]	@ (800187c <BSP_LCD_Init+0xe4>)
 80017d8:	624b      	str	r3, [r1, #36]	@ 0x24
 80017da:	4b29      	ldr	r3, [pc, #164]	@ (8001880 <BSP_LCD_Init+0xe8>)
 80017dc:	628b      	str	r3, [r1, #40]	@ 0x28
 80017de:	f001 f9f9 	bl	8002bd4 <ST7789V_RegisterBusIO>
 80017e2:	b118      	cbz	r0, 80017ec <BSP_LCD_Init+0x54>
 80017e4:	f06f 0006 	mvn.w	r0, #6
 80017e8:	b00f      	add	sp, #60	@ 0x3c
 80017ea:	bdf0      	pop	{r4, r5, r6, r7, pc}
 80017ec:	4e25      	ldr	r6, [pc, #148]	@ (8001884 <BSP_LCD_Init+0xec>)
 80017ee:	4f26      	ldr	r7, [pc, #152]	@ (8001888 <BSP_LCD_Init+0xf0>)
 80017f0:	4628      	mov	r0, r5
 80017f2:	68b3      	ldr	r3, [r6, #8]
 80017f4:	a901      	add	r1, sp, #4
 80017f6:	603d      	str	r5, [r7, #0]
 80017f8:	4798      	blx	r3
 80017fa:	2800      	cmp	r0, #0
 80017fc:	d1f2      	bne.n	80017e4 <BSP_LCD_Init+0x4c>
 80017fe:	4b23      	ldr	r3, [pc, #140]	@ (800188c <BSP_LCD_Init+0xf4>)
 8001800:	9a01      	ldr	r2, [sp, #4]
 8001802:	429a      	cmp	r2, r3
 8001804:	d1ee      	bne.n	80017e4 <BSP_LCD_Init+0x4c>
 8001806:	2255      	movs	r2, #85	@ 0x55
 8001808:	2109      	movs	r1, #9
 800180a:	e9cd 2404 	strd	r2, r4, [sp, #16]
 800180e:	221d      	movs	r2, #29
 8001810:	4b1f      	ldr	r3, [pc, #124]	@ (8001890 <BSP_LCD_Init+0xf8>)
 8001812:	e9cd 1208 	strd	r1, r2, [sp, #32]
 8001816:	601e      	str	r6, [r3, #0]
 8001818:	2202      	movs	r2, #2
 800181a:	2301      	movs	r3, #1
 800181c:	e9cd 230a 	strd	r2, r3, [sp, #40]	@ 0x28
 8001820:	f88d 3008 	strb.w	r3, [sp, #8]
 8001824:	f88d 301c 	strb.w	r3, [sp, #28]
 8001828:	2303      	movs	r3, #3
 800182a:	f885 0048 	strb.w	r0, [r5, #72]	@ 0x48
 800182e:	e9cd 320c 	strd	r3, r2, [sp, #48]	@ 0x30
 8001832:	9003      	str	r0, [sp, #12]
 8001834:	9006      	str	r0, [sp, #24]
 8001836:	6833      	ldr	r3, [r6, #0]
 8001838:	6838      	ldr	r0, [r7, #0]
 800183a:	a902      	add	r1, sp, #8
 800183c:	4798      	blx	r3
 800183e:	2800      	cmp	r0, #0
 8001840:	bf18      	it	ne
 8001842:	f06f 0004 	mvnne.w	r0, #4
 8001846:	e7cf      	b.n	80017e8 <BSP_LCD_Init+0x50>
 8001848:	f06f 0001 	mvn.w	r0, #1
 800184c:	e7cc      	b.n	80017e8 <BSP_LCD_Init+0x50>
 800184e:	f04f 30ff 	mov.w	r0, #4294967295
 8001852:	e7c9      	b.n	80017e8 <BSP_LCD_Init+0x50>
 8001854:	2000cbd8 	.word	0x2000cbd8
 8001858:	080015d1 	.word	0x080015d1
 800185c:	2000cb84 	.word	0x2000cb84
 8001860:	08001569 	.word	0x08001569
 8001864:	0800157d 	.word	0x0800157d
 8001868:	0800156d 	.word	0x0800156d
 800186c:	08001585 	.word	0x08001585
 8001870:	08001641 	.word	0x08001641
 8001874:	080015a1 	.word	0x080015a1
 8001878:	08001791 	.word	0x08001791
 800187c:	080015cd 	.word	0x080015cd
 8001880:	080015c3 	.word	0x080015c3
 8001884:	200000a8 	.word	0x200000a8
 8001888:	2000cc08 	.word	0x2000cc08
 800188c:	00858552 	.word	0x00858552
 8001890:	2000cc04 	.word	0x2000cc04

08001894 <BSP_LCD_SetOrientation>:
 8001894:	b538      	push	{r3, r4, r5, lr}
 8001896:	460c      	mov	r4, r1
 8001898:	2101      	movs	r1, #1
 800189a:	4605      	mov	r5, r0
 800189c:	f000 f982 	bl	8001ba4 <LCD_OS_TryLock>
 80018a0:	b9a0      	cbnz	r0, 80018cc <BSP_LCD_SetOrientation+0x38>
 80018a2:	4b0c      	ldr	r3, [pc, #48]	@ (80018d4 <BSP_LCD_SetOrientation+0x40>)
 80018a4:	681b      	ldr	r3, [r3, #0]
 80018a6:	6a1b      	ldr	r3, [r3, #32]
 80018a8:	b16b      	cbz	r3, 80018c6 <BSP_LCD_SetOrientation+0x32>
 80018aa:	4a0b      	ldr	r2, [pc, #44]	@ (80018d8 <BSP_LCD_SetOrientation+0x44>)
 80018ac:	4621      	mov	r1, r4
 80018ae:	6810      	ldr	r0, [r2, #0]
 80018b0:	4798      	blx	r3
 80018b2:	2800      	cmp	r0, #0
 80018b4:	bfac      	ite	ge
 80018b6:	2400      	movge	r4, #0
 80018b8:	f06f 0404 	mvnlt.w	r4, #4
 80018bc:	4628      	mov	r0, r5
 80018be:	f000 f961 	bl	8001b84 <LCD_OS_Unlock>
 80018c2:	4620      	mov	r0, r4
 80018c4:	bd38      	pop	{r3, r4, r5, pc}
 80018c6:	f06f 040a 	mvn.w	r4, #10
 80018ca:	e7f7      	b.n	80018bc <BSP_LCD_SetOrientation+0x28>
 80018cc:	f06f 0402 	mvn.w	r4, #2
 80018d0:	e7f7      	b.n	80018c2 <BSP_LCD_SetOrientation+0x2e>
 80018d2:	bf00      	nop
 80018d4:	2000cc04 	.word	0x2000cc04
 80018d8:	2000cc08 	.word	0x2000cc08

080018dc <BSP_LCD_GetOrientation>:
 80018dc:	b538      	push	{r3, r4, r5, lr}
 80018de:	460c      	mov	r4, r1
 80018e0:	2101      	movs	r1, #1
 80018e2:	4605      	mov	r5, r0
 80018e4:	f000 f95e 	bl	8001ba4 <LCD_OS_TryLock>
 80018e8:	b9a0      	cbnz	r0, 8001914 <BSP_LCD_GetOrientation+0x38>
 80018ea:	4b0c      	ldr	r3, [pc, #48]	@ (800191c <BSP_LCD_GetOrientation+0x40>)
 80018ec:	681b      	ldr	r3, [r3, #0]
 80018ee:	6a5b      	ldr	r3, [r3, #36]	@ 0x24
 80018f0:	b16b      	cbz	r3, 800190e <BSP_LCD_GetOrientation+0x32>
 80018f2:	4a0b      	ldr	r2, [pc, #44]	@ (8001920 <BSP_LCD_GetOrientation+0x44>)
 80018f4:	4621      	mov	r1, r4
 80018f6:	6810      	ldr	r0, [r2, #0]
 80018f8:	4798      	blx	r3
 80018fa:	2800      	cmp	r0, #0
 80018fc:	bfac      	ite	ge
 80018fe:	2400      	movge	r4, #0
 8001900:	f06f 0404 	mvnlt.w	r4, #4
 8001904:	4628      	mov	r0, r5
 8001906:	f000 f93d 	bl	8001b84 <LCD_OS_Unlock>
 800190a:	4620      	mov	r0, r4
 800190c:	bd38      	pop	{r3, r4, r5, pc}
 800190e:	f06f 040a 	mvn.w	r4, #10
 8001912:	e7f7      	b.n	8001904 <BSP_LCD_GetOrientation+0x28>
 8001914:	f06f 0402 	mvn.w	r4, #2
 8001918:	e7f7      	b.n	800190a <BSP_LCD_GetOrientation+0x2e>
 800191a:	bf00      	nop
 800191c:	2000cc04 	.word	0x2000cc04
 8001920:	2000cc08 	.word	0x2000cc08

08001924 <BSP_LCD_GetXSize>:
 8001924:	b538      	push	{r3, r4, r5, lr}
 8001926:	460c      	mov	r4, r1
 8001928:	2101      	movs	r1, #1
 800192a:	4605      	mov	r5, r0
 800192c:	f000 f93a 	bl	8001ba4 <LCD_OS_TryLock>
 8001930:	b9a0      	cbnz	r0, 800195c <BSP_LCD_GetXSize+0x38>
 8001932:	4b0c      	ldr	r3, [pc, #48]	@ (8001964 <BSP_LCD_GetXSize+0x40>)
 8001934:	681b      	ldr	r3, [r3, #0]
 8001936:	6c9b      	ldr	r3, [r3, #72]	@ 0x48
 8001938:	b16b      	cbz	r3, 8001956 <BSP_LCD_GetXSize+0x32>
 800193a:	4a0b      	ldr	r2, [pc, #44]	@ (8001968 <BSP_LCD_GetXSize+0x44>)
 800193c:	4621      	mov	r1, r4
 800193e:	6810      	ldr	r0, [r2, #0]
 8001940:	4798      	blx	r3
 8001942:	2800      	cmp	r0, #0
 8001944:	bfac      	ite	ge
 8001946:	2400      	movge	r4, #0
 8001948:	f06f 0404 	mvnlt.w	r4, #4
 800194c:	4628      	mov	r0, r5
 800194e:	f000 f919 	bl	8001b84 <LCD_OS_Unlock>
 8001952:	4620      	mov	r0, r4
 8001954:	bd38      	pop	{r3, r4, r5, pc}
 8001956:	f06f 040a 	mvn.w	r4, #10
 800195a:	e7f7      	b.n	800194c <BSP_LCD_GetXSize+0x28>
 800195c:	f06f 0402 	mvn.w	r4, #2
 8001960:	e7f7      	b.n	8001952 <BSP_LCD_GetXSize+0x2e>
 8001962:	bf00      	nop
 8001964:	2000cc04 	.word	0x2000cc04
 8001968:	2000cc08 	.word	0x2000cc08

0800196c <BSP_LCD_GetYSize>:
 800196c:	b538      	push	{r3, r4, r5, lr}
 800196e:	460c      	mov	r4, r1
 8001970:	2101      	movs	r1, #1
 8001972:	4605      	mov	r5, r0
 8001974:	f000 f916 	bl	8001ba4 <LCD_OS_TryLock>
 8001978:	b9a0      	cbnz	r0, 80019a4 <BSP_LCD_GetYSize+0x38>
 800197a:	4b0c      	ldr	r3, [pc, #48]	@ (80019ac <BSP_LCD_GetYSize+0x40>)
 800197c:	681b      	ldr	r3, [r3, #0]
 800197e:	6cdb      	ldr	r3, [r3, #76]	@ 0x4c
 8001980:	b16b      	cbz	r3, 800199e <BSP_LCD_GetYSize+0x32>
 8001982:	4a0b      	ldr	r2, [pc, #44]	@ (80019b0 <BSP_LCD_GetYSize+0x44>)
 8001984:	4621      	mov	r1, r4
 8001986:	6810      	ldr	r0, [r2, #0]
 8001988:	4798      	blx	r3
 800198a:	2800      	cmp	r0, #0
 800198c:	bfac      	ite	ge
 800198e:	2400      	movge	r4, #0
 8001990:	f06f 0404 	mvnlt.w	r4, #4
 8001994:	4628      	mov	r0, r5
 8001996:	f000 f8f5 	bl	8001b84 <LCD_OS_Unlock>
 800199a:	4620      	mov	r0, r4
 800199c:	bd38      	pop	{r3, r4, r5, pc}
 800199e:	f06f 040a 	mvn.w	r4, #10
 80019a2:	e7f7      	b.n	8001994 <BSP_LCD_GetYSize+0x28>
 80019a4:	f06f 0402 	mvn.w	r4, #2
 80019a8:	e7f7      	b.n	800199a <BSP_LCD_GetYSize+0x2e>
 80019aa:	bf00      	nop
 80019ac:	2000cc04 	.word	0x2000cc04
 80019b0:	2000cc08 	.word	0x2000cc08

080019b4 <BSP_LCD_DisplayOn>:
 80019b4:	b538      	push	{r3, r4, r5, lr}
 80019b6:	2101      	movs	r1, #1
 80019b8:	4605      	mov	r5, r0
 80019ba:	f000 f8f3 	bl	8001ba4 <LCD_OS_TryLock>
 80019be:	b998      	cbnz	r0, 80019e8 <BSP_LCD_DisplayOn+0x34>
 80019c0:	4b0b      	ldr	r3, [pc, #44]	@ (80019f0 <BSP_LCD_DisplayOn+0x3c>)
 80019c2:	681b      	ldr	r3, [r3, #0]
 80019c4:	68db      	ldr	r3, [r3, #12]
 80019c6:	b163      	cbz	r3, 80019e2 <BSP_LCD_DisplayOn+0x2e>
 80019c8:	4a0a      	ldr	r2, [pc, #40]	@ (80019f4 <BSP_LCD_DisplayOn+0x40>)
 80019ca:	6810      	ldr	r0, [r2, #0]
 80019cc:	4798      	blx	r3
 80019ce:	2800      	cmp	r0, #0
 80019d0:	bfac      	ite	ge
 80019d2:	2400      	movge	r4, #0
 80019d4:	f06f 0404 	mvnlt.w	r4, #4
 80019d8:	4628      	mov	r0, r5
 80019da:	f000 f8d3 	bl	8001b84 <LCD_OS_Unlock>
 80019de:	4620      	mov	r0, r4
 80019e0:	bd38      	pop	{r3, r4, r5, pc}
 80019e2:	f06f 040a 	mvn.w	r4, #10
 80019e6:	e7f7      	b.n	80019d8 <BSP_LCD_DisplayOn+0x24>
 80019e8:	f06f 0402 	mvn.w	r4, #2
 80019ec:	e7f7      	b.n	80019de <BSP_LCD_DisplayOn+0x2a>
 80019ee:	bf00      	nop
 80019f0:	2000cc04 	.word	0x2000cc04
 80019f4:	2000cc08 	.word	0x2000cc08

080019f8 <BSP_LCD_WriteData>:
 80019f8:	b570      	push	{r4, r5, r6, lr}
 80019fa:	460c      	mov	r4, r1
 80019fc:	2101      	movs	r1, #1
 80019fe:	4605      	mov	r5, r0
 8001a00:	4616      	mov	r6, r2
 8001a02:	f000 f8cf 	bl	8001ba4 <LCD_OS_TryLock>
 8001a06:	b990      	cbnz	r0, 8001a2e <BSP_LCD_WriteData+0x36>
 8001a08:	4b0a      	ldr	r3, [pc, #40]	@ (8001a34 <BSP_LCD_WriteData+0x3c>)
 8001a0a:	695b      	ldr	r3, [r3, #20]
 8001a0c:	b163      	cbz	r3, 8001a28 <BSP_LCD_WriteData+0x30>
 8001a0e:	4620      	mov	r0, r4
 8001a10:	4631      	mov	r1, r6
 8001a12:	4798      	blx	r3
 8001a14:	2800      	cmp	r0, #0
 8001a16:	bfac      	ite	ge
 8001a18:	2400      	movge	r4, #0
 8001a1a:	f06f 0404 	mvnlt.w	r4, #4
 8001a1e:	4628      	mov	r0, r5
 8001a20:	f000 f8b0 	bl	8001b84 <LCD_OS_Unlock>
 8001a24:	4620      	mov	r0, r4
 8001a26:	bd70      	pop	{r4, r5, r6, pc}
 8001a28:	f06f 040a 	mvn.w	r4, #10
 8001a2c:	e7f7      	b.n	8001a1e <BSP_LCD_WriteData+0x26>
 8001a2e:	f06f 0402 	mvn.w	r4, #2
 8001a32:	e7f7      	b.n	8001a24 <BSP_LCD_WriteData+0x2c>
 8001a34:	2000cbd8 	.word	0x2000cbd8

08001a38 <BSP_LCD_WriteDataDMA>:
 8001a38:	b538      	push	{r3, r4, r5, lr}
 8001a3a:	460c      	mov	r4, r1
 8001a3c:	2101      	movs	r1, #1
 8001a3e:	4615      	mov	r5, r2
 8001a40:	f000 f8b0 	bl	8001ba4 <LCD_OS_TryLock>
 8001a44:	b958      	cbnz	r0, 8001a5e <BSP_LCD_WriteDataDMA+0x26>
 8001a46:	4b09      	ldr	r3, [pc, #36]	@ (8001a6c <BSP_LCD_WriteDataDMA+0x34>)
 8001a48:	699b      	ldr	r3, [r3, #24]
 8001a4a:	b15b      	cbz	r3, 8001a64 <BSP_LCD_WriteDataDMA+0x2c>
 8001a4c:	4629      	mov	r1, r5
 8001a4e:	4620      	mov	r0, r4
 8001a50:	4798      	blx	r3
 8001a52:	2800      	cmp	r0, #0
 8001a54:	bfac      	ite	ge
 8001a56:	2000      	movge	r0, #0
 8001a58:	f06f 0004 	mvnlt.w	r0, #4
 8001a5c:	bd38      	pop	{r3, r4, r5, pc}
 8001a5e:	f06f 0002 	mvn.w	r0, #2
 8001a62:	e7fb      	b.n	8001a5c <BSP_LCD_WriteDataDMA+0x24>
 8001a64:	f06f 000a 	mvn.w	r0, #10
 8001a68:	e7f8      	b.n	8001a5c <BSP_LCD_WriteDataDMA+0x24>
 8001a6a:	bf00      	nop
 8001a6c:	2000cbd8 	.word	0x2000cbd8

08001a70 <BSP_LCD_SetDisplayWindow>:
 8001a70:	e92d 41f3 	stmdb	sp!, {r0, r1, r4, r5, r6, r7, r8, lr}
 8001a74:	460c      	mov	r4, r1
 8001a76:	2101      	movs	r1, #1
 8001a78:	4605      	mov	r5, r0
 8001a7a:	4616      	mov	r6, r2
 8001a7c:	461f      	mov	r7, r3
 8001a7e:	f000 f891 	bl	8001ba4 <LCD_OS_TryLock>
 8001a82:	b9e8      	cbnz	r0, 8001ac0 <BSP_LCD_SetDisplayWindow+0x50>
 8001a84:	4b10      	ldr	r3, [pc, #64]	@ (8001ac8 <BSP_LCD_SetDisplayWindow+0x58>)
 8001a86:	681b      	ldr	r3, [r3, #0]
 8001a88:	f8d3 8014 	ldr.w	r8, [r3, #20]
 8001a8c:	f1b8 0f00 	cmp.w	r8, #0
 8001a90:	d013      	beq.n	8001aba <BSP_LCD_SetDisplayWindow+0x4a>
 8001a92:	9b08      	ldr	r3, [sp, #32]
 8001a94:	480d      	ldr	r0, [pc, #52]	@ (8001acc <BSP_LCD_SetDisplayWindow+0x5c>)
 8001a96:	9300      	str	r3, [sp, #0]
 8001a98:	4621      	mov	r1, r4
 8001a9a:	463b      	mov	r3, r7
 8001a9c:	4632      	mov	r2, r6
 8001a9e:	6800      	ldr	r0, [r0, #0]
 8001aa0:	47c0      	blx	r8
 8001aa2:	2800      	cmp	r0, #0
 8001aa4:	bfac      	ite	ge
 8001aa6:	2400      	movge	r4, #0
 8001aa8:	f06f 0404 	mvnlt.w	r4, #4
 8001aac:	4628      	mov	r0, r5
 8001aae:	f000 f869 	bl	8001b84 <LCD_OS_Unlock>
 8001ab2:	4620      	mov	r0, r4
 8001ab4:	b002      	add	sp, #8
 8001ab6:	e8bd 81f0 	ldmia.w	sp!, {r4, r5, r6, r7, r8, pc}
 8001aba:	f06f 040a 	mvn.w	r4, #10
 8001abe:	e7f5      	b.n	8001aac <BSP_LCD_SetDisplayWindow+0x3c>
 8001ac0:	f06f 0402 	mvn.w	r4, #2
 8001ac4:	e7f5      	b.n	8001ab2 <BSP_LCD_SetDisplayWindow+0x42>
 8001ac6:	bf00      	nop
 8001ac8:	2000cc04 	.word	0x2000cc04
 8001acc:	2000cc08 	.word	0x2000cc08

08001ad0 <BSP_LCD_FillRGBRect>:
 8001ad0:	e92d 41f3 	stmdb	sp!, {r0, r1, r4, r5, r6, r7, r8, lr}
 8001ad4:	460f      	mov	r7, r1
 8001ad6:	e9dd 4809 	ldrd	r4, r8, [sp, #36]	@ 0x24
 8001ada:	4616      	mov	r6, r2
 8001adc:	4619      	mov	r1, r3
 8001ade:	9a08      	ldr	r2, [sp, #32]
 8001ae0:	4623      	mov	r3, r4
 8001ae2:	f8cd 8000 	str.w	r8, [sp]
 8001ae6:	4605      	mov	r5, r0
 8001ae8:	f7ff ffc2 	bl	8001a70 <BSP_LCD_SetDisplayWindow>
 8001aec:	b978      	cbnz	r0, 8001b0e <BSP_LCD_FillRGBRect+0x3e>
 8001aee:	fb08 f404 	mul.w	r4, r8, r4
 8001af2:	4631      	mov	r1, r6
 8001af4:	4628      	mov	r0, r5
 8001af6:	0062      	lsls	r2, r4, #1
 8001af8:	b127      	cbz	r7, 8001b04 <BSP_LCD_FillRGBRect+0x34>
 8001afa:	b002      	add	sp, #8
 8001afc:	e8bd 41f0 	ldmia.w	sp!, {r4, r5, r6, r7, r8, lr}
 8001b00:	f7ff bf9a 	b.w	8001a38 <BSP_LCD_WriteDataDMA>
 8001b04:	b002      	add	sp, #8
 8001b06:	e8bd 41f0 	ldmia.w	sp!, {r4, r5, r6, r7, r8, lr}
 8001b0a:	f7ff bf75 	b.w	80019f8 <BSP_LCD_WriteData>
 8001b0e:	f06f 0007 	mvn.w	r0, #7
 8001b12:	b002      	add	sp, #8
 8001b14:	e8bd 81f0 	ldmia.w	sp!, {r4, r5, r6, r7, r8, pc}

08001b18 <BSP_LCD_WaitForTransferToBeDone>:
 8001b18:	b908      	cbnz	r0, 8001b1e <BSP_LCD_WaitForTransferToBeDone+0x6>
 8001b1a:	f000 b85d 	b.w	8001bd8 <LCD_OS_WaitForTransferToBeDone>
 8001b1e:	4770      	bx	lr

08001b20 <BSP_LCD_SignalTransferDone>:
 8001b20:	4770      	bx	lr
	...

08001b24 <DMA_TxCpltCallback>:
 8001b24:	b508      	push	{r3, lr}
 8001b26:	4b05      	ldr	r3, [pc, #20]	@ (8001b3c <DMA_TxCpltCallback+0x18>)
 8001b28:	4283      	cmp	r3, r0
 8001b2a:	d105      	bne.n	8001b38 <DMA_TxCpltCallback+0x14>
 8001b2c:	2000      	movs	r0, #0
 8001b2e:	f000 f831 	bl	8001b94 <LCD_OS_UnlockFromISR>
 8001b32:	2000      	movs	r0, #0
 8001b34:	f7ff fff4 	bl	8001b20 <BSP_LCD_SignalTransferDone>
 8001b38:	bd08      	pop	{r3, pc}
 8001b3a:	bf00      	nop
 8001b3c:	200001d0 	.word	0x200001d0

08001b40 <LCD_TEFallingCallback>:
 8001b40:	2102      	movs	r1, #2
 8001b42:	b508      	push	{r3, lr}
 8001b44:	4804      	ldr	r0, [pc, #16]	@ (8001b58 <LCD_TEFallingCallback+0x18>)
 8001b46:	f001 feff 	bl	8003948 <HAL_EXTI_ClearPending>
 8001b4a:	2200      	movs	r2, #0
 8001b4c:	4611      	mov	r1, r2
 8001b4e:	4610      	mov	r0, r2
 8001b50:	f7ff fad8 	bl	8001104 <BSP_LCD_SignalTearingEffectEvent>
 8001b54:	bd08      	pop	{r3, pc}
 8001b56:	bf00      	nop
 8001b58:	2000cc0c 	.word	0x2000cc0c

08001b5c <LCD_TERisingCallback>:
 8001b5c:	2101      	movs	r1, #1
 8001b5e:	b508      	push	{r3, lr}
 8001b60:	4804      	ldr	r0, [pc, #16]	@ (8001b74 <LCD_TERisingCallback+0x18>)
 8001b62:	f001 fef1 	bl	8003948 <HAL_EXTI_ClearPending>
 8001b66:	2200      	movs	r2, #0
 8001b68:	2101      	movs	r1, #1
 8001b6a:	4610      	mov	r0, r2
 8001b6c:	f7ff faca 	bl	8001104 <BSP_LCD_SignalTearingEffectEvent>
 8001b70:	bd08      	pop	{r3, pc}
 8001b72:	bf00      	nop
 8001b74:	2000cc0c 	.word	0x2000cc0c

08001b78 <LCD_OS_Initialize>:
 8001b78:	2000      	movs	r0, #0
 8001b7a:	4b01      	ldr	r3, [pc, #4]	@ (8001b80 <LCD_OS_Initialize+0x8>)
 8001b7c:	7018      	strb	r0, [r3, #0]
 8001b7e:	4770      	bx	lr
 8001b80:	2000cc18 	.word	0x2000cc18

08001b84 <LCD_OS_Unlock>:
 8001b84:	4603      	mov	r3, r0
 8001b86:	2000      	movs	r0, #0
 8001b88:	4a01      	ldr	r2, [pc, #4]	@ (8001b90 <LCD_OS_Unlock+0xc>)
 8001b8a:	54d0      	strb	r0, [r2, r3]
 8001b8c:	4770      	bx	lr
 8001b8e:	bf00      	nop
 8001b90:	2000cc18 	.word	0x2000cc18

08001b94 <LCD_OS_UnlockFromISR>:
 8001b94:	4603      	mov	r3, r0
 8001b96:	2000      	movs	r0, #0
 8001b98:	4a01      	ldr	r2, [pc, #4]	@ (8001ba0 <LCD_OS_UnlockFromISR+0xc>)
 8001b9a:	54d0      	strb	r0, [r2, r3]
 8001b9c:	4770      	bx	lr
 8001b9e:	bf00      	nop
 8001ba0:	2000cc18 	.word	0x2000cc18

08001ba4 <LCD_OS_TryLock>:
 8001ba4:	b5f8      	push	{r3, r4, r5, r6, r7, lr}
 8001ba6:	4604      	mov	r4, r0
 8001ba8:	460d      	mov	r5, r1
 8001baa:	f001 f8cf 	bl	8002d4c <HAL_GetTick>
 8001bae:	4e09      	ldr	r6, [pc, #36]	@ (8001bd4 <LCD_OS_TryLock+0x30>)
 8001bb0:	4607      	mov	r7, r0
 8001bb2:	5d33      	ldrb	r3, [r6, r4]
 8001bb4:	b91b      	cbnz	r3, 8001bbe <LCD_OS_TryLock+0x1a>
 8001bb6:	2301      	movs	r3, #1
 8001bb8:	2000      	movs	r0, #0
 8001bba:	5533      	strb	r3, [r6, r4]
 8001bbc:	bdf8      	pop	{r3, r4, r5, r6, r7, pc}
 8001bbe:	b13d      	cbz	r5, 8001bd0 <LCD_OS_TryLock+0x2c>
 8001bc0:	5d33      	ldrb	r3, [r6, r4]
 8001bc2:	2b00      	cmp	r3, #0
 8001bc4:	d0f7      	beq.n	8001bb6 <LCD_OS_TryLock+0x12>
 8001bc6:	f001 f8c1 	bl	8002d4c <HAL_GetTick>
 8001bca:	1bc3      	subs	r3, r0, r7
 8001bcc:	42ab      	cmp	r3, r5
 8001bce:	d3f7      	bcc.n	8001bc0 <LCD_OS_TryLock+0x1c>
 8001bd0:	2003      	movs	r0, #3
 8001bd2:	e7f3      	b.n	8001bbc <LCD_OS_TryLock+0x18>
 8001bd4:	2000cc18 	.word	0x2000cc18

08001bd8 <LCD_OS_WaitForTransferToBeDone>:
 8001bd8:	4603      	mov	r3, r0
 8001bda:	4903      	ldr	r1, [pc, #12]	@ (8001be8 <LCD_OS_WaitForTransferToBeDone+0x10>)
 8001bdc:	5cca      	ldrb	r2, [r1, r3]
 8001bde:	f002 00ff 	and.w	r0, r2, #255	@ 0xff
 8001be2:	2a00      	cmp	r2, #0
 8001be4:	d1fa      	bne.n	8001bdc <LCD_OS_WaitForTransferToBeDone+0x4>
 8001be6:	4770      	bx	lr
 8001be8:	2000cc18 	.word	0x2000cc18

08001bec <MEM_IO_Init>:
 8001bec:	2000      	movs	r0, #0
 8001bee:	4770      	bx	lr

08001bf0 <MEM_IO_DeInit>:
 8001bf0:	b510      	push	{r4, lr}
 8001bf2:	4c04      	ldr	r4, [pc, #16]	@ (8001c04 <MEM_IO_DeInit+0x14>)
 8001bf4:	4620      	mov	r0, r4
 8001bf6:	f002 fd00 	bl	80045fa <HAL_OSPI_Abort>
 8001bfa:	4620      	mov	r0, r4
 8001bfc:	f002 fa1a 	bl	8004034 <HAL_OSPI_DeInit>
 8001c00:	2000      	movs	r0, #0
 8001c02:	bd10      	pop	{r4, pc}
 8001c04:	2000cc40 	.word	0x2000cc40

08001c08 <BSP_MEM_Init>:
 8001c08:	b5f7      	push	{r0, r1, r2, r4, r5, r6, r7, lr}
 8001c0a:	2000      	movs	r0, #0
 8001c0c:	f000 f854 	bl	8001cb8 <MEM_OS_Initialize>
 8001c10:	2800      	cmp	r0, #0
 8001c12:	d13c      	bne.n	8001c8e <BSP_MEM_Init+0x86>
 8001c14:	491f      	ldr	r1, [pc, #124]	@ (8001c94 <BSP_MEM_Init+0x8c>)
 8001c16:	4b20      	ldr	r3, [pc, #128]	@ (8001c98 <BSP_MEM_Init+0x90>)
 8001c18:	4c20      	ldr	r4, [pc, #128]	@ (8001c9c <BSP_MEM_Init+0x94>)
 8001c1a:	600b      	str	r3, [r1, #0]
 8001c1c:	4b20      	ldr	r3, [pc, #128]	@ (8001ca0 <BSP_MEM_Init+0x98>)
 8001c1e:	4d21      	ldr	r5, [pc, #132]	@ (8001ca4 <BSP_MEM_Init+0x9c>)
 8001c20:	604b      	str	r3, [r1, #4]
 8001c22:	f04f 4310 	mov.w	r3, #2415919104	@ 0x90000000
 8001c26:	4f20      	ldr	r7, [pc, #128]	@ (8001ca8 <BSP_MEM_Init+0xa0>)
 8001c28:	608b      	str	r3, [r1, #8]
 8001c2a:	4b20      	ldr	r3, [pc, #128]	@ (8001cac <BSP_MEM_Init+0xa4>)
 8001c2c:	e9c1 0003 	strd	r0, r0, [r1, #12]
 8001c30:	e9c1 0005 	strd	r0, r0, [r1, #20]
 8001c34:	6028      	str	r0, [r5, #0]
 8001c36:	6038      	str	r0, [r7, #0]
 8001c38:	9001      	str	r0, [sp, #4]
 8001c3a:	f884 0020 	strb.w	r0, [r4, #32]
 8001c3e:	4620      	mov	r0, r4
 8001c40:	6263      	str	r3, [r4, #36]	@ 0x24
 8001c42:	f000 f8ac 	bl	8001d9e <MX25L6433F_RegisterBusIO>
 8001c46:	b120      	cbz	r0, 8001c52 <BSP_MEM_Init+0x4a>
 8001c48:	f06f 0404 	mvn.w	r4, #4
 8001c4c:	4620      	mov	r0, r4
 8001c4e:	b003      	add	sp, #12
 8001c50:	bdf0      	pop	{r4, r5, r6, r7, pc}
 8001c52:	4e17      	ldr	r6, [pc, #92]	@ (8001cb0 <BSP_MEM_Init+0xa8>)
 8001c54:	4620      	mov	r0, r4
 8001c56:	68b3      	ldr	r3, [r6, #8]
 8001c58:	a901      	add	r1, sp, #4
 8001c5a:	602c      	str	r4, [r5, #0]
 8001c5c:	4798      	blx	r3
 8001c5e:	b998      	cbnz	r0, 8001c88 <BSP_MEM_Init+0x80>
 8001c60:	4b14      	ldr	r3, [pc, #80]	@ (8001cb4 <BSP_MEM_Init+0xac>)
 8001c62:	9a01      	ldr	r2, [sp, #4]
 8001c64:	429a      	cmp	r2, r3
 8001c66:	d10f      	bne.n	8001c88 <BSP_MEM_Init+0x80>
 8001c68:	6833      	ldr	r3, [r6, #0]
 8001c6a:	6828      	ldr	r0, [r5, #0]
 8001c6c:	4798      	blx	r3
 8001c6e:	4604      	mov	r4, r0
 8001c70:	2800      	cmp	r0, #0
 8001c72:	d1e9      	bne.n	8001c48 <BSP_MEM_Init+0x40>
 8001c74:	6ab3      	ldr	r3, [r6, #40]	@ 0x28
 8001c76:	603e      	str	r6, [r7, #0]
 8001c78:	2b00      	cmp	r3, #0
 8001c7a:	d0e7      	beq.n	8001c4c <BSP_MEM_Init+0x44>
 8001c7c:	2104      	movs	r1, #4
 8001c7e:	6828      	ldr	r0, [r5, #0]
 8001c80:	4798      	blx	r3
 8001c82:	2800      	cmp	r0, #0
 8001c84:	dae2      	bge.n	8001c4c <BSP_MEM_Init+0x44>
 8001c86:	e7df      	b.n	8001c48 <BSP_MEM_Init+0x40>
 8001c88:	f06f 0406 	mvn.w	r4, #6
 8001c8c:	e7de      	b.n	8001c4c <BSP_MEM_Init+0x44>
 8001c8e:	f04f 34ff 	mov.w	r4, #4294967295
 8001c92:	e7db      	b.n	8001c4c <BSP_MEM_Init+0x44>
 8001c94:	2000cc44 	.word	0x2000cc44
 8001c98:	08001bed 	.word	0x08001bed
 8001c9c:	2000cc1c 	.word	0x2000cc1c
 8001ca0:	08001bf1 	.word	0x08001bf1
 8001ca4:	2000cc68 	.word	0x2000cc68
 8001ca8:	2000cc64 	.word	0x2000cc64
 8001cac:	20000174 	.word	0x20000174
 8001cb0:	08008850 	.word	0x08008850
 8001cb4:	001720c2 	.word	0x001720c2

08001cb8 <MEM_OS_Initialize>:
 8001cb8:	2000      	movs	r0, #0
 8001cba:	4b01      	ldr	r3, [pc, #4]	@ (8001cc0 <MEM_OS_Initialize+0x8>)
 8001cbc:	7018      	strb	r0, [r3, #0]
 8001cbe:	4770      	bx	lr
 8001cc0:	2000cc6c 	.word	0x2000cc6c

08001cc4 <MX25L6433F_DeInit>:
 8001cc4:	b510      	push	{r4, lr}
 8001cc6:	4604      	mov	r4, r0
 8001cc8:	b910      	cbnz	r0, 8001cd0 <MX25L6433F_DeInit+0xc>
 8001cca:	f04f 30ff 	mov.w	r0, #4294967295
 8001cce:	bd10      	pop	{r4, pc}
 8001cd0:	f890 3020 	ldrb.w	r3, [r0, #32]
 8001cd4:	2b01      	cmp	r3, #1
 8001cd6:	d001      	beq.n	8001cdc <MX25L6433F_DeInit+0x18>
 8001cd8:	2000      	movs	r0, #0
 8001cda:	e7f8      	b.n	8001cce <MX25L6433F_DeInit+0xa>
 8001cdc:	6843      	ldr	r3, [r0, #4]
 8001cde:	4798      	blx	r3
 8001ce0:	2800      	cmp	r0, #0
 8001ce2:	d1f2      	bne.n	8001cca <MX25L6433F_DeInit+0x6>
 8001ce4:	f884 0020 	strb.w	r0, [r4, #32]
 8001ce8:	e7f6      	b.n	8001cd8 <MX25L6433F_DeInit+0x14>

08001cea <MX25L6433F_GetFlashInfo>:
 8001cea:	f44f 0200 	mov.w	r2, #8388608	@ 0x800000
 8001cee:	f44f 3380 	mov.w	r3, #65536	@ 0x10000
 8001cf2:	2180      	movs	r1, #128	@ 0x80
 8001cf4:	e9c0 2300 	strd	r2, r3, [r0]
 8001cf8:	f44f 4300 	mov.w	r3, #32768	@ 0x8000
 8001cfc:	f44f 7280 	mov.w	r2, #256	@ 0x100
 8001d00:	e9c0 1302 	strd	r1, r3, [r0, #8]
 8001d04:	f44f 5180 	mov.w	r1, #4096	@ 0x1000
 8001d08:	e9c0 2104 	strd	r2, r1, [r0, #16]
 8001d0c:	f44f 6100 	mov.w	r1, #2048	@ 0x800
 8001d10:	6203      	str	r3, [r0, #32]
 8001d12:	e9c0 1206 	strd	r1, r2, [r0, #24]
 8001d16:	2000      	movs	r0, #0
 8001d18:	4770      	bx	lr

08001d1a <MX25L6433F_ResetEnable>:
 8001d1a:	2166      	movs	r1, #102	@ 0x66
 8001d1c:	2201      	movs	r2, #1
 8001d1e:	2300      	movs	r3, #0
 8001d20:	b500      	push	{lr}
 8001d22:	b095      	sub	sp, #84	@ 0x54
 8001d24:	e9cd 1202 	strd	r1, r2, [sp, #8]
 8001d28:	6a40      	ldr	r0, [r0, #36]	@ 0x24
 8001d2a:	f241 3288 	movw	r2, #5000	@ 0x1388
 8001d2e:	4669      	mov	r1, sp
 8001d30:	e9cd 3300 	strd	r3, r3, [sp]
 8001d34:	e9cd 3304 	strd	r3, r3, [sp, #16]
 8001d38:	e9cd 3310 	strd	r3, r3, [sp, #64]	@ 0x40
 8001d3c:	e9cd 3312 	strd	r3, r3, [sp, #72]	@ 0x48
 8001d40:	9307      	str	r3, [sp, #28]
 8001d42:	930b      	str	r3, [sp, #44]	@ 0x2c
 8001d44:	930e      	str	r3, [sp, #56]	@ 0x38
 8001d46:	f002 f988 	bl	800405a <HAL_OSPI_Command>
 8001d4a:	3800      	subs	r0, #0
 8001d4c:	bf18      	it	ne
 8001d4e:	2001      	movne	r0, #1
 8001d50:	4240      	negs	r0, r0
 8001d52:	b015      	add	sp, #84	@ 0x54
 8001d54:	f85d fb04 	ldr.w	pc, [sp], #4

08001d58 <MX25L6433F_ResetMemory>:
 8001d58:	2199      	movs	r1, #153	@ 0x99
 8001d5a:	2201      	movs	r2, #1
 8001d5c:	2300      	movs	r3, #0
 8001d5e:	b510      	push	{r4, lr}
 8001d60:	b094      	sub	sp, #80	@ 0x50
 8001d62:	e9cd 1202 	strd	r1, r2, [sp, #8]
 8001d66:	6a40      	ldr	r0, [r0, #36]	@ 0x24
 8001d68:	f241 3288 	movw	r2, #5000	@ 0x1388
 8001d6c:	4669      	mov	r1, sp
 8001d6e:	e9cd 3300 	strd	r3, r3, [sp]
 8001d72:	e9cd 3304 	strd	r3, r3, [sp, #16]
 8001d76:	e9cd 3310 	strd	r3, r3, [sp, #64]	@ 0x40
 8001d7a:	e9cd 3312 	strd	r3, r3, [sp, #72]	@ 0x48
 8001d7e:	9307      	str	r3, [sp, #28]
 8001d80:	930b      	str	r3, [sp, #44]	@ 0x2c
 8001d82:	930e      	str	r3, [sp, #56]	@ 0x38
 8001d84:	f002 f969 	bl	800405a <HAL_OSPI_Command>
 8001d88:	4604      	mov	r4, r0
 8001d8a:	b928      	cbnz	r0, 8001d98 <MX25L6433F_ResetMemory+0x40>
 8001d8c:	200a      	movs	r0, #10
 8001d8e:	f000 ffe3 	bl	8002d58 <HAL_Delay>
 8001d92:	4620      	mov	r0, r4
 8001d94:	b014      	add	sp, #80	@ 0x50
 8001d96:	bd10      	pop	{r4, pc}
 8001d98:	f04f 30ff 	mov.w	r0, #4294967295
 8001d9c:	e7fa      	b.n	8001d94 <MX25L6433F_ResetMemory+0x3c>

08001d9e <MX25L6433F_RegisterBusIO>:
 8001d9e:	b188      	cbz	r0, 8001dc4 <MX25L6433F_RegisterBusIO+0x26>
 8001da0:	684a      	ldr	r2, [r1, #4]
 8001da2:	680b      	ldr	r3, [r1, #0]
 8001da4:	6042      	str	r2, [r0, #4]
 8001da6:	688a      	ldr	r2, [r1, #8]
 8001da8:	6003      	str	r3, [r0, #0]
 8001daa:	6082      	str	r2, [r0, #8]
 8001dac:	68ca      	ldr	r2, [r1, #12]
 8001dae:	60c2      	str	r2, [r0, #12]
 8001db0:	690a      	ldr	r2, [r1, #16]
 8001db2:	6102      	str	r2, [r0, #16]
 8001db4:	694a      	ldr	r2, [r1, #20]
 8001db6:	6142      	str	r2, [r0, #20]
 8001db8:	698a      	ldr	r2, [r1, #24]
 8001dba:	6182      	str	r2, [r0, #24]
 8001dbc:	69ca      	ldr	r2, [r1, #28]
 8001dbe:	61c2      	str	r2, [r0, #28]
 8001dc0:	b103      	cbz	r3, 8001dc4 <MX25L6433F_RegisterBusIO+0x26>
 8001dc2:	4718      	bx	r3
 8001dc4:	f04f 30ff 	mov.w	r0, #4294967295
 8001dc8:	4770      	bx	lr

08001dca <MX25L6433F_AutoPollingMemReady>:
 8001dca:	b530      	push	{r4, r5, lr}
 8001dcc:	2205      	movs	r2, #5
 8001dce:	2401      	movs	r4, #1
 8001dd0:	b09b      	sub	sp, #108	@ 0x6c
 8001dd2:	e9cd 2408 	strd	r2, r4, [sp, #32]
 8001dd6:	f04f 7280 	mov.w	r2, #16777216	@ 0x1000000
 8001dda:	2300      	movs	r3, #0
 8001ddc:	6a45      	ldr	r5, [r0, #36]	@ 0x24
 8001dde:	9214      	str	r2, [sp, #80]	@ 0x50
 8001de0:	4628      	mov	r0, r5
 8001de2:	f241 3288 	movw	r2, #5000	@ 0x1388
 8001de6:	a906      	add	r1, sp, #24
 8001de8:	e9cd 3306 	strd	r3, r3, [sp, #24]
 8001dec:	e9cd 330a 	strd	r3, r3, [sp, #40]	@ 0x28
 8001df0:	e9cd 4315 	strd	r4, r3, [sp, #84]	@ 0x54
 8001df4:	e9cd 3317 	strd	r3, r3, [sp, #92]	@ 0x5c
 8001df8:	930d      	str	r3, [sp, #52]	@ 0x34
 8001dfa:	9311      	str	r3, [sp, #68]	@ 0x44
 8001dfc:	9319      	str	r3, [sp, #100]	@ 0x64
 8001dfe:	f002 f92c 	bl	800405a <HAL_OSPI_Command>
 8001e02:	b998      	cbnz	r0, 8001e2c <MX25L6433F_AutoPollingMemReady+0x62>
 8001e04:	f44f 0380 	mov.w	r3, #4194304	@ 0x400000
 8001e08:	2210      	movs	r2, #16
 8001e0a:	e9cd 0401 	strd	r0, r4, [sp, #4]
 8001e0e:	e9cd 3204 	strd	r3, r2, [sp, #16]
 8001e12:	9003      	str	r0, [sp, #12]
 8001e14:	f241 3288 	movw	r2, #5000	@ 0x1388
 8001e18:	4628      	mov	r0, r5
 8001e1a:	a901      	add	r1, sp, #4
 8001e1c:	f002 fb3a 	bl	8004494 <HAL_OSPI_AutoPolling>
 8001e20:	3800      	subs	r0, #0
 8001e22:	bf18      	it	ne
 8001e24:	2001      	movne	r0, #1
 8001e26:	4240      	negs	r0, r0
 8001e28:	b01b      	add	sp, #108	@ 0x6c
 8001e2a:	bd30      	pop	{r4, r5, pc}
 8001e2c:	f04f 30ff 	mov.w	r0, #4294967295
 8001e30:	e7fa      	b.n	8001e28 <MX25L6433F_AutoPollingMemReady+0x5e>

08001e32 <MX25L6433F_Read>:
 8001e32:	b5f0      	push	{r4, r5, r6, r7, lr}
 8001e34:	b095      	sub	sp, #84	@ 0x54
 8001e36:	460c      	mov	r4, r1
 8001e38:	4616      	mov	r6, r2
 8001e3a:	461d      	mov	r5, r3
 8001e3c:	6a47      	ldr	r7, [r0, #36]	@ 0x24
 8001e3e:	f7ff ffc4 	bl	8001dca <MX25L6433F_AutoPollingMemReady>
 8001e42:	b9f0      	cbnz	r0, 8001e82 <MX25L6433F_Read+0x50>
 8001e44:	2301      	movs	r3, #1
 8001e46:	e9cd 3003 	strd	r3, r0, [sp, #12]
 8001e4a:	f44f 5300 	mov.w	r3, #8192	@ 0x2000
 8001e4e:	e9cd 3008 	strd	r3, r0, [sp, #32]
 8001e52:	9b1a      	ldr	r3, [sp, #104]	@ 0x68
 8001e54:	e9cd 0000 	strd	r0, r0, [sp]
 8001e58:	e9cd 0505 	strd	r0, r5, [sp, #20]
 8001e5c:	e9cd 0012 	strd	r0, r0, [sp, #72]	@ 0x48
 8001e60:	900b      	str	r0, [sp, #44]	@ 0x2c
 8001e62:	9010      	str	r0, [sp, #64]	@ 0x40
 8001e64:	930f      	str	r3, [sp, #60]	@ 0x3c
 8001e66:	2c04      	cmp	r4, #4
 8001e68:	d80b      	bhi.n	8001e82 <MX25L6433F_Read+0x50>
 8001e6a:	e8df f004 	tbb	[pc, r4]
 8001e6e:	0338      	.short	0x0338
 8001e70:	2b0e      	.short	0x2b0e
 8001e72:	31          	.byte	0x31
 8001e73:	00          	.byte	0x00
 8001e74:	253b      	movs	r5, #59	@ 0x3b
 8001e76:	f44f 7480 	mov.w	r4, #256	@ 0x100
 8001e7a:	f04f 7000 	mov.w	r0, #33554432	@ 0x2000000
 8001e7e:	2308      	movs	r3, #8
 8001e80:	e009      	b.n	8001e96 <MX25L6433F_Read+0x64>
 8001e82:	f04f 30ff 	mov.w	r0, #4294967295
 8001e86:	b015      	add	sp, #84	@ 0x54
 8001e88:	bdf0      	pop	{r4, r5, r6, r7, pc}
 8001e8a:	25bb      	movs	r5, #187	@ 0xbb
 8001e8c:	f44f 7400 	mov.w	r4, #512	@ 0x200
 8001e90:	f04f 7000 	mov.w	r0, #33554432	@ 0x2000000
 8001e94:	2304      	movs	r3, #4
 8001e96:	900e      	str	r0, [sp, #56]	@ 0x38
 8001e98:	f241 3288 	movw	r2, #5000	@ 0x1388
 8001e9c:	4669      	mov	r1, sp
 8001e9e:	4638      	mov	r0, r7
 8001ea0:	9502      	str	r5, [sp, #8]
 8001ea2:	9407      	str	r4, [sp, #28]
 8001ea4:	9311      	str	r3, [sp, #68]	@ 0x44
 8001ea6:	f002 f8d8 	bl	800405a <HAL_OSPI_Command>
 8001eaa:	2800      	cmp	r0, #0
 8001eac:	d1e9      	bne.n	8001e82 <MX25L6433F_Read+0x50>
 8001eae:	f241 3288 	movw	r2, #5000	@ 0x1388
 8001eb2:	4631      	mov	r1, r6
 8001eb4:	4638      	mov	r0, r7
 8001eb6:	f002 f963 	bl	8004180 <HAL_OSPI_Receive>
 8001eba:	3800      	subs	r0, #0
 8001ebc:	bf18      	it	ne
 8001ebe:	2001      	movne	r0, #1
 8001ec0:	4240      	negs	r0, r0
 8001ec2:	e7e0      	b.n	8001e86 <MX25L6433F_Read+0x54>
 8001ec4:	256b      	movs	r5, #107	@ 0x6b
 8001ec6:	f44f 7480 	mov.w	r4, #256	@ 0x100
 8001eca:	f04f 7040 	mov.w	r0, #50331648	@ 0x3000000
 8001ece:	e7d6      	b.n	8001e7e <MX25L6433F_Read+0x4c>
 8001ed0:	25eb      	movs	r5, #235	@ 0xeb
 8001ed2:	f44f 7440 	mov.w	r4, #768	@ 0x300
 8001ed6:	f04f 7040 	mov.w	r0, #50331648	@ 0x3000000
 8001eda:	2306      	movs	r3, #6
 8001edc:	e7db      	b.n	8001e96 <MX25L6433F_Read+0x64>
 8001ede:	250b      	movs	r5, #11
 8001ee0:	f44f 7480 	mov.w	r4, #256	@ 0x100
 8001ee4:	f04f 7080 	mov.w	r0, #16777216	@ 0x1000000
 8001ee8:	e7c9      	b.n	8001e7e <MX25L6433F_Read+0x4c>

08001eea <MX25L6433F_ReadDMA>:
 8001eea:	b5f0      	push	{r4, r5, r6, r7, lr}
 8001eec:	b095      	sub	sp, #84	@ 0x54
 8001eee:	460c      	mov	r4, r1
 8001ef0:	4616      	mov	r6, r2
 8001ef2:	461d      	mov	r5, r3
 8001ef4:	6a47      	ldr	r7, [r0, #36]	@ 0x24
 8001ef6:	f7ff ff68 	bl	8001dca <MX25L6433F_AutoPollingMemReady>
 8001efa:	b9f0      	cbnz	r0, 8001f3a <MX25L6433F_ReadDMA+0x50>
 8001efc:	2301      	movs	r3, #1
 8001efe:	e9cd 3003 	strd	r3, r0, [sp, #12]
 8001f02:	f44f 5300 	mov.w	r3, #8192	@ 0x2000
 8001f06:	e9cd 3008 	strd	r3, r0, [sp, #32]
 8001f0a:	9b1a      	ldr	r3, [sp, #104]	@ 0x68
 8001f0c:	e9cd 0000 	strd	r0, r0, [sp]
 8001f10:	e9cd 0505 	strd	r0, r5, [sp, #20]
 8001f14:	e9cd 0012 	strd	r0, r0, [sp, #72]	@ 0x48
 8001f18:	900b      	str	r0, [sp, #44]	@ 0x2c
 8001f1a:	9010      	str	r0, [sp, #64]	@ 0x40
 8001f1c:	930f      	str	r3, [sp, #60]	@ 0x3c
 8001f1e:	2c04      	cmp	r4, #4
 8001f20:	d80b      	bhi.n	8001f3a <MX25L6433F_ReadDMA+0x50>
 8001f22:	e8df f004 	tbb	[pc, r4]
 8001f26:	0336      	.short	0x0336
 8001f28:	290e      	.short	0x290e
 8001f2a:	2f          	.byte	0x2f
 8001f2b:	00          	.byte	0x00
 8001f2c:	253b      	movs	r5, #59	@ 0x3b
 8001f2e:	f44f 7480 	mov.w	r4, #256	@ 0x100
 8001f32:	f04f 7000 	mov.w	r0, #33554432	@ 0x2000000
 8001f36:	2308      	movs	r3, #8
 8001f38:	e009      	b.n	8001f4e <MX25L6433F_ReadDMA+0x64>
 8001f3a:	f04f 30ff 	mov.w	r0, #4294967295
 8001f3e:	b015      	add	sp, #84	@ 0x54
 8001f40:	bdf0      	pop	{r4, r5, r6, r7, pc}
 8001f42:	25bb      	movs	r5, #187	@ 0xbb
 8001f44:	f44f 7400 	mov.w	r4, #512	@ 0x200
 8001f48:	f04f 7000 	mov.w	r0, #33554432	@ 0x2000000
 8001f4c:	2304      	movs	r3, #4
 8001f4e:	900e      	str	r0, [sp, #56]	@ 0x38
 8001f50:	f241 3288 	movw	r2, #5000	@ 0x1388
 8001f54:	4669      	mov	r1, sp
 8001f56:	4638      	mov	r0, r7
 8001f58:	9502      	str	r5, [sp, #8]
 8001f5a:	9407      	str	r4, [sp, #28]
 8001f5c:	9311      	str	r3, [sp, #68]	@ 0x44
 8001f5e:	f002 f87c 	bl	800405a <HAL_OSPI_Command>
 8001f62:	2800      	cmp	r0, #0
 8001f64:	d1e9      	bne.n	8001f3a <MX25L6433F_ReadDMA+0x50>
 8001f66:	4631      	mov	r1, r6
 8001f68:	4638      	mov	r0, r7
 8001f6a:	f002 f9eb 	bl	8004344 <HAL_OSPI_Receive_DMA>
 8001f6e:	3800      	subs	r0, #0
 8001f70:	bf18      	it	ne
 8001f72:	2001      	movne	r0, #1
 8001f74:	4240      	negs	r0, r0
 8001f76:	e7e2      	b.n	8001f3e <MX25L6433F_ReadDMA+0x54>
 8001f78:	256b      	movs	r5, #107	@ 0x6b
 8001f7a:	f44f 7480 	mov.w	r4, #256	@ 0x100
 8001f7e:	f04f 7040 	mov.w	r0, #50331648	@ 0x3000000
 8001f82:	e7d8      	b.n	8001f36 <MX25L6433F_ReadDMA+0x4c>
 8001f84:	25eb      	movs	r5, #235	@ 0xeb
 8001f86:	f44f 7440 	mov.w	r4, #768	@ 0x300
 8001f8a:	f04f 7040 	mov.w	r0, #50331648	@ 0x3000000
 8001f8e:	2306      	movs	r3, #6
 8001f90:	e7dd      	b.n	8001f4e <MX25L6433F_ReadDMA+0x64>
 8001f92:	250b      	movs	r5, #11
 8001f94:	f44f 7480 	mov.w	r4, #256	@ 0x100
 8001f98:	f04f 7080 	mov.w	r0, #16777216	@ 0x1000000
 8001f9c:	e7cb      	b.n	8001f36 <MX25L6433F_ReadDMA+0x4c>

08001f9e <MX25L6433F_ReadID>:
 8001f9e:	2300      	movs	r3, #0
 8001fa0:	b570      	push	{r4, r5, r6, lr}
 8001fa2:	b096      	sub	sp, #88	@ 0x58
 8001fa4:	460d      	mov	r5, r1
 8001fa6:	6a46      	ldr	r6, [r0, #36]	@ 0x24
 8001fa8:	9301      	str	r3, [sp, #4]
 8001faa:	f7ff ff0e 	bl	8001dca <MX25L6433F_AutoPollingMemReady>
 8001fae:	4604      	mov	r4, r0
 8001fb0:	b120      	cbz	r0, 8001fbc <MX25L6433F_ReadID+0x1e>
 8001fb2:	f04f 34ff 	mov.w	r4, #4294967295
 8001fb6:	4620      	mov	r0, r4
 8001fb8:	b016      	add	sp, #88	@ 0x58
 8001fba:	bd70      	pop	{r4, r5, r6, pc}
 8001fbc:	229f      	movs	r2, #159	@ 0x9f
 8001fbe:	2301      	movs	r3, #1
 8001fc0:	e9cd 2304 	strd	r2, r3, [sp, #16]
 8001fc4:	f04f 7380 	mov.w	r3, #16777216	@ 0x1000000
 8001fc8:	9310      	str	r3, [sp, #64]	@ 0x40
 8001fca:	2303      	movs	r3, #3
 8001fcc:	e9cd 0002 	strd	r0, r0, [sp, #8]
 8001fd0:	e9cd 0006 	strd	r0, r0, [sp, #24]
 8001fd4:	e9cd 0013 	strd	r0, r0, [sp, #76]	@ 0x4c
 8001fd8:	9009      	str	r0, [sp, #36]	@ 0x24
 8001fda:	900d      	str	r0, [sp, #52]	@ 0x34
 8001fdc:	9012      	str	r0, [sp, #72]	@ 0x48
 8001fde:	9015      	str	r0, [sp, #84]	@ 0x54
 8001fe0:	f241 3288 	movw	r2, #5000	@ 0x1388
 8001fe4:	4630      	mov	r0, r6
 8001fe6:	a902      	add	r1, sp, #8
 8001fe8:	9311      	str	r3, [sp, #68]	@ 0x44
 8001fea:	f002 f836 	bl	800405a <HAL_OSPI_Command>
 8001fee:	2800      	cmp	r0, #0
 8001ff0:	d1df      	bne.n	8001fb2 <MX25L6433F_ReadID+0x14>
 8001ff2:	f241 3288 	movw	r2, #5000	@ 0x1388
 8001ff6:	4630      	mov	r0, r6
 8001ff8:	a901      	add	r1, sp, #4
 8001ffa:	f002 f8c1 	bl	8004180 <HAL_OSPI_Receive>
 8001ffe:	2800      	cmp	r0, #0
 8002000:	d1d7      	bne.n	8001fb2 <MX25L6433F_ReadID+0x14>
 8002002:	9b01      	ldr	r3, [sp, #4]
 8002004:	602b      	str	r3, [r5, #0]
 8002006:	e7d6      	b.n	8001fb6 <MX25L6433F_ReadID+0x18>

08002008 <MX25L6433F_EnableMemoryMappedMode>:
 8002008:	b530      	push	{r4, r5, lr}
 800200a:	b097      	sub	sp, #92	@ 0x5c
 800200c:	460c      	mov	r4, r1
 800200e:	6a45      	ldr	r5, [r0, #36]	@ 0x24
 8002010:	f7ff fedb 	bl	8001dca <MX25L6433F_AutoPollingMemReady>
 8002014:	b990      	cbnz	r0, 800203c <MX25L6433F_EnableMemoryMappedMode+0x34>
 8002016:	2301      	movs	r3, #1
 8002018:	e9cd 3002 	strd	r3, r0, [sp, #8]
 800201c:	e9cd 3005 	strd	r3, r0, [sp, #20]
 8002020:	f44f 5300 	mov.w	r3, #8192	@ 0x2000
 8002024:	e9cd 0007 	strd	r0, r0, [sp, #28]
 8002028:	e9cd 300a 	strd	r3, r0, [sp, #40]	@ 0x28
 800202c:	e9cd 0011 	strd	r0, r0, [sp, #68]	@ 0x44
 8002030:	e9cd 0014 	strd	r0, r0, [sp, #80]	@ 0x50
 8002034:	900d      	str	r0, [sp, #52]	@ 0x34
 8002036:	b12c      	cbz	r4, 8002044 <MX25L6433F_EnableMemoryMappedMode+0x3c>
 8002038:	2c04      	cmp	r4, #4
 800203a:	d031      	beq.n	80020a0 <MX25L6433F_EnableMemoryMappedMode+0x98>
 800203c:	f04f 30ff 	mov.w	r0, #4294967295
 8002040:	b017      	add	sp, #92	@ 0x5c
 8002042:	bd30      	pop	{r4, r5, pc}
 8002044:	200b      	movs	r0, #11
 8002046:	f44f 7180 	mov.w	r1, #256	@ 0x100
 800204a:	f04f 7280 	mov.w	r2, #16777216	@ 0x1000000
 800204e:	2308      	movs	r3, #8
 8002050:	9004      	str	r0, [sp, #16]
 8002052:	9109      	str	r1, [sp, #36]	@ 0x24
 8002054:	9210      	str	r2, [sp, #64]	@ 0x40
 8002056:	4628      	mov	r0, r5
 8002058:	f241 3288 	movw	r2, #5000	@ 0x1388
 800205c:	a902      	add	r1, sp, #8
 800205e:	9313      	str	r3, [sp, #76]	@ 0x4c
 8002060:	f001 fffb 	bl	800405a <HAL_OSPI_Command>
 8002064:	2800      	cmp	r0, #0
 8002066:	d1e9      	bne.n	800203c <MX25L6433F_EnableMemoryMappedMode+0x34>
 8002068:	2302      	movs	r3, #2
 800206a:	e9cd 0013 	strd	r0, r0, [sp, #76]	@ 0x4c
 800206e:	9302      	str	r3, [sp, #8]
 8002070:	b114      	cbz	r4, 8002078 <MX25L6433F_EnableMemoryMappedMode+0x70>
 8002072:	2c04      	cmp	r4, #4
 8002074:	d1e2      	bne.n	800203c <MX25L6433F_EnableMemoryMappedMode+0x34>
 8002076:	2338      	movs	r3, #56	@ 0x38
 8002078:	f241 3288 	movw	r2, #5000	@ 0x1388
 800207c:	4628      	mov	r0, r5
 800207e:	a902      	add	r1, sp, #8
 8002080:	9304      	str	r3, [sp, #16]
 8002082:	f001 ffea 	bl	800405a <HAL_OSPI_Command>
 8002086:	2800      	cmp	r0, #0
 8002088:	d1d8      	bne.n	800203c <MX25L6433F_EnableMemoryMappedMode+0x34>
 800208a:	e9cd 0000 	strd	r0, r0, [sp]
 800208e:	4669      	mov	r1, sp
 8002090:	4628      	mov	r0, r5
 8002092:	f002 fa4f 	bl	8004534 <HAL_OSPI_MemoryMapped>
 8002096:	3800      	subs	r0, #0
 8002098:	bf18      	it	ne
 800209a:	2001      	movne	r0, #1
 800209c:	4240      	negs	r0, r0
 800209e:	e7cf      	b.n	8002040 <MX25L6433F_EnableMemoryMappedMode+0x38>
 80020a0:	20eb      	movs	r0, #235	@ 0xeb
 80020a2:	f44f 7140 	mov.w	r1, #768	@ 0x300
 80020a6:	f04f 7240 	mov.w	r2, #50331648	@ 0x3000000
 80020aa:	2306      	movs	r3, #6
 80020ac:	e7d0      	b.n	8002050 <MX25L6433F_EnableMemoryMappedMode+0x48>

080020ae <MX25L6433F_WriteEnable>:
 80020ae:	b530      	push	{r4, r5, lr}
 80020b0:	2206      	movs	r2, #6
 80020b2:	2501      	movs	r5, #1
 80020b4:	2300      	movs	r3, #0
 80020b6:	6a44      	ldr	r4, [r0, #36]	@ 0x24
 80020b8:	b09b      	sub	sp, #108	@ 0x6c
 80020ba:	e9cd 2508 	strd	r2, r5, [sp, #32]
 80020be:	4620      	mov	r0, r4
 80020c0:	f241 3288 	movw	r2, #5000	@ 0x1388
 80020c4:	a906      	add	r1, sp, #24
 80020c6:	e9cd 3306 	strd	r3, r3, [sp, #24]
 80020ca:	e9cd 330a 	strd	r3, r3, [sp, #40]	@ 0x28
 80020ce:	e9cd 3316 	strd	r3, r3, [sp, #88]	@ 0x58
 80020d2:	e9cd 3318 	strd	r3, r3, [sp, #96]	@ 0x60
 80020d6:	930d      	str	r3, [sp, #52]	@ 0x34
 80020d8:	9311      	str	r3, [sp, #68]	@ 0x44
 80020da:	9314      	str	r3, [sp, #80]	@ 0x50
 80020dc:	f001 ffbd 	bl	800405a <HAL_OSPI_Command>
 80020e0:	b118      	cbz	r0, 80020ea <MX25L6433F_WriteEnable+0x3c>
 80020e2:	f04f 30ff 	mov.w	r0, #4294967295
 80020e6:	b01b      	add	sp, #108	@ 0x6c
 80020e8:	bd30      	pop	{r4, r5, pc}
 80020ea:	2305      	movs	r3, #5
 80020ec:	9308      	str	r3, [sp, #32]
 80020ee:	f04f 7380 	mov.w	r3, #16777216	@ 0x1000000
 80020f2:	9314      	str	r3, [sp, #80]	@ 0x50
 80020f4:	f44f 5300 	mov.w	r3, #8192	@ 0x2000
 80020f8:	900c      	str	r0, [sp, #48]	@ 0x30
 80020fa:	f241 3288 	movw	r2, #5000	@ 0x1388
 80020fe:	4620      	mov	r0, r4
 8002100:	a906      	add	r1, sp, #24
 8002102:	930e      	str	r3, [sp, #56]	@ 0x38
 8002104:	9515      	str	r5, [sp, #84]	@ 0x54
 8002106:	f001 ffa8 	bl	800405a <HAL_OSPI_Command>
 800210a:	2800      	cmp	r0, #0
 800210c:	d1e9      	bne.n	80020e2 <MX25L6433F_WriteEnable+0x34>
 800210e:	2302      	movs	r3, #2
 8002110:	2210      	movs	r2, #16
 8002112:	e9cd 3301 	strd	r3, r3, [sp, #4]
 8002116:	f44f 0380 	mov.w	r3, #4194304	@ 0x400000
 800211a:	9003      	str	r0, [sp, #12]
 800211c:	e9cd 3204 	strd	r3, r2, [sp, #16]
 8002120:	4620      	mov	r0, r4
 8002122:	f241 3288 	movw	r2, #5000	@ 0x1388
 8002126:	a901      	add	r1, sp, #4
 8002128:	f002 f9b4 	bl	8004494 <HAL_OSPI_AutoPolling>
 800212c:	3800      	subs	r0, #0
 800212e:	bf18      	it	ne
 8002130:	2001      	movne	r0, #1
 8002132:	4240      	negs	r0, r0
 8002134:	e7d7      	b.n	80020e6 <MX25L6433F_WriteEnable+0x38>

08002136 <MX25L6433F_PageProgram>:
 8002136:	e92d 41f0 	stmdb	sp!, {r4, r5, r6, r7, r8, lr}
 800213a:	b094      	sub	sp, #80	@ 0x50
 800213c:	4604      	mov	r4, r0
 800213e:	460d      	mov	r5, r1
 8002140:	4616      	mov	r6, r2
 8002142:	461f      	mov	r7, r3
 8002144:	f8d0 8024 	ldr.w	r8, [r0, #36]	@ 0x24
 8002148:	f7ff fe3f 	bl	8001dca <MX25L6433F_AutoPollingMemReady>
 800214c:	b9c0      	cbnz	r0, 8002180 <MX25L6433F_PageProgram+0x4a>
 800214e:	4620      	mov	r0, r4
 8002150:	f7ff ffad 	bl	80020ae <MX25L6433F_WriteEnable>
 8002154:	b9a0      	cbnz	r0, 8002180 <MX25L6433F_PageProgram+0x4a>
 8002156:	2301      	movs	r3, #1
 8002158:	e9cd 3003 	strd	r3, r0, [sp, #12]
 800215c:	f44f 5300 	mov.w	r3, #8192	@ 0x2000
 8002160:	e9cd 3008 	strd	r3, r0, [sp, #32]
 8002164:	9b1a      	ldr	r3, [sp, #104]	@ 0x68
 8002166:	e9cd 0000 	strd	r0, r0, [sp]
 800216a:	e9cd 0705 	strd	r0, r7, [sp, #20]
 800216e:	e9cd 0011 	strd	r0, r0, [sp, #68]	@ 0x44
 8002172:	900b      	str	r0, [sp, #44]	@ 0x2c
 8002174:	9010      	str	r0, [sp, #64]	@ 0x40
 8002176:	930f      	str	r3, [sp, #60]	@ 0x3c
 8002178:	9013      	str	r0, [sp, #76]	@ 0x4c
 800217a:	b135      	cbz	r5, 800218a <MX25L6433F_PageProgram+0x54>
 800217c:	2d04      	cmp	r5, #4
 800217e:	d020      	beq.n	80021c2 <MX25L6433F_PageProgram+0x8c>
 8002180:	f04f 30ff 	mov.w	r0, #4294967295
 8002184:	b014      	add	sp, #80	@ 0x50
 8002186:	e8bd 81f0 	ldmia.w	sp!, {r4, r5, r6, r7, r8, pc}
 800218a:	2102      	movs	r1, #2
 800218c:	f44f 7280 	mov.w	r2, #256	@ 0x100
 8002190:	f04f 7380 	mov.w	r3, #16777216	@ 0x1000000
 8002194:	9102      	str	r1, [sp, #8]
 8002196:	9207      	str	r2, [sp, #28]
 8002198:	4669      	mov	r1, sp
 800219a:	f241 3288 	movw	r2, #5000	@ 0x1388
 800219e:	4640      	mov	r0, r8
 80021a0:	930e      	str	r3, [sp, #56]	@ 0x38
 80021a2:	f001 ff5a 	bl	800405a <HAL_OSPI_Command>
 80021a6:	2800      	cmp	r0, #0
 80021a8:	d1ea      	bne.n	8002180 <MX25L6433F_PageProgram+0x4a>
 80021aa:	f241 3288 	movw	r2, #5000	@ 0x1388
 80021ae:	4631      	mov	r1, r6
 80021b0:	4640      	mov	r0, r8
 80021b2:	f001 ffa1 	bl	80040f8 <HAL_OSPI_Transmit>
 80021b6:	2800      	cmp	r0, #0
 80021b8:	d1e2      	bne.n	8002180 <MX25L6433F_PageProgram+0x4a>
 80021ba:	4620      	mov	r0, r4
 80021bc:	f7ff fe05 	bl	8001dca <MX25L6433F_AutoPollingMemReady>
 80021c0:	e7e0      	b.n	8002184 <MX25L6433F_PageProgram+0x4e>
 80021c2:	2138      	movs	r1, #56	@ 0x38
 80021c4:	f44f 7240 	mov.w	r2, #768	@ 0x300
 80021c8:	f04f 7340 	mov.w	r3, #50331648	@ 0x3000000
 80021cc:	e7e2      	b.n	8002194 <MX25L6433F_PageProgram+0x5e>

080021ce <MX25L6433F_PageProgramDMA>:
 80021ce:	e92d 41f0 	stmdb	sp!, {r4, r5, r6, r7, r8, lr}
 80021d2:	b094      	sub	sp, #80	@ 0x50
 80021d4:	4605      	mov	r5, r0
 80021d6:	460c      	mov	r4, r1
 80021d8:	4616      	mov	r6, r2
 80021da:	461f      	mov	r7, r3
 80021dc:	f8d0 8024 	ldr.w	r8, [r0, #36]	@ 0x24
 80021e0:	f7ff fdf3 	bl	8001dca <MX25L6433F_AutoPollingMemReady>
 80021e4:	b9c0      	cbnz	r0, 8002218 <MX25L6433F_PageProgramDMA+0x4a>
 80021e6:	4628      	mov	r0, r5
 80021e8:	f7ff ff61 	bl	80020ae <MX25L6433F_WriteEnable>
 80021ec:	b9a0      	cbnz	r0, 8002218 <MX25L6433F_PageProgramDMA+0x4a>
 80021ee:	2301      	movs	r3, #1
 80021f0:	e9cd 3003 	strd	r3, r0, [sp, #12]
 80021f4:	f44f 5300 	mov.w	r3, #8192	@ 0x2000
 80021f8:	e9cd 3008 	strd	r3, r0, [sp, #32]
 80021fc:	9b1a      	ldr	r3, [sp, #104]	@ 0x68
 80021fe:	e9cd 0000 	strd	r0, r0, [sp]
 8002202:	e9cd 0705 	strd	r0, r7, [sp, #20]
 8002206:	e9cd 0011 	strd	r0, r0, [sp, #68]	@ 0x44
 800220a:	900b      	str	r0, [sp, #44]	@ 0x2c
 800220c:	9010      	str	r0, [sp, #64]	@ 0x40
 800220e:	930f      	str	r3, [sp, #60]	@ 0x3c
 8002210:	9013      	str	r0, [sp, #76]	@ 0x4c
 8002212:	b134      	cbz	r4, 8002222 <MX25L6433F_PageProgramDMA+0x54>
 8002214:	2c04      	cmp	r4, #4
 8002216:	d01d      	beq.n	8002254 <MX25L6433F_PageProgramDMA+0x86>
 8002218:	f04f 30ff 	mov.w	r0, #4294967295
 800221c:	b014      	add	sp, #80	@ 0x50
 800221e:	e8bd 81f0 	ldmia.w	sp!, {r4, r5, r6, r7, r8, pc}
 8002222:	2102      	movs	r1, #2
 8002224:	f44f 7280 	mov.w	r2, #256	@ 0x100
 8002228:	f04f 7380 	mov.w	r3, #16777216	@ 0x1000000
 800222c:	9102      	str	r1, [sp, #8]
 800222e:	9207      	str	r2, [sp, #28]
 8002230:	4669      	mov	r1, sp
 8002232:	f241 3288 	movw	r2, #5000	@ 0x1388
 8002236:	4640      	mov	r0, r8
 8002238:	930e      	str	r3, [sp, #56]	@ 0x38
 800223a:	f001 ff0e 	bl	800405a <HAL_OSPI_Command>
 800223e:	2800      	cmp	r0, #0
 8002240:	d1ea      	bne.n	8002218 <MX25L6433F_PageProgramDMA+0x4a>
 8002242:	4631      	mov	r1, r6
 8002244:	4640      	mov	r0, r8
 8002246:	f001 fff1 	bl	800422c <HAL_OSPI_Transmit_DMA>
 800224a:	3800      	subs	r0, #0
 800224c:	bf18      	it	ne
 800224e:	2001      	movne	r0, #1
 8002250:	4240      	negs	r0, r0
 8002252:	e7e3      	b.n	800221c <MX25L6433F_PageProgramDMA+0x4e>
 8002254:	2138      	movs	r1, #56	@ 0x38
 8002256:	f44f 7240 	mov.w	r2, #768	@ 0x300
 800225a:	f04f 7340 	mov.w	r3, #50331648	@ 0x3000000
 800225e:	e7e5      	b.n	800222c <MX25L6433F_PageProgramDMA+0x5e>

08002260 <MX25L6433F_BlockErase>:
 8002260:	b5f0      	push	{r4, r5, r6, r7, lr}
 8002262:	b09b      	sub	sp, #108	@ 0x6c
 8002264:	4606      	mov	r6, r0
 8002266:	460f      	mov	r7, r1
 8002268:	4614      	mov	r4, r2
 800226a:	6a45      	ldr	r5, [r0, #36]	@ 0x24
 800226c:	f7ff fdad 	bl	8001dca <MX25L6433F_AutoPollingMemReady>
 8002270:	b9f0      	cbnz	r0, 80022b0 <MX25L6433F_BlockErase+0x50>
 8002272:	4630      	mov	r0, r6
 8002274:	f7ff ff1b 	bl	80020ae <MX25L6433F_WriteEnable>
 8002278:	b9d0      	cbnz	r0, 80022b0 <MX25L6433F_BlockErase+0x50>
 800227a:	2301      	movs	r3, #1
 800227c:	f44f 7180 	mov.w	r1, #256	@ 0x100
 8002280:	e9cd 3009 	strd	r3, r0, [sp, #36]	@ 0x24
 8002284:	f44f 5300 	mov.w	r3, #8192	@ 0x2000
 8002288:	2c01      	cmp	r4, #1
 800228a:	e9cd 0006 	strd	r0, r0, [sp, #24]
 800228e:	e9cd 070b 	strd	r0, r7, [sp, #44]	@ 0x2c
 8002292:	e9cd 130d 	strd	r1, r3, [sp, #52]	@ 0x34
 8002296:	e9cd 0015 	strd	r0, r0, [sp, #84]	@ 0x54
 800229a:	e9cd 0017 	strd	r0, r0, [sp, #92]	@ 0x5c
 800229e:	900f      	str	r0, [sp, #60]	@ 0x3c
 80022a0:	9011      	str	r0, [sp, #68]	@ 0x44
 80022a2:	9014      	str	r0, [sp, #80]	@ 0x50
 80022a4:	9019      	str	r0, [sp, #100]	@ 0x64
 80022a6:	d007      	beq.n	80022b8 <MX25L6433F_BlockErase+0x58>
 80022a8:	2c02      	cmp	r4, #2
 80022aa:	d033      	beq.n	8002314 <MX25L6433F_BlockErase+0xb4>
 80022ac:	2c00      	cmp	r4, #0
 80022ae:	d033      	beq.n	8002318 <MX25L6433F_BlockErase+0xb8>
 80022b0:	f04f 30ff 	mov.w	r0, #4294967295
 80022b4:	b01b      	add	sp, #108	@ 0x6c
 80022b6:	bdf0      	pop	{r4, r5, r6, r7, pc}
 80022b8:	2352      	movs	r3, #82	@ 0x52
 80022ba:	f241 3288 	movw	r2, #5000	@ 0x1388
 80022be:	4628      	mov	r0, r5
 80022c0:	a906      	add	r1, sp, #24
 80022c2:	9308      	str	r3, [sp, #32]
 80022c4:	f001 fec9 	bl	800405a <HAL_OSPI_Command>
 80022c8:	2800      	cmp	r0, #0
 80022ca:	d1f1      	bne.n	80022b0 <MX25L6433F_BlockErase+0x50>
 80022cc:	2305      	movs	r3, #5
 80022ce:	2401      	movs	r4, #1
 80022d0:	9308      	str	r3, [sp, #32]
 80022d2:	f04f 7380 	mov.w	r3, #16777216	@ 0x1000000
 80022d6:	e9cd 000c 	strd	r0, r0, [sp, #48]	@ 0x30
 80022da:	f241 3288 	movw	r2, #5000	@ 0x1388
 80022de:	4628      	mov	r0, r5
 80022e0:	a906      	add	r1, sp, #24
 80022e2:	e9cd 3414 	strd	r3, r4, [sp, #80]	@ 0x50
 80022e6:	f001 feb8 	bl	800405a <HAL_OSPI_Command>
 80022ea:	2800      	cmp	r0, #0
 80022ec:	d1e0      	bne.n	80022b0 <MX25L6433F_BlockErase+0x50>
 80022ee:	f44f 0380 	mov.w	r3, #4194304	@ 0x400000
 80022f2:	2210      	movs	r2, #16
 80022f4:	e9cd 0401 	strd	r0, r4, [sp, #4]
 80022f8:	e9cd 3204 	strd	r3, r2, [sp, #16]
 80022fc:	9003      	str	r0, [sp, #12]
 80022fe:	f44f 727a 	mov.w	r2, #1000	@ 0x3e8
 8002302:	4628      	mov	r0, r5
 8002304:	a901      	add	r1, sp, #4
 8002306:	f002 f8c5 	bl	8004494 <HAL_OSPI_AutoPolling>
 800230a:	3800      	subs	r0, #0
 800230c:	bf18      	it	ne
 800230e:	2001      	movne	r0, #1
 8002310:	4240      	negs	r0, r0
 8002312:	e7cf      	b.n	80022b4 <MX25L6433F_BlockErase+0x54>
 8002314:	23d8      	movs	r3, #216	@ 0xd8
 8002316:	e7d0      	b.n	80022ba <MX25L6433F_BlockErase+0x5a>
 8002318:	2320      	movs	r3, #32
 800231a:	e7ce      	b.n	80022ba <MX25L6433F_BlockErase+0x5a>

0800231c <MX25L6433F_ChipErase>:
 800231c:	b530      	push	{r4, r5, lr}
 800231e:	b09b      	sub	sp, #108	@ 0x6c
 8002320:	4604      	mov	r4, r0
 8002322:	6a45      	ldr	r5, [r0, #36]	@ 0x24
 8002324:	f7ff fd51 	bl	8001dca <MX25L6433F_AutoPollingMemReady>
 8002328:	b118      	cbz	r0, 8002332 <MX25L6433F_ChipErase+0x16>
 800232a:	f04f 30ff 	mov.w	r0, #4294967295
 800232e:	b01b      	add	sp, #108	@ 0x6c
 8002330:	bd30      	pop	{r4, r5, pc}
 8002332:	4620      	mov	r0, r4
 8002334:	f7ff febb 	bl	80020ae <MX25L6433F_WriteEnable>
 8002338:	2800      	cmp	r0, #0
 800233a:	d1f6      	bne.n	800232a <MX25L6433F_ChipErase+0xe>
 800233c:	2401      	movs	r4, #1
 800233e:	23c7      	movs	r3, #199	@ 0xc7
 8002340:	e9cd 0006 	strd	r0, r0, [sp, #24]
 8002344:	e9cd 4009 	strd	r4, r0, [sp, #36]	@ 0x24
 8002348:	e9cd 000c 	strd	r0, r0, [sp, #48]	@ 0x30
 800234c:	e9cd 0015 	strd	r0, r0, [sp, #84]	@ 0x54
 8002350:	e9cd 0017 	strd	r0, r0, [sp, #92]	@ 0x5c
 8002354:	900b      	str	r0, [sp, #44]	@ 0x2c
 8002356:	900f      	str	r0, [sp, #60]	@ 0x3c
 8002358:	9011      	str	r0, [sp, #68]	@ 0x44
 800235a:	9014      	str	r0, [sp, #80]	@ 0x50
 800235c:	9019      	str	r0, [sp, #100]	@ 0x64
 800235e:	f241 3288 	movw	r2, #5000	@ 0x1388
 8002362:	4628      	mov	r0, r5
 8002364:	a906      	add	r1, sp, #24
 8002366:	9308      	str	r3, [sp, #32]
 8002368:	f001 fe77 	bl	800405a <HAL_OSPI_Command>
 800236c:	2800      	cmp	r0, #0
 800236e:	d1dc      	bne.n	800232a <MX25L6433F_ChipErase+0xe>
 8002370:	2305      	movs	r3, #5
 8002372:	9308      	str	r3, [sp, #32]
 8002374:	f04f 7380 	mov.w	r3, #16777216	@ 0x1000000
 8002378:	900d      	str	r0, [sp, #52]	@ 0x34
 800237a:	f241 3288 	movw	r2, #5000	@ 0x1388
 800237e:	4628      	mov	r0, r5
 8002380:	a906      	add	r1, sp, #24
 8002382:	e9cd 3414 	strd	r3, r4, [sp, #80]	@ 0x50
 8002386:	f001 fe68 	bl	800405a <HAL_OSPI_Command>
 800238a:	2800      	cmp	r0, #0
 800238c:	d1cd      	bne.n	800232a <MX25L6433F_ChipErase+0xe>
 800238e:	f44f 0380 	mov.w	r3, #4194304	@ 0x400000
 8002392:	2210      	movs	r2, #16
 8002394:	e9cd 0401 	strd	r0, r4, [sp, #4]
 8002398:	e9cd 3204 	strd	r3, r2, [sp, #16]
 800239c:	9003      	str	r0, [sp, #12]
 800239e:	f64e 2260 	movw	r2, #60000	@ 0xea60
 80023a2:	4628      	mov	r0, r5
 80023a4:	a901      	add	r1, sp, #4
 80023a6:	f002 f875 	bl	8004494 <HAL_OSPI_AutoPolling>
 80023aa:	3800      	subs	r0, #0
 80023ac:	bf18      	it	ne
 80023ae:	2001      	movne	r0, #1
 80023b0:	4240      	negs	r0, r0
 80023b2:	e7bc      	b.n	800232e <MX25L6433F_ChipErase+0x12>

080023b4 <MX25L6433F_EnableQuadMode>:
 80023b4:	2300      	movs	r3, #0
 80023b6:	e92d 41f0 	stmdb	sp!, {r4, r5, r6, r7, r8, lr}
 80023ba:	b09a      	sub	sp, #104	@ 0x68
 80023bc:	4605      	mov	r5, r0
 80023be:	6a46      	ldr	r6, [r0, #36]	@ 0x24
 80023c0:	f88d 3003 	strb.w	r3, [sp, #3]
 80023c4:	f7ff fd01 	bl	8001dca <MX25L6433F_AutoPollingMemReady>
 80023c8:	4604      	mov	r4, r0
 80023ca:	b128      	cbz	r0, 80023d8 <MX25L6433F_EnableQuadMode+0x24>
 80023cc:	f04f 34ff 	mov.w	r4, #4294967295
 80023d0:	4620      	mov	r0, r4
 80023d2:	b01a      	add	sp, #104	@ 0x68
 80023d4:	e8bd 81f0 	ldmia.w	sp!, {r4, r5, r6, r7, r8, pc}
 80023d8:	2701      	movs	r7, #1
 80023da:	f04f 0805 	mov.w	r8, #5
 80023de:	f04f 7380 	mov.w	r3, #16777216	@ 0x1000000
 80023e2:	e9cd 0006 	strd	r0, r0, [sp, #24]
 80023e6:	e9cd 000a 	strd	r0, r0, [sp, #40]	@ 0x28
 80023ea:	e9cd 7015 	strd	r7, r0, [sp, #84]	@ 0x54
 80023ee:	e9cd 0017 	strd	r0, r0, [sp, #92]	@ 0x5c
 80023f2:	900d      	str	r0, [sp, #52]	@ 0x34
 80023f4:	9011      	str	r0, [sp, #68]	@ 0x44
 80023f6:	9019      	str	r0, [sp, #100]	@ 0x64
 80023f8:	f241 3288 	movw	r2, #5000	@ 0x1388
 80023fc:	4630      	mov	r0, r6
 80023fe:	a906      	add	r1, sp, #24
 8002400:	e9cd 8708 	strd	r8, r7, [sp, #32]
 8002404:	9314      	str	r3, [sp, #80]	@ 0x50
 8002406:	f001 fe28 	bl	800405a <HAL_OSPI_Command>
 800240a:	2800      	cmp	r0, #0
 800240c:	d1de      	bne.n	80023cc <MX25L6433F_EnableQuadMode+0x18>
 800240e:	f241 3288 	movw	r2, #5000	@ 0x1388
 8002412:	4630      	mov	r0, r6
 8002414:	f10d 0103 	add.w	r1, sp, #3
 8002418:	f001 feb2 	bl	8004180 <HAL_OSPI_Receive>
 800241c:	2800      	cmp	r0, #0
 800241e:	d1d5      	bne.n	80023cc <MX25L6433F_EnableQuadMode+0x18>
 8002420:	f89d 3003 	ldrb.w	r3, [sp, #3]
 8002424:	0659      	lsls	r1, r3, #25
 8002426:	d4d3      	bmi.n	80023d0 <MX25L6433F_EnableQuadMode+0x1c>
 8002428:	4628      	mov	r0, r5
 800242a:	f7ff fe40 	bl	80020ae <MX25L6433F_WriteEnable>
 800242e:	2800      	cmp	r0, #0
 8002430:	d1cc      	bne.n	80023cc <MX25L6433F_EnableQuadMode+0x18>
 8002432:	f89d 3003 	ldrb.w	r3, [sp, #3]
 8002436:	f241 3288 	movw	r2, #5000	@ 0x1388
 800243a:	f043 0340 	orr.w	r3, r3, #64	@ 0x40
 800243e:	4630      	mov	r0, r6
 8002440:	a906      	add	r1, sp, #24
 8002442:	f88d 3003 	strb.w	r3, [sp, #3]
 8002446:	9708      	str	r7, [sp, #32]
 8002448:	f001 fe07 	bl	800405a <HAL_OSPI_Command>
 800244c:	2800      	cmp	r0, #0
 800244e:	d1bd      	bne.n	80023cc <MX25L6433F_EnableQuadMode+0x18>
 8002450:	f241 3288 	movw	r2, #5000	@ 0x1388
 8002454:	4630      	mov	r0, r6
 8002456:	f10d 0103 	add.w	r1, sp, #3
 800245a:	f001 fe4d 	bl	80040f8 <HAL_OSPI_Transmit>
 800245e:	2800      	cmp	r0, #0
 8002460:	d1b4      	bne.n	80023cc <MX25L6433F_EnableQuadMode+0x18>
 8002462:	f241 3288 	movw	r2, #5000	@ 0x1388
 8002466:	4630      	mov	r0, r6
 8002468:	a906      	add	r1, sp, #24
 800246a:	f8cd 8020 	str.w	r8, [sp, #32]
 800246e:	f001 fdf4 	bl	800405a <HAL_OSPI_Command>
 8002472:	2800      	cmp	r0, #0
 8002474:	d1aa      	bne.n	80023cc <MX25L6433F_EnableQuadMode+0x18>
 8002476:	2340      	movs	r3, #64	@ 0x40
 8002478:	2210      	movs	r2, #16
 800247a:	e9cd 3301 	strd	r3, r3, [sp, #4]
 800247e:	f44f 0380 	mov.w	r3, #4194304	@ 0x400000
 8002482:	4630      	mov	r0, r6
 8002484:	e9cd 3204 	strd	r3, r2, [sp, #16]
 8002488:	a901      	add	r1, sp, #4
 800248a:	f241 3288 	movw	r2, #5000	@ 0x1388
 800248e:	9403      	str	r4, [sp, #12]
 8002490:	f002 f800 	bl	8004494 <HAL_OSPI_AutoPolling>
 8002494:	1e04      	subs	r4, r0, #0
 8002496:	bf18      	it	ne
 8002498:	2401      	movne	r4, #1
 800249a:	4264      	negs	r4, r4
 800249c:	e798      	b.n	80023d0 <MX25L6433F_EnableQuadMode+0x1c>

0800249e <MX25L6433F_Init>:
 800249e:	b510      	push	{r4, lr}
 80024a0:	4604      	mov	r4, r0
 80024a2:	b190      	cbz	r0, 80024ca <MX25L6433F_Init+0x2c>
 80024a4:	f890 3020 	ldrb.w	r3, [r0, #32]
 80024a8:	b96b      	cbnz	r3, 80024c6 <MX25L6433F_Init+0x28>
 80024aa:	f7ff fc36 	bl	8001d1a <MX25L6433F_ResetEnable>
 80024ae:	b958      	cbnz	r0, 80024c8 <MX25L6433F_Init+0x2a>
 80024b0:	4620      	mov	r0, r4
 80024b2:	f7ff fc51 	bl	8001d58 <MX25L6433F_ResetMemory>
 80024b6:	b938      	cbnz	r0, 80024c8 <MX25L6433F_Init+0x2a>
 80024b8:	4620      	mov	r0, r4
 80024ba:	f7ff ff7b 	bl	80023b4 <MX25L6433F_EnableQuadMode>
 80024be:	b918      	cbnz	r0, 80024c8 <MX25L6433F_Init+0x2a>
 80024c0:	2301      	movs	r3, #1
 80024c2:	f884 3020 	strb.w	r3, [r4, #32]
 80024c6:	2000      	movs	r0, #0
 80024c8:	bd10      	pop	{r4, pc}
 80024ca:	f04f 30ff 	mov.w	r0, #4294967295
 80024ce:	e7fb      	b.n	80024c8 <MX25L6433F_Init+0x2a>

080024d0 <ST7789V_DeInit>:
 80024d0:	6843      	ldr	r3, [r0, #4]
 80024d2:	4718      	bx	r3

080024d4 <ST7789V_GetOrientation>:
 80024d4:	4b02      	ldr	r3, [pc, #8]	@ (80024e0 <ST7789V_GetOrientation+0xc>)
 80024d6:	2000      	movs	r0, #0
 80024d8:	689b      	ldr	r3, [r3, #8]
 80024da:	600b      	str	r3, [r1, #0]
 80024dc:	4770      	bx	lr
 80024de:	bf00      	nop
 80024e0:	2000cc70 	.word	0x2000cc70

080024e4 <ST7789V_GetXSize>:
 80024e4:	4b02      	ldr	r3, [pc, #8]	@ (80024f0 <ST7789V_GetXSize+0xc>)
 80024e6:	2000      	movs	r0, #0
 80024e8:	681b      	ldr	r3, [r3, #0]
 80024ea:	600b      	str	r3, [r1, #0]
 80024ec:	4770      	bx	lr
 80024ee:	bf00      	nop
 80024f0:	2000cc70 	.word	0x2000cc70

080024f4 <ST7789V_GetYSize>:
 80024f4:	4b02      	ldr	r3, [pc, #8]	@ (8002500 <ST7789V_GetYSize+0xc>)
 80024f6:	2000      	movs	r0, #0
 80024f8:	685b      	ldr	r3, [r3, #4]
 80024fa:	600b      	str	r3, [r1, #0]
 80024fc:	4770      	bx	lr
 80024fe:	bf00      	nop
 8002500:	2000cc70 	.word	0x2000cc70

08002504 <ST7789V_ReadRegWrap>:
 8002504:	4603      	mov	r3, r0
 8002506:	4608      	mov	r0, r1
 8002508:	691b      	ldr	r3, [r3, #16]
 800250a:	4611      	mov	r1, r2
 800250c:	4718      	bx	r3

0800250e <ST7789V_WriteRegWrap>:
 800250e:	4603      	mov	r3, r0
 8002510:	4608      	mov	r0, r1
 8002512:	68db      	ldr	r3, [r3, #12]
 8002514:	4611      	mov	r1, r2
 8002516:	4718      	bx	r3

08002518 <ST7789V_SendDataWrap>:
 8002518:	4603      	mov	r3, r0
 800251a:	4608      	mov	r0, r1
 800251c:	695b      	ldr	r3, [r3, #20]
 800251e:	4611      	mov	r1, r2
 8002520:	4718      	bx	r3

08002522 <ST7789V_SendDataDMAWrap>:
 8002522:	4603      	mov	r3, r0
 8002524:	4608      	mov	r0, r1
 8002526:	699b      	ldr	r3, [r3, #24]
 8002528:	4611      	mov	r1, r2
 800252a:	4718      	bx	r3

0800252c <ST7789V_RecvDataWrap>:
 800252c:	4603      	mov	r3, r0
 800252e:	4608      	mov	r0, r1
 8002530:	69db      	ldr	r3, [r3, #28]
 8002532:	4611      	mov	r1, r2
 8002534:	4718      	bx	r3

08002536 <ST7789V_RecvDataDMAWrap>:
 8002536:	4603      	mov	r3, r0
 8002538:	4608      	mov	r0, r1
 800253a:	6a1b      	ldr	r3, [r3, #32]
 800253c:	4611      	mov	r1, r2
 800253e:	4718      	bx	r3

08002540 <ST7789V_DisplayOn>:
 8002540:	2329      	movs	r3, #41	@ 0x29
 8002542:	b507      	push	{r0, r1, r2, lr}
 8002544:	2201      	movs	r2, #1
 8002546:	f10d 0107 	add.w	r1, sp, #7
 800254a:	302c      	adds	r0, #44	@ 0x2c
 800254c:	f88d 3007 	strb.w	r3, [sp, #7]
 8002550:	f000 fb74 	bl	8002c3c <st7789v_write_reg>
 8002554:	b003      	add	sp, #12
 8002556:	f85d fb04 	ldr.w	pc, [sp], #4

0800255a <ST7789V_DisplayOff>:
 800255a:	2328      	movs	r3, #40	@ 0x28
 800255c:	b507      	push	{r0, r1, r2, lr}
 800255e:	2201      	movs	r2, #1
 8002560:	f10d 0107 	add.w	r1, sp, #7
 8002564:	302c      	adds	r0, #44	@ 0x2c
 8002566:	f88d 3007 	strb.w	r3, [sp, #7]
 800256a:	f000 fb67 	bl	8002c3c <st7789v_write_reg>
 800256e:	b003      	add	sp, #12
 8002570:	f85d fb04 	ldr.w	pc, [sp], #4

08002574 <ST7789V_SetOrientation>:
 8002574:	b5f7      	push	{r0, r1, r2, r4, r5, r6, r7, lr}
 8002576:	4b17      	ldr	r3, [pc, #92]	@ (80025d4 <ST7789V_SetOrientation+0x60>)
 8002578:	f100 072c 	add.w	r7, r0, #44	@ 0x2c
 800257c:	f813 3021 	ldrb.w	r3, [r3, r1, lsl #2]
 8002580:	2201      	movs	r2, #1
 8002582:	f88d 3007 	strb.w	r3, [sp, #7]
 8002586:	2336      	movs	r3, #54	@ 0x36
 8002588:	4605      	mov	r5, r0
 800258a:	460e      	mov	r6, r1
 800258c:	4638      	mov	r0, r7
 800258e:	f10d 0106 	add.w	r1, sp, #6
 8002592:	f88d 3006 	strb.w	r3, [sp, #6]
 8002596:	f000 fb51 	bl	8002c3c <st7789v_write_reg>
 800259a:	2201      	movs	r2, #1
 800259c:	4604      	mov	r4, r0
 800259e:	f10d 0107 	add.w	r1, sp, #7
 80025a2:	4638      	mov	r0, r7
 80025a4:	f000 fb4d 	bl	8002c42 <st7789v_send_data>
 80025a8:	1820      	adds	r0, r4, r0
 80025aa:	d10f      	bne.n	80025cc <ST7789V_SetOrientation+0x58>
 80025ac:	1eb3      	subs	r3, r6, #2
 80025ae:	2b02      	cmp	r3, #2
 80025b0:	bf35      	itete	cc
 80025b2:	f44f 71a0 	movcc.w	r1, #320	@ 0x140
 80025b6:	21f0      	movcs	r1, #240	@ 0xf0
 80025b8:	22f0      	movcc	r2, #240	@ 0xf0
 80025ba:	f44f 72a0 	movcs.w	r2, #320	@ 0x140
 80025be:	4b06      	ldr	r3, [pc, #24]	@ (80025d8 <ST7789V_SetOrientation+0x64>)
 80025c0:	e9c5 1213 	strd	r1, r2, [r5, #76]	@ 0x4c
 80025c4:	e883 0046 	stmia.w	r3, {r1, r2, r6}
 80025c8:	b003      	add	sp, #12
 80025ca:	bdf0      	pop	{r4, r5, r6, r7, pc}
 80025cc:	f04f 30ff 	mov.w	r0, #4294967295
 80025d0:	e7fa      	b.n	80025c8 <ST7789V_SetOrientation+0x54>
 80025d2:	bf00      	nop
 80025d4:	20000098 	.word	0x20000098
 80025d8:	2000cc70 	.word	0x2000cc70

080025dc <ST7789V_SetDisplayWindow>:
 80025dc:	e92d 41f3 	stmdb	sp!, {r0, r1, r4, r5, r6, r7, r8, lr}
 80025e0:	460e      	mov	r6, r1
 80025e2:	4698      	mov	r8, r3
 80025e4:	232a      	movs	r3, #42	@ 0x2a
 80025e6:	f100 072c 	add.w	r7, r0, #44	@ 0x2c
 80025ea:	4615      	mov	r5, r2
 80025ec:	f10d 0103 	add.w	r1, sp, #3
 80025f0:	2201      	movs	r2, #1
 80025f2:	4638      	mov	r0, r7
 80025f4:	f88d 3003 	strb.w	r3, [sp, #3]
 80025f8:	f000 fb20 	bl	8002c3c <st7789v_write_reg>
 80025fc:	f3c6 2307 	ubfx	r3, r6, #8, #8
 8002600:	f88d 3004 	strb.w	r3, [sp, #4]
 8002604:	b2f2      	uxtb	r2, r6
 8002606:	f108 33ff 	add.w	r3, r8, #4294967295
 800260a:	f88d 2005 	strb.w	r2, [sp, #5]
 800260e:	441e      	add	r6, r3
 8002610:	441a      	add	r2, r3
 8002612:	f3c6 2607 	ubfx	r6, r6, #8, #8
 8002616:	b2d2      	uxtb	r2, r2
 8002618:	f88d 6006 	strb.w	r6, [sp, #6]
 800261c:	f88d 2007 	strb.w	r2, [sp, #7]
 8002620:	2204      	movs	r2, #4
 8002622:	4604      	mov	r4, r0
 8002624:	eb0d 0102 	add.w	r1, sp, r2
 8002628:	4638      	mov	r0, r7
 800262a:	f000 fb0a 	bl	8002c42 <st7789v_send_data>
 800262e:	232b      	movs	r3, #43	@ 0x2b
 8002630:	f10d 0103 	add.w	r1, sp, #3
 8002634:	2201      	movs	r2, #1
 8002636:	4404      	add	r4, r0
 8002638:	4638      	mov	r0, r7
 800263a:	f88d 3003 	strb.w	r3, [sp, #3]
 800263e:	f000 fafd 	bl	8002c3c <st7789v_write_reg>
 8002642:	9a08      	ldr	r2, [sp, #32]
 8002644:	f3c5 2307 	ubfx	r3, r5, #8, #8
 8002648:	f88d 3004 	strb.w	r3, [sp, #4]
 800264c:	3a01      	subs	r2, #1
 800264e:	b2eb      	uxtb	r3, r5
 8002650:	f88d 3005 	strb.w	r3, [sp, #5]
 8002654:	4415      	add	r5, r2
 8002656:	4413      	add	r3, r2
 8002658:	2204      	movs	r2, #4
 800265a:	b2db      	uxtb	r3, r3
 800265c:	eb0d 0102 	add.w	r1, sp, r2
 8002660:	4404      	add	r4, r0
 8002662:	f3c5 2507 	ubfx	r5, r5, #8, #8
 8002666:	4638      	mov	r0, r7
 8002668:	f88d 5006 	strb.w	r5, [sp, #6]
 800266c:	f88d 3007 	strb.w	r3, [sp, #7]
 8002670:	f000 fae7 	bl	8002c42 <st7789v_send_data>
 8002674:	232c      	movs	r3, #44	@ 0x2c
 8002676:	4404      	add	r4, r0
 8002678:	2201      	movs	r2, #1
 800267a:	4638      	mov	r0, r7
 800267c:	f10d 0103 	add.w	r1, sp, #3
 8002680:	f88d 3003 	strb.w	r3, [sp, #3]
 8002684:	f000 fada 	bl	8002c3c <st7789v_write_reg>
 8002688:	42c4      	cmn	r4, r0
 800268a:	bf14      	ite	ne
 800268c:	f04f 30ff 	movne.w	r0, #4294967295
 8002690:	2000      	moveq	r0, #0
 8002692:	b002      	add	sp, #8
 8002694:	e8bd 81f0 	ldmia.w	sp!, {r4, r5, r6, r7, r8, pc}

08002698 <ST7789V_ReadID>:
 8002698:	2204      	movs	r2, #4
 800269a:	b513      	push	{r0, r1, r4, lr}
 800269c:	460c      	mov	r4, r1
 800269e:	302c      	adds	r0, #44	@ 0x2c
 80026a0:	eb0d 0102 	add.w	r1, sp, r2
 80026a4:	9201      	str	r2, [sp, #4]
 80026a6:	f000 facf 	bl	8002c48 <st7789v_recv_data>
 80026aa:	2800      	cmp	r0, #0
 80026ac:	d14b      	bne.n	8002746 <ST7789V_ReadID+0xae>
 80026ae:	f89d 3006 	ldrb.w	r3, [sp, #6]
 80026b2:	f89d 2005 	ldrb.w	r2, [sp, #5]
 80026b6:	021b      	lsls	r3, r3, #8
 80026b8:	ea43 4302 	orr.w	r3, r3, r2, lsl #16
 80026bc:	f89d 2007 	ldrb.w	r2, [sp, #7]
 80026c0:	4313      	orrs	r3, r2
 80026c2:	4a22      	ldr	r2, [pc, #136]	@ (800274c <ST7789V_ReadID+0xb4>)
 80026c4:	6023      	str	r3, [r4, #0]
 80026c6:	4293      	cmp	r3, r2
 80026c8:	d03b      	beq.n	8002742 <ST7789V_ReadID+0xaa>
 80026ca:	f89d 3004 	ldrb.w	r3, [sp, #4]
 80026ce:	005b      	lsls	r3, r3, #1
 80026d0:	b2db      	uxtb	r3, r3
 80026d2:	f88d 3004 	strb.w	r3, [sp, #4]
 80026d6:	f89d 3005 	ldrb.w	r3, [sp, #5]
 80026da:	0619      	lsls	r1, r3, #24
 80026dc:	bf42      	ittt	mi
 80026de:	f89d 3004 	ldrbmi.w	r3, [sp, #4]
 80026e2:	f043 0301 	orrmi.w	r3, r3, #1
 80026e6:	f88d 3004 	strbmi.w	r3, [sp, #4]
 80026ea:	f89d 3005 	ldrb.w	r3, [sp, #5]
 80026ee:	005b      	lsls	r3, r3, #1
 80026f0:	b2db      	uxtb	r3, r3
 80026f2:	f88d 3005 	strb.w	r3, [sp, #5]
 80026f6:	f89d 3006 	ldrb.w	r3, [sp, #6]
 80026fa:	061a      	lsls	r2, r3, #24
 80026fc:	bf48      	it	mi
 80026fe:	f89d 3005 	ldrbmi.w	r3, [sp, #5]
 8002702:	f89d 2004 	ldrb.w	r2, [sp, #4]
 8002706:	bf44      	itt	mi
 8002708:	f043 0301 	orrmi.w	r3, r3, #1
 800270c:	f88d 3005 	strbmi.w	r3, [sp, #5]
 8002710:	f89d 3006 	ldrb.w	r3, [sp, #6]
 8002714:	005b      	lsls	r3, r3, #1
 8002716:	b2db      	uxtb	r3, r3
 8002718:	f88d 3006 	strb.w	r3, [sp, #6]
 800271c:	f89d 3007 	ldrb.w	r3, [sp, #7]
 8002720:	061b      	lsls	r3, r3, #24
 8002722:	bf42      	ittt	mi
 8002724:	f89d 3006 	ldrbmi.w	r3, [sp, #6]
 8002728:	f043 0301 	orrmi.w	r3, r3, #1
 800272c:	f88d 3006 	strbmi.w	r3, [sp, #6]
 8002730:	f89d 3005 	ldrb.w	r3, [sp, #5]
 8002734:	021b      	lsls	r3, r3, #8
 8002736:	ea43 4302 	orr.w	r3, r3, r2, lsl #16
 800273a:	f89d 2006 	ldrb.w	r2, [sp, #6]
 800273e:	4313      	orrs	r3, r2
 8002740:	6023      	str	r3, [r4, #0]
 8002742:	b002      	add	sp, #8
 8002744:	bd10      	pop	{r4, pc}
 8002746:	f04f 30ff 	mov.w	r0, #4294967295
 800274a:	e7fa      	b.n	8002742 <ST7789V_ReadID+0xaa>
 800274c:	00858552 	.word	0x00858552

08002750 <ST7789V_Delay.isra.0>:
 8002750:	b570      	push	{r4, r5, r6, lr}
 8002752:	6a43      	ldr	r3, [r0, #36]	@ 0x24
 8002754:	4604      	mov	r4, r0
 8002756:	460d      	mov	r5, r1
 8002758:	4798      	blx	r3
 800275a:	4606      	mov	r6, r0
 800275c:	6a63      	ldr	r3, [r4, #36]	@ 0x24
 800275e:	4798      	blx	r3
 8002760:	1b83      	subs	r3, r0, r6
 8002762:	42ab      	cmp	r3, r5
 8002764:	d3fa      	bcc.n	800275c <ST7789V_Delay.isra.0+0xc>
 8002766:	bd70      	pop	{r4, r5, r6, pc}

08002768 <ST7789V_Init>:
 8002768:	e92d 4ff0 	stmdb	sp!, {r4, r5, r6, r7, r8, r9, sl, fp, lr}
 800276c:	4688      	mov	r8, r1
 800276e:	4606      	mov	r6, r0
 8002770:	b089      	sub	sp, #36	@ 0x24
 8002772:	2800      	cmp	r0, #0
 8002774:	f000 8226 	beq.w	8002bc4 <ST7789V_Init+0x45c>
 8002778:	68cb      	ldr	r3, [r1, #12]
 800277a:	2b03      	cmp	r3, #3
 800277c:	f200 8222 	bhi.w	8002bc4 <ST7789V_Init+0x45c>
 8002780:	f890 7048 	ldrb.w	r7, [r0, #72]	@ 0x48
 8002784:	2f00      	cmp	r7, #0
 8002786:	f040 8220 	bne.w	8002bca <ST7789V_Init+0x462>
 800278a:	2310      	movs	r3, #16
 800278c:	f100 042c 	add.w	r4, r0, #44	@ 0x2c
 8002790:	2201      	movs	r2, #1
 8002792:	f10d 010f 	add.w	r1, sp, #15
 8002796:	4620      	mov	r0, r4
 8002798:	f88d 300f 	strb.w	r3, [sp, #15]
 800279c:	f000 fa4e 	bl	8002c3c <st7789v_write_reg>
 80027a0:	f04f 0901 	mov.w	r9, #1
 80027a4:	4605      	mov	r5, r0
 80027a6:	210a      	movs	r1, #10
 80027a8:	4630      	mov	r0, r6
 80027aa:	f7ff ffd1 	bl	8002750 <ST7789V_Delay.isra.0>
 80027ae:	464a      	mov	r2, r9
 80027b0:	f10d 010f 	add.w	r1, sp, #15
 80027b4:	4620      	mov	r0, r4
 80027b6:	f88d 900f 	strb.w	r9, [sp, #15]
 80027ba:	f000 fa3f 	bl	8002c3c <st7789v_write_reg>
 80027be:	21c8      	movs	r1, #200	@ 0xc8
 80027c0:	4405      	add	r5, r0
 80027c2:	4630      	mov	r0, r6
 80027c4:	f7ff ffc4 	bl	8002750 <ST7789V_Delay.isra.0>
 80027c8:	2311      	movs	r3, #17
 80027ca:	464a      	mov	r2, r9
 80027cc:	f10d 010f 	add.w	r1, sp, #15
 80027d0:	4620      	mov	r0, r4
 80027d2:	f88d 300f 	strb.w	r3, [sp, #15]
 80027d6:	f000 fa31 	bl	8002c3c <st7789v_write_reg>
 80027da:	2178      	movs	r1, #120	@ 0x78
 80027dc:	4405      	add	r5, r0
 80027de:	4630      	mov	r0, r6
 80027e0:	f7ff ffb6 	bl	8002750 <ST7789V_Delay.isra.0>
 80027e4:	2313      	movs	r3, #19
 80027e6:	464a      	mov	r2, r9
 80027e8:	f10d 010f 	add.w	r1, sp, #15
 80027ec:	4620      	mov	r0, r4
 80027ee:	f88d 300f 	strb.w	r3, [sp, #15]
 80027f2:	f000 fa23 	bl	8002c3c <st7789v_write_reg>
 80027f6:	2164      	movs	r1, #100	@ 0x64
 80027f8:	4405      	add	r5, r0
 80027fa:	4630      	mov	r0, r6
 80027fc:	f7ff ffa8 	bl	8002750 <ST7789V_Delay.isra.0>
 8002800:	23b0      	movs	r3, #176	@ 0xb0
 8002802:	f88d 300f 	strb.w	r3, [sp, #15]
 8002806:	f898 3000 	ldrb.w	r3, [r8]
 800280a:	2201      	movs	r2, #1
 800280c:	454b      	cmp	r3, r9
 800280e:	bf0c      	ite	eq
 8002810:	23f8      	moveq	r3, #248	@ 0xf8
 8002812:	23f0      	movne	r3, #240	@ 0xf0
 8002814:	f10d 010f 	add.w	r1, sp, #15
 8002818:	4620      	mov	r0, r4
 800281a:	f88d 7010 	strb.w	r7, [sp, #16]
 800281e:	f88d 3011 	strb.w	r3, [sp, #17]
 8002822:	f000 fa0b 	bl	8002c3c <st7789v_write_reg>
 8002826:	2202      	movs	r2, #2
 8002828:	4405      	add	r5, r0
 800282a:	a904      	add	r1, sp, #16
 800282c:	4620      	mov	r0, r4
 800282e:	f000 fa08 	bl	8002c42 <st7789v_send_data>
 8002832:	f8d8 3004 	ldr.w	r3, [r8, #4]
 8002836:	4405      	add	r5, r0
 8002838:	b1e3      	cbz	r3, 8002874 <ST7789V_Init+0x10c>
 800283a:	4be5      	ldr	r3, [pc, #916]	@ (8002bd0 <ST7789V_Init+0x468>)
 800283c:	681a      	ldr	r2, [r3, #0]
 800283e:	3701      	adds	r7, #1
 8002840:	b2ff      	uxtb	r7, r7
 8002842:	f042 0208 	orr.w	r2, r2, #8
 8002846:	2f04      	cmp	r7, #4
 8002848:	f843 2b04 	str.w	r2, [r3], #4
 800284c:	d1f6      	bne.n	800283c <ST7789V_Init+0xd4>
 800284e:	23c0      	movs	r3, #192	@ 0xc0
 8002850:	f88d 300f 	strb.w	r3, [sp, #15]
 8002854:	230c      	movs	r3, #12
 8002856:	2201      	movs	r2, #1
 8002858:	f10d 010f 	add.w	r1, sp, #15
 800285c:	4620      	mov	r0, r4
 800285e:	f88d 3010 	strb.w	r3, [sp, #16]
 8002862:	f000 f9eb 	bl	8002c3c <st7789v_write_reg>
 8002866:	2201      	movs	r2, #1
 8002868:	4405      	add	r5, r0
 800286a:	a904      	add	r1, sp, #16
 800286c:	4620      	mov	r0, r4
 800286e:	f000 f9e8 	bl	8002c42 <st7789v_send_data>
 8002872:	4405      	add	r5, r0
 8002874:	f8d8 100c 	ldr.w	r1, [r8, #12]
 8002878:	4630      	mov	r0, r6
 800287a:	f7ff fe7b 	bl	8002574 <ST7789V_SetOrientation>
 800287e:	2200      	movs	r2, #0
 8002880:	f44f 73a0 	mov.w	r3, #320	@ 0x140
 8002884:	4611      	mov	r1, r2
 8002886:	4405      	add	r5, r0
 8002888:	9300      	str	r3, [sp, #0]
 800288a:	4630      	mov	r0, r6
 800288c:	23f0      	movs	r3, #240	@ 0xf0
 800288e:	f7ff fea5 	bl	80025dc <ST7789V_SetDisplayWindow>
 8002892:	233a      	movs	r3, #58	@ 0x3a
 8002894:	f88d 300f 	strb.w	r3, [sp, #15]
 8002898:	f898 3008 	ldrb.w	r3, [r8, #8]
 800289c:	2201      	movs	r2, #1
 800289e:	4405      	add	r5, r0
 80028a0:	f10d 010f 	add.w	r1, sp, #15
 80028a4:	4620      	mov	r0, r4
 80028a6:	f88d 3010 	strb.w	r3, [sp, #16]
 80028aa:	f000 f9c7 	bl	8002c3c <st7789v_write_reg>
 80028ae:	2201      	movs	r2, #1
 80028b0:	4405      	add	r5, r0
 80028b2:	a904      	add	r1, sp, #16
 80028b4:	4620      	mov	r0, r4
 80028b6:	f000 f9c4 	bl	8002c42 <st7789v_send_data>
 80028ba:	23c6      	movs	r3, #198	@ 0xc6
 80028bc:	f88d 300f 	strb.w	r3, [sp, #15]
 80028c0:	230f      	movs	r3, #15
 80028c2:	2201      	movs	r2, #1
 80028c4:	eb0d 0103 	add.w	r1, sp, r3
 80028c8:	4405      	add	r5, r0
 80028ca:	4620      	mov	r0, r4
 80028cc:	f88d 3010 	strb.w	r3, [sp, #16]
 80028d0:	f000 f9b4 	bl	8002c3c <st7789v_write_reg>
 80028d4:	2201      	movs	r2, #1
 80028d6:	4405      	add	r5, r0
 80028d8:	a904      	add	r1, sp, #16
 80028da:	4620      	mov	r0, r4
 80028dc:	f000 f9b1 	bl	8002c42 <st7789v_send_data>
 80028e0:	23b2      	movs	r3, #178	@ 0xb2
 80028e2:	f04f 0b33 	mov.w	fp, #51	@ 0x33
 80028e6:	f88d 300f 	strb.w	r3, [sp, #15]
 80028ea:	f04f 0900 	mov.w	r9, #0
 80028ee:	230c      	movs	r3, #12
 80028f0:	2201      	movs	r2, #1
 80028f2:	4405      	add	r5, r0
 80028f4:	f10d 010f 	add.w	r1, sp, #15
 80028f8:	4620      	mov	r0, r4
 80028fa:	f88d 3010 	strb.w	r3, [sp, #16]
 80028fe:	f88d 3011 	strb.w	r3, [sp, #17]
 8002902:	f88d 9012 	strb.w	r9, [sp, #18]
 8002906:	f88d b013 	strb.w	fp, [sp, #19]
 800290a:	f88d b014 	strb.w	fp, [sp, #20]
 800290e:	f000 f995 	bl	8002c3c <st7789v_write_reg>
 8002912:	2205      	movs	r2, #5
 8002914:	4405      	add	r5, r0
 8002916:	a904      	add	r1, sp, #16
 8002918:	4620      	mov	r0, r4
 800291a:	f000 f992 	bl	8002c42 <st7789v_send_data>
 800291e:	22b7      	movs	r2, #183	@ 0xb7
 8002920:	f04f 0335 	mov.w	r3, #53	@ 0x35
 8002924:	eb05 0a00 	add.w	sl, r5, r0
 8002928:	f88d 200f 	strb.w	r2, [sp, #15]
 800292c:	f10d 010f 	add.w	r1, sp, #15
 8002930:	2201      	movs	r2, #1
 8002932:	4620      	mov	r0, r4
 8002934:	f88d 3010 	strb.w	r3, [sp, #16]
 8002938:	f000 f980 	bl	8002c3c <st7789v_write_reg>
 800293c:	2201      	movs	r2, #1
 800293e:	4482      	add	sl, r0
 8002940:	a904      	add	r1, sp, #16
 8002942:	4620      	mov	r0, r4
 8002944:	f000 f97d 	bl	8002c42 <st7789v_send_data>
 8002948:	22bb      	movs	r2, #187	@ 0xbb
 800294a:	f88d 200f 	strb.w	r2, [sp, #15]
 800294e:	221f      	movs	r2, #31
 8002950:	4482      	add	sl, r0
 8002952:	f88d 2010 	strb.w	r2, [sp, #16]
 8002956:	f10d 010f 	add.w	r1, sp, #15
 800295a:	2201      	movs	r2, #1
 800295c:	4620      	mov	r0, r4
 800295e:	f000 f96d 	bl	8002c3c <st7789v_write_reg>
 8002962:	2201      	movs	r2, #1
 8002964:	4482      	add	sl, r0
 8002966:	a904      	add	r1, sp, #16
 8002968:	4620      	mov	r0, r4
 800296a:	f000 f96a 	bl	8002c42 <st7789v_send_data>
 800296e:	22c0      	movs	r2, #192	@ 0xc0
 8002970:	f88d 200f 	strb.w	r2, [sp, #15]
 8002974:	222c      	movs	r2, #44	@ 0x2c
 8002976:	4482      	add	sl, r0
 8002978:	f88d 2010 	strb.w	r2, [sp, #16]
 800297c:	f10d 010f 	add.w	r1, sp, #15
 8002980:	2201      	movs	r2, #1
 8002982:	4620      	mov	r0, r4
 8002984:	f000 f95a 	bl	8002c3c <st7789v_write_reg>
 8002988:	2201      	movs	r2, #1
 800298a:	4482      	add	sl, r0
 800298c:	a904      	add	r1, sp, #16
 800298e:	4620      	mov	r0, r4
 8002990:	f000 f957 	bl	8002c42 <st7789v_send_data>
 8002994:	22c2      	movs	r2, #194	@ 0xc2
 8002996:	2701      	movs	r7, #1
 8002998:	f88d 200f 	strb.w	r2, [sp, #15]
 800299c:	22c3      	movs	r2, #195	@ 0xc3
 800299e:	4482      	add	sl, r0
 80029a0:	f88d 7010 	strb.w	r7, [sp, #16]
 80029a4:	f10d 010f 	add.w	r1, sp, #15
 80029a8:	f88d 2011 	strb.w	r2, [sp, #17]
 80029ac:	4620      	mov	r0, r4
 80029ae:	463a      	mov	r2, r7
 80029b0:	f000 f944 	bl	8002c3c <st7789v_write_reg>
 80029b4:	2202      	movs	r2, #2
 80029b6:	4482      	add	sl, r0
 80029b8:	a904      	add	r1, sp, #16
 80029ba:	4620      	mov	r0, r4
 80029bc:	f000 f941 	bl	8002c42 <st7789v_send_data>
 80029c0:	22c4      	movs	r2, #196	@ 0xc4
 80029c2:	f88d 200f 	strb.w	r2, [sp, #15]
 80029c6:	2220      	movs	r2, #32
 80029c8:	4482      	add	sl, r0
 80029ca:	f88d 2010 	strb.w	r2, [sp, #16]
 80029ce:	f10d 010f 	add.w	r1, sp, #15
 80029d2:	463a      	mov	r2, r7
 80029d4:	4620      	mov	r0, r4
 80029d6:	f000 f931 	bl	8002c3c <st7789v_write_reg>
 80029da:	463a      	mov	r2, r7
 80029dc:	4482      	add	sl, r0
 80029de:	a904      	add	r1, sp, #16
 80029e0:	4620      	mov	r0, r4
 80029e2:	f000 f92e 	bl	8002c42 <st7789v_send_data>
 80029e6:	f06f 032f 	mvn.w	r3, #47	@ 0x2f
 80029ea:	22a4      	movs	r2, #164	@ 0xa4
 80029ec:	f88d 300f 	strb.w	r3, [sp, #15]
 80029f0:	f88d 2010 	strb.w	r2, [sp, #16]
 80029f4:	22a1      	movs	r2, #161	@ 0xa1
 80029f6:	4482      	add	sl, r0
 80029f8:	f88d 2011 	strb.w	r2, [sp, #17]
 80029fc:	f10d 010f 	add.w	r1, sp, #15
 8002a00:	463a      	mov	r2, r7
 8002a02:	4620      	mov	r0, r4
 8002a04:	f000 f91a 	bl	8002c3c <st7789v_write_reg>
 8002a08:	2202      	movs	r2, #2
 8002a0a:	eb0a 0500 	add.w	r5, sl, r0
 8002a0e:	a904      	add	r1, sp, #16
 8002a10:	4620      	mov	r0, r4
 8002a12:	f000 f916 	bl	8002c42 <st7789v_send_data>
 8002a16:	22e0      	movs	r2, #224	@ 0xe0
 8002a18:	f06f 032f 	mvn.w	r3, #47	@ 0x2f
 8002a1c:	f88d 200f 	strb.w	r2, [sp, #15]
 8002a20:	f04f 0a08 	mov.w	sl, #8
 8002a24:	f88d 3010 	strb.w	r3, [sp, #16]
 8002a28:	2211      	movs	r2, #17
 8002a2a:	230c      	movs	r3, #12
 8002a2c:	f88d a011 	strb.w	sl, [sp, #17]
 8002a30:	f88d 2012 	strb.w	r2, [sp, #18]
 8002a34:	f88d a013 	strb.w	sl, [sp, #19]
 8002a38:	f88d 3014 	strb.w	r3, [sp, #20]
 8002a3c:	2315      	movs	r3, #21
 8002a3e:	2250      	movs	r2, #80	@ 0x50
 8002a40:	f88d 3015 	strb.w	r3, [sp, #21]
 8002a44:	2339      	movs	r3, #57	@ 0x39
 8002a46:	f88d 3016 	strb.w	r3, [sp, #22]
 8002a4a:	f88d b017 	strb.w	fp, [sp, #23]
 8002a4e:	f88d 2018 	strb.w	r2, [sp, #24]
 8002a52:	2236      	movs	r2, #54	@ 0x36
 8002a54:	f88d 2019 	strb.w	r2, [sp, #25]
 8002a58:	2213      	movs	r2, #19
 8002a5a:	f04f 0b14 	mov.w	fp, #20
 8002a5e:	f88d 201a 	strb.w	r2, [sp, #26]
 8002a62:	2229      	movs	r2, #41	@ 0x29
 8002a64:	f88d b01b 	strb.w	fp, [sp, #27]
 8002a68:	f88d 201c 	strb.w	r2, [sp, #28]
 8002a6c:	222d      	movs	r2, #45	@ 0x2d
 8002a6e:	4405      	add	r5, r0
 8002a70:	f88d 201d 	strb.w	r2, [sp, #29]
 8002a74:	f10d 010f 	add.w	r1, sp, #15
 8002a78:	463a      	mov	r2, r7
 8002a7a:	4620      	mov	r0, r4
 8002a7c:	f000 f8de 	bl	8002c3c <st7789v_write_reg>
 8002a80:	220e      	movs	r2, #14
 8002a82:	4405      	add	r5, r0
 8002a84:	a904      	add	r1, sp, #16
 8002a86:	4620      	mov	r0, r4
 8002a88:	f000 f8db 	bl	8002c42 <st7789v_send_data>
 8002a8c:	22e1      	movs	r2, #225	@ 0xe1
 8002a8e:	f06f 032f 	mvn.w	r3, #47	@ 0x2f
 8002a92:	f88d 200f 	strb.w	r2, [sp, #15]
 8002a96:	2210      	movs	r2, #16
 8002a98:	f88d 3010 	strb.w	r3, [sp, #16]
 8002a9c:	f88d a011 	strb.w	sl, [sp, #17]
 8002aa0:	2339      	movs	r3, #57	@ 0x39
 8002aa2:	f88d 2012 	strb.w	r2, [sp, #18]
 8002aa6:	2206      	movs	r2, #6
 8002aa8:	f88d a013 	strb.w	sl, [sp, #19]
 8002aac:	f88d 2014 	strb.w	r2, [sp, #20]
 8002ab0:	f04f 0a44 	mov.w	sl, #68	@ 0x44
 8002ab4:	f88d 2015 	strb.w	r2, [sp, #21]
 8002ab8:	f88d 3016 	strb.w	r3, [sp, #22]
 8002abc:	2351      	movs	r3, #81	@ 0x51
 8002abe:	f88d a017 	strb.w	sl, [sp, #23]
 8002ac2:	f88d 3018 	strb.w	r3, [sp, #24]
 8002ac6:	230b      	movs	r3, #11
 8002ac8:	f88d 3019 	strb.w	r3, [sp, #25]
 8002acc:	2316      	movs	r3, #22
 8002ace:	f88d 301a 	strb.w	r3, [sp, #26]
 8002ad2:	232f      	movs	r3, #47	@ 0x2f
 8002ad4:	f88d b01b 	strb.w	fp, [sp, #27]
 8002ad8:	f88d 301c 	strb.w	r3, [sp, #28]
 8002adc:	2331      	movs	r3, #49	@ 0x31
 8002ade:	463a      	mov	r2, r7
 8002ae0:	4405      	add	r5, r0
 8002ae2:	f10d 010f 	add.w	r1, sp, #15
 8002ae6:	4620      	mov	r0, r4
 8002ae8:	f88d 301d 	strb.w	r3, [sp, #29]
 8002aec:	f000 f8a6 	bl	8002c3c <st7789v_write_reg>
 8002af0:	220e      	movs	r2, #14
 8002af2:	4405      	add	r5, r0
 8002af4:	a904      	add	r1, sp, #16
 8002af6:	4620      	mov	r0, r4
 8002af8:	f000 f8a3 	bl	8002c42 <st7789v_send_data>
 8002afc:	f898 b014 	ldrb.w	fp, [r8, #20]
 8002b00:	4405      	add	r5, r0
 8002b02:	45bb      	cmp	fp, r7
 8002b04:	d132      	bne.n	8002b6c <ST7789V_Init+0x404>
 8002b06:	465a      	mov	r2, fp
 8002b08:	f10d 010f 	add.w	r1, sp, #15
 8002b0c:	4620      	mov	r0, r4
 8002b0e:	f88d a00f 	strb.w	sl, [sp, #15]
 8002b12:	f000 f893 	bl	8002c3c <st7789v_write_reg>
 8002b16:	f898 3010 	ldrb.w	r3, [r8, #16]
 8002b1a:	182f      	adds	r7, r5, r0
 8002b1c:	2202      	movs	r2, #2
 8002b1e:	a904      	add	r1, sp, #16
 8002b20:	4620      	mov	r0, r4
 8002b22:	f88d 9010 	strb.w	r9, [sp, #16]
 8002b26:	f88d 3011 	strb.w	r3, [sp, #17]
 8002b2a:	f000 f88a 	bl	8002c42 <st7789v_send_data>
 8002b2e:	f04f 0335 	mov.w	r3, #53	@ 0x35
 8002b32:	465a      	mov	r2, fp
 8002b34:	4407      	add	r7, r0
 8002b36:	f10d 010f 	add.w	r1, sp, #15
 8002b3a:	4620      	mov	r0, r4
 8002b3c:	f88d 300f 	strb.w	r3, [sp, #15]
 8002b40:	f88d 9010 	strb.w	r9, [sp, #16]
 8002b44:	f000 f87a 	bl	8002c3c <st7789v_write_reg>
 8002b48:	465a      	mov	r2, fp
 8002b4a:	4407      	add	r7, r0
 8002b4c:	a904      	add	r1, sp, #16
 8002b4e:	4620      	mov	r0, r4
 8002b50:	f000 f877 	bl	8002c42 <st7789v_send_data>
 8002b54:	183d      	adds	r5, r7, r0
 8002b56:	1e28      	subs	r0, r5, #0
 8002b58:	f04f 0301 	mov.w	r3, #1
 8002b5c:	bf18      	it	ne
 8002b5e:	2001      	movne	r0, #1
 8002b60:	f886 3048 	strb.w	r3, [r6, #72]	@ 0x48
 8002b64:	4240      	negs	r0, r0
 8002b66:	b009      	add	sp, #36	@ 0x24
 8002b68:	e8bd 8ff0 	ldmia.w	sp!, {r4, r5, r6, r7, r8, r9, sl, fp, pc}
 8002b6c:	f1bb 0f02 	cmp.w	fp, #2
 8002b70:	d1f1      	bne.n	8002b56 <ST7789V_Init+0x3ee>
 8002b72:	463a      	mov	r2, r7
 8002b74:	f10d 010f 	add.w	r1, sp, #15
 8002b78:	4620      	mov	r0, r4
 8002b7a:	f88d a00f 	strb.w	sl, [sp, #15]
 8002b7e:	f000 f85d 	bl	8002c3c <st7789v_write_reg>
 8002b82:	465a      	mov	r2, fp
 8002b84:	eb05 0800 	add.w	r8, r5, r0
 8002b88:	a904      	add	r1, sp, #16
 8002b8a:	4620      	mov	r0, r4
 8002b8c:	f88d 9010 	strb.w	r9, [sp, #16]
 8002b90:	f88d 9011 	strb.w	r9, [sp, #17]
 8002b94:	f000 f855 	bl	8002c42 <st7789v_send_data>
 8002b98:	f04f 0335 	mov.w	r3, #53	@ 0x35
 8002b9c:	463a      	mov	r2, r7
 8002b9e:	4480      	add	r8, r0
 8002ba0:	f10d 010f 	add.w	r1, sp, #15
 8002ba4:	4620      	mov	r0, r4
 8002ba6:	f88d 300f 	strb.w	r3, [sp, #15]
 8002baa:	f88d 7010 	strb.w	r7, [sp, #16]
 8002bae:	f000 f845 	bl	8002c3c <st7789v_write_reg>
 8002bb2:	463a      	mov	r2, r7
 8002bb4:	4480      	add	r8, r0
 8002bb6:	a904      	add	r1, sp, #16
 8002bb8:	4620      	mov	r0, r4
 8002bba:	f000 f842 	bl	8002c42 <st7789v_send_data>
 8002bbe:	eb08 0500 	add.w	r5, r8, r0
 8002bc2:	e7c8      	b.n	8002b56 <ST7789V_Init+0x3ee>
 8002bc4:	f04f 30ff 	mov.w	r0, #4294967295
 8002bc8:	e7cd      	b.n	8002b66 <ST7789V_Init+0x3fe>
 8002bca:	2000      	movs	r0, #0
 8002bcc:	e7cb      	b.n	8002b66 <ST7789V_Init+0x3fe>
 8002bce:	bf00      	nop
 8002bd0:	20000098 	.word	0x20000098

08002bd4 <ST7789V_RegisterBusIO>:
 8002bd4:	2800      	cmp	r0, #0
 8002bd6:	d022      	beq.n	8002c1e <ST7789V_RegisterBusIO+0x4a>
 8002bd8:	684a      	ldr	r2, [r1, #4]
 8002bda:	680b      	ldr	r3, [r1, #0]
 8002bdc:	6042      	str	r2, [r0, #4]
 8002bde:	890a      	ldrh	r2, [r1, #8]
 8002be0:	6003      	str	r3, [r0, #0]
 8002be2:	8102      	strh	r2, [r0, #8]
 8002be4:	68ca      	ldr	r2, [r1, #12]
 8002be6:	60c2      	str	r2, [r0, #12]
 8002be8:	690a      	ldr	r2, [r1, #16]
 8002bea:	6102      	str	r2, [r0, #16]
 8002bec:	694a      	ldr	r2, [r1, #20]
 8002bee:	6142      	str	r2, [r0, #20]
 8002bf0:	698a      	ldr	r2, [r1, #24]
 8002bf2:	6182      	str	r2, [r0, #24]
 8002bf4:	69ca      	ldr	r2, [r1, #28]
 8002bf6:	61c2      	str	r2, [r0, #28]
 8002bf8:	6a0a      	ldr	r2, [r1, #32]
 8002bfa:	6202      	str	r2, [r0, #32]
 8002bfc:	6a4a      	ldr	r2, [r1, #36]	@ 0x24
 8002bfe:	6242      	str	r2, [r0, #36]	@ 0x24
 8002c00:	4a08      	ldr	r2, [pc, #32]	@ (8002c24 <ST7789V_RegisterBusIO+0x50>)
 8002c02:	6302      	str	r2, [r0, #48]	@ 0x30
 8002c04:	4a08      	ldr	r2, [pc, #32]	@ (8002c28 <ST7789V_RegisterBusIO+0x54>)
 8002c06:	62c2      	str	r2, [r0, #44]	@ 0x2c
 8002c08:	4a08      	ldr	r2, [pc, #32]	@ (8002c2c <ST7789V_RegisterBusIO+0x58>)
 8002c0a:	6342      	str	r2, [r0, #52]	@ 0x34
 8002c0c:	4a08      	ldr	r2, [pc, #32]	@ (8002c30 <ST7789V_RegisterBusIO+0x5c>)
 8002c0e:	6382      	str	r2, [r0, #56]	@ 0x38
 8002c10:	4a08      	ldr	r2, [pc, #32]	@ (8002c34 <ST7789V_RegisterBusIO+0x60>)
 8002c12:	63c2      	str	r2, [r0, #60]	@ 0x3c
 8002c14:	4a08      	ldr	r2, [pc, #32]	@ (8002c38 <ST7789V_RegisterBusIO+0x64>)
 8002c16:	e9c0 2010 	strd	r2, r0, [r0, #64]	@ 0x40
 8002c1a:	b103      	cbz	r3, 8002c1e <ST7789V_RegisterBusIO+0x4a>
 8002c1c:	4718      	bx	r3
 8002c1e:	f04f 30ff 	mov.w	r0, #4294967295
 8002c22:	4770      	bx	lr
 8002c24:	08002505 	.word	0x08002505
 8002c28:	0800250f 	.word	0x0800250f
 8002c2c:	08002519 	.word	0x08002519
 8002c30:	08002523 	.word	0x08002523
 8002c34:	0800252d 	.word	0x0800252d
 8002c38:	08002537 	.word	0x08002537

08002c3c <st7789v_write_reg>:
 8002c3c:	6803      	ldr	r3, [r0, #0]
 8002c3e:	6980      	ldr	r0, [r0, #24]
 8002c40:	4718      	bx	r3

08002c42 <st7789v_send_data>:
 8002c42:	6883      	ldr	r3, [r0, #8]
 8002c44:	6980      	ldr	r0, [r0, #24]
 8002c46:	4718      	bx	r3

08002c48 <st7789v_recv_data>:
 8002c48:	6903      	ldr	r3, [r0, #16]
 8002c4a:	6980      	ldr	r0, [r0, #24]
 8002c4c:	4718      	bx	r3
	...

08002c50 <HAL_InitTick>:
 8002c50:	b570      	push	{r4, r5, r6, lr}
 8002c52:	4e20      	ldr	r6, [pc, #128]	@ (8002cd4 <HAL_InitTick+0x84>)
 8002c54:	4605      	mov	r5, r0
 8002c56:	7832      	ldrb	r2, [r6, #0]
 8002c58:	b90a      	cbnz	r2, 8002c5e <HAL_InitTick+0xe>
 8002c5a:	2001      	movs	r0, #1
 8002c5c:	bd70      	pop	{r4, r5, r6, pc}
 8002c5e:	f04f 23e0 	mov.w	r3, #3758153728	@ 0xe000e000
 8002c62:	691c      	ldr	r4, [r3, #16]
 8002c64:	f014 0404 	ands.w	r4, r4, #4
 8002c68:	d017      	beq.n	8002c9a <HAL_InitTick+0x4a>
 8002c6a:	f44f 737a 	mov.w	r3, #1000	@ 0x3e8
 8002c6e:	fbb3 f3f2 	udiv	r3, r3, r2
 8002c72:	4a19      	ldr	r2, [pc, #100]	@ (8002cd8 <HAL_InitTick+0x88>)
 8002c74:	6814      	ldr	r4, [r2, #0]
 8002c76:	fbb4 f4f3 	udiv	r4, r4, r3
 8002c7a:	4620      	mov	r0, r4
 8002c7c:	f000 f8ce 	bl	8002e1c <HAL_SYSTICK_Config>
 8002c80:	4604      	mov	r4, r0
 8002c82:	2800      	cmp	r0, #0
 8002c84:	d1e9      	bne.n	8002c5a <HAL_InitTick+0xa>
 8002c86:	4602      	mov	r2, r0
 8002c88:	4629      	mov	r1, r5
 8002c8a:	f04f 30ff 	mov.w	r0, #4294967295
 8002c8e:	f000 f887 	bl	8002da0 <HAL_NVIC_SetPriority>
 8002c92:	4b12      	ldr	r3, [pc, #72]	@ (8002cdc <HAL_InitTick+0x8c>)
 8002c94:	4620      	mov	r0, r4
 8002c96:	601d      	str	r5, [r3, #0]
 8002c98:	e7e0      	b.n	8002c5c <HAL_InitTick+0xc>
 8002c9a:	f000 f909 	bl	8002eb0 <HAL_SYSTICK_GetCLKSourceConfig>
 8002c9e:	2801      	cmp	r0, #1
 8002ca0:	d007      	beq.n	8002cb2 <HAL_InitTick+0x62>
 8002ca2:	2802      	cmp	r0, #2
 8002ca4:	d00d      	beq.n	8002cc2 <HAL_InitTick+0x72>
 8002ca6:	2800      	cmp	r0, #0
 8002ca8:	d1e7      	bne.n	8002c7a <HAL_InitTick+0x2a>
 8002caa:	f44f 53fa 	mov.w	r3, #8000	@ 0x1f40
 8002cae:	7832      	ldrb	r2, [r6, #0]
 8002cb0:	e7dd      	b.n	8002c6e <HAL_InitTick+0x1e>
 8002cb2:	f44f 737a 	mov.w	r3, #1000	@ 0x3e8
 8002cb6:	7832      	ldrb	r2, [r6, #0]
 8002cb8:	f44f 44fa 	mov.w	r4, #32000	@ 0x7d00
 8002cbc:	fbb3 f3f2 	udiv	r3, r3, r2
 8002cc0:	e7d9      	b.n	8002c76 <HAL_InitTick+0x26>
 8002cc2:	f44f 737a 	mov.w	r3, #1000	@ 0x3e8
 8002cc6:	7832      	ldrb	r2, [r6, #0]
 8002cc8:	f44f 4400 	mov.w	r4, #32768	@ 0x8000
 8002ccc:	fbb3 f3f2 	udiv	r3, r3, r2
 8002cd0:	e7d1      	b.n	8002c76 <HAL_InitTick+0x26>
 8002cd2:	bf00      	nop
 8002cd4:	200000f8 	.word	0x200000f8
 8002cd8:	20000000 	.word	0x20000000
 8002cdc:	200000fc 	.word	0x200000fc

08002ce0 <HAL_Init>:
 8002ce0:	4a10      	ldr	r2, [pc, #64]	@ (8002d24 <HAL_Init+0x44>)
 8002ce2:	b510      	push	{r4, lr}
 8002ce4:	6813      	ldr	r3, [r2, #0]
 8002ce6:	2003      	movs	r0, #3
 8002ce8:	f443 7380 	orr.w	r3, r3, #256	@ 0x100
 8002cec:	6013      	str	r3, [r2, #0]
 8002cee:	f000 f845 	bl	8002d7c <HAL_NVIC_SetPriorityGrouping>
 8002cf2:	f002 f89f 	bl	8004e34 <HAL_RCC_GetSysClockFreq>
 8002cf6:	4b0c      	ldr	r3, [pc, #48]	@ (8002d28 <HAL_Init+0x48>)
 8002cf8:	4a0c      	ldr	r2, [pc, #48]	@ (8002d2c <HAL_Init+0x4c>)
 8002cfa:	6a1b      	ldr	r3, [r3, #32]
 8002cfc:	f003 030f 	and.w	r3, r3, #15
 8002d00:	5cd3      	ldrb	r3, [r2, r3]
 8002d02:	40d8      	lsrs	r0, r3
 8002d04:	4b0a      	ldr	r3, [pc, #40]	@ (8002d30 <HAL_Init+0x50>)
 8002d06:	6018      	str	r0, [r3, #0]
 8002d08:	2004      	movs	r0, #4
 8002d0a:	f000 f897 	bl	8002e3c <HAL_SYSTICK_CLKSourceConfig>
 8002d0e:	2000      	movs	r0, #0
 8002d10:	f7ff ff9e 	bl	8002c50 <HAL_InitTick>
 8002d14:	4604      	mov	r4, r0
 8002d16:	b918      	cbnz	r0, 8002d20 <HAL_Init+0x40>
 8002d18:	f7fd fca4 	bl	8000664 <HAL_MspInit>
 8002d1c:	4620      	mov	r0, r4
 8002d1e:	bd10      	pop	{r4, pc}
 8002d20:	2401      	movs	r4, #1
 8002d22:	e7fb      	b.n	8002d1c <HAL_Init+0x3c>
 8002d24:	40022000 	.word	0x40022000
 8002d28:	46020c00 	.word	0x46020c00
 8002d2c:	080064ac 	.word	0x080064ac
 8002d30:	20000000 	.word	0x20000000

08002d34 <HAL_IncTick>:
 8002d34:	4a03      	ldr	r2, [pc, #12]	@ (8002d44 <HAL_IncTick+0x10>)
 8002d36:	4b04      	ldr	r3, [pc, #16]	@ (8002d48 <HAL_IncTick+0x14>)
 8002d38:	6811      	ldr	r1, [r2, #0]
 8002d3a:	781b      	ldrb	r3, [r3, #0]
 8002d3c:	440b      	add	r3, r1
 8002d3e:	6013      	str	r3, [r2, #0]
 8002d40:	4770      	bx	lr
 8002d42:	bf00      	nop
 8002d44:	2000cc7c 	.word	0x2000cc7c
 8002d48:	200000f8 	.word	0x200000f8

08002d4c <HAL_GetTick>:
 8002d4c:	4b01      	ldr	r3, [pc, #4]	@ (8002d54 <HAL_GetTick+0x8>)
 8002d4e:	6818      	ldr	r0, [r3, #0]
 8002d50:	4770      	bx	lr
 8002d52:	bf00      	nop
 8002d54:	2000cc7c 	.word	0x2000cc7c

08002d58 <HAL_Delay>:
 8002d58:	b538      	push	{r3, r4, r5, lr}
 8002d5a:	4604      	mov	r4, r0
 8002d5c:	f7ff fff6 	bl	8002d4c <HAL_GetTick>
 8002d60:	4605      	mov	r5, r0
 8002d62:	1c63      	adds	r3, r4, #1
 8002d64:	bf1e      	ittt	ne
 8002d66:	4b04      	ldrne	r3, [pc, #16]	@ (8002d78 <HAL_Delay+0x20>)
 8002d68:	781b      	ldrbne	r3, [r3, #0]
 8002d6a:	18e4      	addne	r4, r4, r3
 8002d6c:	f7ff ffee 	bl	8002d4c <HAL_GetTick>
 8002d70:	1b43      	subs	r3, r0, r5
 8002d72:	42a3      	cmp	r3, r4
 8002d74:	d3fa      	bcc.n	8002d6c <HAL_Delay+0x14>
 8002d76:	bd38      	pop	{r3, r4, r5, pc}
 8002d78:	200000f8 	.word	0x200000f8

08002d7c <HAL_NVIC_SetPriorityGrouping>:
 8002d7c:	4907      	ldr	r1, [pc, #28]	@ (8002d9c <HAL_NVIC_SetPriorityGrouping+0x20>)
 8002d7e:	0203      	lsls	r3, r0, #8
 8002d80:	68ca      	ldr	r2, [r1, #12]
 8002d82:	f403 63e0 	and.w	r3, r3, #1792	@ 0x700
 8002d86:	f422 62e0 	bic.w	r2, r2, #1792	@ 0x700
 8002d8a:	0412      	lsls	r2, r2, #16
 8002d8c:	0c12      	lsrs	r2, r2, #16
 8002d8e:	4313      	orrs	r3, r2
 8002d90:	f043 63bf 	orr.w	r3, r3, #100139008	@ 0x5f80000
 8002d94:	f443 3300 	orr.w	r3, r3, #131072	@ 0x20000
 8002d98:	60cb      	str	r3, [r1, #12]
 8002d9a:	4770      	bx	lr
 8002d9c:	e000ed00 	.word	0xe000ed00

08002da0 <HAL_NVIC_SetPriority>:
 8002da0:	4b15      	ldr	r3, [pc, #84]	@ (8002df8 <HAL_NVIC_SetPriority+0x58>)
 8002da2:	b530      	push	{r4, r5, lr}
 8002da4:	68dc      	ldr	r4, [r3, #12]
 8002da6:	f3c4 2402 	ubfx	r4, r4, #8, #3
 8002daa:	f1c4 0307 	rsb	r3, r4, #7
 8002dae:	1d25      	adds	r5, r4, #4
 8002db0:	2b04      	cmp	r3, #4
 8002db2:	bf28      	it	cs
 8002db4:	2304      	movcs	r3, #4
 8002db6:	2d06      	cmp	r5, #6
 8002db8:	f04f 35ff 	mov.w	r5, #4294967295
 8002dbc:	bf94      	ite	ls
 8002dbe:	2400      	movls	r4, #0
 8002dc0:	3c03      	subhi	r4, #3
 8002dc2:	fa05 f303 	lsl.w	r3, r5, r3
 8002dc6:	ea21 0303 	bic.w	r3, r1, r3
 8002dca:	40a5      	lsls	r5, r4
 8002dcc:	ea22 0205 	bic.w	r2, r2, r5
 8002dd0:	40a3      	lsls	r3, r4
 8002dd2:	2800      	cmp	r0, #0
 8002dd4:	ea43 0302 	orr.w	r3, r3, r2
 8002dd8:	bfac      	ite	ge
 8002dda:	f100 4060 	addge.w	r0, r0, #3758096384	@ 0xe0000000
 8002dde:	4a07      	ldrlt	r2, [pc, #28]	@ (8002dfc <HAL_NVIC_SetPriority+0x5c>)
 8002de0:	ea4f 1303 	mov.w	r3, r3, lsl #4
 8002de4:	b2db      	uxtb	r3, r3
 8002de6:	bfab      	itete	ge
 8002de8:	f500 4061 	addge.w	r0, r0, #57600	@ 0xe100
 8002dec:	f000 000f 	andlt.w	r0, r0, #15
 8002df0:	f880 3300 	strbge.w	r3, [r0, #768]	@ 0x300
 8002df4:	5413      	strblt	r3, [r2, r0]
 8002df6:	bd30      	pop	{r4, r5, pc}
 8002df8:	e000ed00 	.word	0xe000ed00
 8002dfc:	e000ed14 	.word	0xe000ed14

08002e00 <HAL_NVIC_EnableIRQ>:
 8002e00:	2800      	cmp	r0, #0
 8002e02:	db07      	blt.n	8002e14 <HAL_NVIC_EnableIRQ+0x14>
 8002e04:	2301      	movs	r3, #1
 8002e06:	0941      	lsrs	r1, r0, #5
 8002e08:	4a03      	ldr	r2, [pc, #12]	@ (8002e18 <HAL_NVIC_EnableIRQ+0x18>)
 8002e0a:	f000 001f 	and.w	r0, r0, #31
 8002e0e:	4083      	lsls	r3, r0
 8002e10:	f842 3021 	str.w	r3, [r2, r1, lsl #2]
 8002e14:	4770      	bx	lr
 8002e16:	bf00      	nop
 8002e18:	e000e100 	.word	0xe000e100

08002e1c <HAL_SYSTICK_Config>:
 8002e1c:	3801      	subs	r0, #1
 8002e1e:	f1b0 7f80 	cmp.w	r0, #16777216	@ 0x1000000
 8002e22:	bf3f      	itttt	cc
 8002e24:	f04f 23e0 	movcc.w	r3, #3758153728	@ 0xe000e000
 8002e28:	6158      	strcc	r0, [r3, #20]
 8002e2a:	2000      	movcc	r0, #0
 8002e2c:	6198      	strcc	r0, [r3, #24]
 8002e2e:	bf37      	itett	cc
 8002e30:	691a      	ldrcc	r2, [r3, #16]
 8002e32:	2001      	movcs	r0, #1
 8002e34:	f042 0203 	orrcc.w	r2, r2, #3
 8002e38:	611a      	strcc	r2, [r3, #16]
 8002e3a:	4770      	bx	lr

08002e3c <HAL_SYSTICK_CLKSourceConfig>:
 8002e3c:	2804      	cmp	r0, #4
 8002e3e:	d818      	bhi.n	8002e72 <HAL_SYSTICK_CLKSourceConfig+0x36>
 8002e40:	e8df f000 	tbb	[pc, r0]
 8002e44:	1726180a 	.word	0x1726180a
 8002e48:	03          	.byte	0x03
 8002e49:	00          	.byte	0x00
 8002e4a:	f04f 22e0 	mov.w	r2, #3758153728	@ 0xe000e000
 8002e4e:	6913      	ldr	r3, [r2, #16]
 8002e50:	f043 0304 	orr.w	r3, r3, #4
 8002e54:	6113      	str	r3, [r2, #16]
 8002e56:	4770      	bx	lr
 8002e58:	f04f 22e0 	mov.w	r2, #3758153728	@ 0xe000e000
 8002e5c:	6913      	ldr	r3, [r2, #16]
 8002e5e:	f023 0304 	bic.w	r3, r3, #4
 8002e62:	6113      	str	r3, [r2, #16]
 8002e64:	4a11      	ldr	r2, [pc, #68]	@ (8002eac <HAL_SYSTICK_CLKSourceConfig+0x70>)
 8002e66:	f8d2 30e0 	ldr.w	r3, [r2, #224]	@ 0xe0
 8002e6a:	f423 0340 	bic.w	r3, r3, #12582912	@ 0xc00000
 8002e6e:	f8c2 30e0 	str.w	r3, [r2, #224]	@ 0xe0
 8002e72:	4770      	bx	lr
 8002e74:	f04f 22e0 	mov.w	r2, #3758153728	@ 0xe000e000
 8002e78:	6913      	ldr	r3, [r2, #16]
 8002e7a:	f023 0304 	bic.w	r3, r3, #4
 8002e7e:	6113      	str	r3, [r2, #16]
 8002e80:	4a0a      	ldr	r2, [pc, #40]	@ (8002eac <HAL_SYSTICK_CLKSourceConfig+0x70>)
 8002e82:	f8d2 30e0 	ldr.w	r3, [r2, #224]	@ 0xe0
 8002e86:	f423 0340 	bic.w	r3, r3, #12582912	@ 0xc00000
 8002e8a:	f443 0380 	orr.w	r3, r3, #4194304	@ 0x400000
 8002e8e:	e7ee      	b.n	8002e6e <HAL_SYSTICK_CLKSourceConfig+0x32>
 8002e90:	f04f 22e0 	mov.w	r2, #3758153728	@ 0xe000e000
 8002e94:	6913      	ldr	r3, [r2, #16]
 8002e96:	f023 0304 	bic.w	r3, r3, #4
 8002e9a:	6113      	str	r3, [r2, #16]
 8002e9c:	4a03      	ldr	r2, [pc, #12]	@ (8002eac <HAL_SYSTICK_CLKSourceConfig+0x70>)
 8002e9e:	f8d2 30e0 	ldr.w	r3, [r2, #224]	@ 0xe0
 8002ea2:	f423 0340 	bic.w	r3, r3, #12582912	@ 0xc00000
 8002ea6:	f443 0300 	orr.w	r3, r3, #8388608	@ 0x800000
 8002eaa:	e7e0      	b.n	8002e6e <HAL_SYSTICK_CLKSourceConfig+0x32>
 8002eac:	46020c00 	.word	0x46020c00

08002eb0 <HAL_SYSTICK_GetCLKSourceConfig>:
 8002eb0:	f04f 23e0 	mov.w	r3, #3758153728	@ 0xe000e000
 8002eb4:	691b      	ldr	r3, [r3, #16]
 8002eb6:	075a      	lsls	r2, r3, #29
 8002eb8:	d40d      	bmi.n	8002ed6 <HAL_SYSTICK_GetCLKSourceConfig+0x26>
 8002eba:	4b09      	ldr	r3, [pc, #36]	@ (8002ee0 <HAL_SYSTICK_GetCLKSourceConfig+0x30>)
 8002ebc:	f8d3 00e0 	ldr.w	r0, [r3, #224]	@ 0xe0
 8002ec0:	f400 0040 	and.w	r0, r0, #12582912	@ 0xc00000
 8002ec4:	f5b0 0f80 	cmp.w	r0, #4194304	@ 0x400000
 8002ec8:	d007      	beq.n	8002eda <HAL_SYSTICK_GetCLKSourceConfig+0x2a>
 8002eca:	f5a0 0300 	sub.w	r3, r0, #8388608	@ 0x800000
 8002ece:	4258      	negs	r0, r3
 8002ed0:	4158      	adcs	r0, r3
 8002ed2:	0040      	lsls	r0, r0, #1
 8002ed4:	4770      	bx	lr
 8002ed6:	2004      	movs	r0, #4
 8002ed8:	4770      	bx	lr
 8002eda:	2001      	movs	r0, #1
 8002edc:	4770      	bx	lr
 8002ede:	bf00      	nop
 8002ee0:	46020c00 	.word	0x46020c00

08002ee4 <HAL_DMA_Start_IT>:
 8002ee4:	b530      	push	{r4, r5, lr}
 8002ee6:	2800      	cmp	r0, #0
 8002ee8:	d036      	beq.n	8002f58 <HAL_DMA_Start_IT+0x74>
 8002eea:	f890 404c 	ldrb.w	r4, [r0, #76]	@ 0x4c
 8002eee:	2c01      	cmp	r4, #1
 8002ef0:	d034      	beq.n	8002f5c <HAL_DMA_Start_IT+0x78>
 8002ef2:	2401      	movs	r4, #1
 8002ef4:	f880 404c 	strb.w	r4, [r0, #76]	@ 0x4c
 8002ef8:	f890 4054 	ldrb.w	r4, [r0, #84]	@ 0x54
 8002efc:	2c01      	cmp	r4, #1
 8002efe:	f04f 0400 	mov.w	r4, #0
 8002f02:	d125      	bne.n	8002f50 <HAL_DMA_Start_IT+0x6c>
 8002f04:	2502      	movs	r5, #2
 8002f06:	f880 5054 	strb.w	r5, [r0, #84]	@ 0x54
 8002f0a:	6584      	str	r4, [r0, #88]	@ 0x58
 8002f0c:	6804      	ldr	r4, [r0, #0]
 8002f0e:	b29b      	uxth	r3, r3
 8002f10:	6ca5      	ldr	r5, [r4, #72]	@ 0x48
 8002f12:	0c2d      	lsrs	r5, r5, #16
 8002f14:	042d      	lsls	r5, r5, #16
 8002f16:	431d      	orrs	r5, r3
 8002f18:	f44f 43fe 	mov.w	r3, #32512	@ 0x7f00
 8002f1c:	64a5      	str	r5, [r4, #72]	@ 0x48
 8002f1e:	60e3      	str	r3, [r4, #12]
 8002f20:	64e1      	str	r1, [r4, #76]	@ 0x4c
 8002f22:	6522      	str	r2, [r4, #80]	@ 0x50
 8002f24:	6963      	ldr	r3, [r4, #20]
 8002f26:	f443 43ba 	orr.w	r3, r3, #23808	@ 0x5d00
 8002f2a:	6163      	str	r3, [r4, #20]
 8002f2c:	6e43      	ldr	r3, [r0, #100]	@ 0x64
 8002f2e:	b11b      	cbz	r3, 8002f38 <HAL_DMA_Start_IT+0x54>
 8002f30:	6963      	ldr	r3, [r4, #20]
 8002f32:	f443 7300 	orr.w	r3, r3, #512	@ 0x200
 8002f36:	6163      	str	r3, [r4, #20]
 8002f38:	6f03      	ldr	r3, [r0, #112]	@ 0x70
 8002f3a:	b11b      	cbz	r3, 8002f44 <HAL_DMA_Start_IT+0x60>
 8002f3c:	6963      	ldr	r3, [r4, #20]
 8002f3e:	f443 5300 	orr.w	r3, r3, #8192	@ 0x2000
 8002f42:	6163      	str	r3, [r4, #20]
 8002f44:	2000      	movs	r0, #0
 8002f46:	6963      	ldr	r3, [r4, #20]
 8002f48:	f043 0301 	orr.w	r3, r3, #1
 8002f4c:	6163      	str	r3, [r4, #20]
 8002f4e:	bd30      	pop	{r4, r5, pc}
 8002f50:	2340      	movs	r3, #64	@ 0x40
 8002f52:	f880 404c 	strb.w	r4, [r0, #76]	@ 0x4c
 8002f56:	6583      	str	r3, [r0, #88]	@ 0x58
 8002f58:	2001      	movs	r0, #1
 8002f5a:	e7f8      	b.n	8002f4e <HAL_DMA_Start_IT+0x6a>
 8002f5c:	2002      	movs	r0, #2
 8002f5e:	e7f6      	b.n	8002f4e <HAL_DMA_Start_IT+0x6a>

08002f60 <HAL_DMA_Abort>:
 8002f60:	b538      	push	{r3, r4, r5, lr}
 8002f62:	4604      	mov	r4, r0
 8002f64:	f7ff fef2 	bl	8002d4c <HAL_GetTick>
 8002f68:	4605      	mov	r5, r0
 8002f6a:	b144      	cbz	r4, 8002f7e <HAL_DMA_Abort+0x1e>
 8002f6c:	f894 3054 	ldrb.w	r3, [r4, #84]	@ 0x54
 8002f70:	2b02      	cmp	r3, #2
 8002f72:	d006      	beq.n	8002f82 <HAL_DMA_Abort+0x22>
 8002f74:	2320      	movs	r3, #32
 8002f76:	65a3      	str	r3, [r4, #88]	@ 0x58
 8002f78:	2300      	movs	r3, #0
 8002f7a:	f884 304c 	strb.w	r3, [r4, #76]	@ 0x4c
 8002f7e:	2001      	movs	r0, #1
 8002f80:	bd38      	pop	{r3, r4, r5, pc}
 8002f82:	6822      	ldr	r2, [r4, #0]
 8002f84:	6953      	ldr	r3, [r2, #20]
 8002f86:	f043 0304 	orr.w	r3, r3, #4
 8002f8a:	6153      	str	r3, [r2, #20]
 8002f8c:	2305      	movs	r3, #5
 8002f8e:	f884 3054 	strb.w	r3, [r4, #84]	@ 0x54
 8002f92:	6823      	ldr	r3, [r4, #0]
 8002f94:	691a      	ldr	r2, [r3, #16]
 8002f96:	0490      	lsls	r0, r2, #18
 8002f98:	d519      	bpl.n	8002fce <HAL_DMA_Abort+0x6e>
 8002f9a:	695a      	ldr	r2, [r3, #20]
 8002f9c:	6d21      	ldr	r1, [r4, #80]	@ 0x50
 8002f9e:	f042 0202 	orr.w	r2, r2, #2
 8002fa2:	615a      	str	r2, [r3, #20]
 8002fa4:	2204      	movs	r2, #4
 8002fa6:	f884 2054 	strb.w	r2, [r4, #84]	@ 0x54
 8002faa:	f44f 42fe 	mov.w	r2, #32512	@ 0x7f00
 8002fae:	60da      	str	r2, [r3, #12]
 8002fb0:	2201      	movs	r2, #1
 8002fb2:	0609      	lsls	r1, r1, #24
 8002fb4:	bf48      	it	mi
 8002fb6:	6f61      	ldrmi	r1, [r4, #116]	@ 0x74
 8002fb8:	f884 2054 	strb.w	r2, [r4, #84]	@ 0x54
 8002fbc:	f04f 0000 	mov.w	r0, #0
 8002fc0:	bf42      	ittt	mi
 8002fc2:	730a      	strbmi	r2, [r1, #12]
 8002fc4:	2200      	movmi	r2, #0
 8002fc6:	649a      	strmi	r2, [r3, #72]	@ 0x48
 8002fc8:	f884 004c 	strb.w	r0, [r4, #76]	@ 0x4c
 8002fcc:	e7d8      	b.n	8002f80 <HAL_DMA_Abort+0x20>
 8002fce:	f7ff febd 	bl	8002d4c <HAL_GetTick>
 8002fd2:	1b40      	subs	r0, r0, r5
 8002fd4:	2805      	cmp	r0, #5
 8002fd6:	d9dc      	bls.n	8002f92 <HAL_DMA_Abort+0x32>
 8002fd8:	6da3      	ldr	r3, [r4, #88]	@ 0x58
 8002fda:	f043 0310 	orr.w	r3, r3, #16
 8002fde:	65a3      	str	r3, [r4, #88]	@ 0x58
 8002fe0:	2303      	movs	r3, #3
 8002fe2:	f884 3054 	strb.w	r3, [r4, #84]	@ 0x54
 8002fe6:	6d23      	ldr	r3, [r4, #80]	@ 0x50
 8002fe8:	061d      	lsls	r5, r3, #24
 8002fea:	d5c5      	bpl.n	8002f78 <HAL_DMA_Abort+0x18>
 8002fec:	2201      	movs	r2, #1
 8002fee:	6f63      	ldr	r3, [r4, #116]	@ 0x74
 8002ff0:	731a      	strb	r2, [r3, #12]
 8002ff2:	e7c1      	b.n	8002f78 <HAL_DMA_Abort+0x18>

08002ff4 <HAL_DMA_Abort_IT>:
 8002ff4:	b128      	cbz	r0, 8003002 <HAL_DMA_Abort_IT+0xe>
 8002ff6:	f890 3054 	ldrb.w	r3, [r0, #84]	@ 0x54
 8002ffa:	2b02      	cmp	r3, #2
 8002ffc:	d003      	beq.n	8003006 <HAL_DMA_Abort_IT+0x12>
 8002ffe:	2320      	movs	r3, #32
 8003000:	6583      	str	r3, [r0, #88]	@ 0x58
 8003002:	2001      	movs	r0, #1
 8003004:	4770      	bx	lr
 8003006:	2304      	movs	r3, #4
 8003008:	6802      	ldr	r2, [r0, #0]
 800300a:	f880 3054 	strb.w	r3, [r0, #84]	@ 0x54
 800300e:	6953      	ldr	r3, [r2, #20]
 8003010:	2000      	movs	r0, #0
 8003012:	f443 5300 	orr.w	r3, r3, #8192	@ 0x2000
 8003016:	f043 0304 	orr.w	r3, r3, #4
 800301a:	6153      	str	r3, [r2, #20]
 800301c:	4770      	bx	lr

0800301e <HAL_DMA_IRQHandler>:
 800301e:	2101      	movs	r1, #1
 8003020:	6803      	ldr	r3, [r0, #0]
 8003022:	b510      	push	{r4, lr}
 8003024:	f423 627f 	bic.w	r2, r3, #4080	@ 0xff0
 8003028:	f022 020f 	bic.w	r2, r2, #15
 800302c:	4604      	mov	r4, r0
 800302e:	68d0      	ldr	r0, [r2, #12]
 8003030:	f3c3 020b 	ubfx	r2, r3, #0, #12
 8003034:	3a50      	subs	r2, #80	@ 0x50
 8003036:	f3c2 12c4 	ubfx	r2, r2, #7, #5
 800303a:	fa01 f202 	lsl.w	r2, r1, r2
 800303e:	4202      	tst	r2, r0
 8003040:	f000 80ab 	beq.w	800319a <HAL_DMA_IRQHandler+0x17c>
 8003044:	691a      	ldr	r2, [r3, #16]
 8003046:	0550      	lsls	r0, r2, #21
 8003048:	d508      	bpl.n	800305c <HAL_DMA_IRQHandler+0x3e>
 800304a:	695a      	ldr	r2, [r3, #20]
 800304c:	0552      	lsls	r2, r2, #21
 800304e:	d505      	bpl.n	800305c <HAL_DMA_IRQHandler+0x3e>
 8003050:	f44f 6280 	mov.w	r2, #1024	@ 0x400
 8003054:	60da      	str	r2, [r3, #12]
 8003056:	6da2      	ldr	r2, [r4, #88]	@ 0x58
 8003058:	430a      	orrs	r2, r1
 800305a:	65a2      	str	r2, [r4, #88]	@ 0x58
 800305c:	691a      	ldr	r2, [r3, #16]
 800305e:	0510      	lsls	r0, r2, #20
 8003060:	d509      	bpl.n	8003076 <HAL_DMA_IRQHandler+0x58>
 8003062:	695a      	ldr	r2, [r3, #20]
 8003064:	0511      	lsls	r1, r2, #20
 8003066:	d506      	bpl.n	8003076 <HAL_DMA_IRQHandler+0x58>
 8003068:	f44f 6200 	mov.w	r2, #2048	@ 0x800
 800306c:	60da      	str	r2, [r3, #12]
 800306e:	6da2      	ldr	r2, [r4, #88]	@ 0x58
 8003070:	f042 0202 	orr.w	r2, r2, #2
 8003074:	65a2      	str	r2, [r4, #88]	@ 0x58
 8003076:	691a      	ldr	r2, [r3, #16]
 8003078:	04d2      	lsls	r2, r2, #19
 800307a:	d509      	bpl.n	8003090 <HAL_DMA_IRQHandler+0x72>
 800307c:	695a      	ldr	r2, [r3, #20]
 800307e:	04d0      	lsls	r0, r2, #19
 8003080:	d506      	bpl.n	8003090 <HAL_DMA_IRQHandler+0x72>
 8003082:	f44f 5280 	mov.w	r2, #4096	@ 0x1000
 8003086:	60da      	str	r2, [r3, #12]
 8003088:	6da2      	ldr	r2, [r4, #88]	@ 0x58
 800308a:	f042 0204 	orr.w	r2, r2, #4
 800308e:	65a2      	str	r2, [r4, #88]	@ 0x58
 8003090:	691a      	ldr	r2, [r3, #16]
 8003092:	0451      	lsls	r1, r2, #17
 8003094:	d509      	bpl.n	80030aa <HAL_DMA_IRQHandler+0x8c>
 8003096:	695a      	ldr	r2, [r3, #20]
 8003098:	0452      	lsls	r2, r2, #17
 800309a:	d506      	bpl.n	80030aa <HAL_DMA_IRQHandler+0x8c>
 800309c:	f44f 4280 	mov.w	r2, #16384	@ 0x4000
 80030a0:	60da      	str	r2, [r3, #12]
 80030a2:	6da2      	ldr	r2, [r4, #88]	@ 0x58
 80030a4:	f042 0208 	orr.w	r2, r2, #8
 80030a8:	65a2      	str	r2, [r4, #88]	@ 0x58
 80030aa:	691a      	ldr	r2, [r3, #16]
 80030ac:	0590      	lsls	r0, r2, #22
 80030ae:	d509      	bpl.n	80030c4 <HAL_DMA_IRQHandler+0xa6>
 80030b0:	695a      	ldr	r2, [r3, #20]
 80030b2:	0591      	lsls	r1, r2, #22
 80030b4:	d506      	bpl.n	80030c4 <HAL_DMA_IRQHandler+0xa6>
 80030b6:	f44f 7200 	mov.w	r2, #512	@ 0x200
 80030ba:	60da      	str	r2, [r3, #12]
 80030bc:	6e63      	ldr	r3, [r4, #100]	@ 0x64
 80030be:	b10b      	cbz	r3, 80030c4 <HAL_DMA_IRQHandler+0xa6>
 80030c0:	4620      	mov	r0, r4
 80030c2:	4798      	blx	r3
 80030c4:	6823      	ldr	r3, [r4, #0]
 80030c6:	691a      	ldr	r2, [r3, #16]
 80030c8:	0492      	lsls	r2, r2, #18
 80030ca:	d52e      	bpl.n	800312a <HAL_DMA_IRQHandler+0x10c>
 80030cc:	695a      	ldr	r2, [r3, #20]
 80030ce:	0490      	lsls	r0, r2, #18
 80030d0:	d52b      	bpl.n	800312a <HAL_DMA_IRQHandler+0x10c>
 80030d2:	f44f 5200 	mov.w	r2, #8192	@ 0x2000
 80030d6:	60da      	str	r2, [r3, #12]
 80030d8:	f894 2054 	ldrb.w	r2, [r4, #84]	@ 0x54
 80030dc:	2a04      	cmp	r2, #4
 80030de:	d11d      	bne.n	800311c <HAL_DMA_IRQHandler+0xfe>
 80030e0:	695a      	ldr	r2, [r3, #20]
 80030e2:	6d21      	ldr	r1, [r4, #80]	@ 0x50
 80030e4:	f422 5200 	bic.w	r2, r2, #8192	@ 0x2000
 80030e8:	615a      	str	r2, [r3, #20]
 80030ea:	695a      	ldr	r2, [r3, #20]
 80030ec:	0609      	lsls	r1, r1, #24
 80030ee:	f042 0202 	orr.w	r2, r2, #2
 80030f2:	615a      	str	r2, [r3, #20]
 80030f4:	f04f 0201 	mov.w	r2, #1
 80030f8:	bf48      	it	mi
 80030fa:	6f61      	ldrmi	r1, [r4, #116]	@ 0x74
 80030fc:	f884 2054 	strb.w	r2, [r4, #84]	@ 0x54
 8003100:	bf42      	ittt	mi
 8003102:	730a      	strbmi	r2, [r1, #12]
 8003104:	2200      	movmi	r2, #0
 8003106:	649a      	strmi	r2, [r3, #72]	@ 0x48
 8003108:	2300      	movs	r3, #0
 800310a:	f884 304c 	strb.w	r3, [r4, #76]	@ 0x4c
 800310e:	6ee3      	ldr	r3, [r4, #108]	@ 0x6c
 8003110:	2b00      	cmp	r3, #0
 8003112:	d042      	beq.n	800319a <HAL_DMA_IRQHandler+0x17c>
 8003114:	4620      	mov	r0, r4
 8003116:	e8bd 4010 	ldmia.w	sp!, {r4, lr}
 800311a:	4718      	bx	r3
 800311c:	2305      	movs	r3, #5
 800311e:	f884 3054 	strb.w	r3, [r4, #84]	@ 0x54
 8003122:	6f23      	ldr	r3, [r4, #112]	@ 0x70
 8003124:	b10b      	cbz	r3, 800312a <HAL_DMA_IRQHandler+0x10c>
 8003126:	4620      	mov	r0, r4
 8003128:	4798      	blx	r3
 800312a:	6823      	ldr	r3, [r4, #0]
 800312c:	691a      	ldr	r2, [r3, #16]
 800312e:	05d2      	lsls	r2, r2, #23
 8003130:	d518      	bpl.n	8003164 <HAL_DMA_IRQHandler+0x146>
 8003132:	695a      	ldr	r2, [r3, #20]
 8003134:	05d0      	lsls	r0, r2, #23
 8003136:	d515      	bpl.n	8003164 <HAL_DMA_IRQHandler+0x146>
 8003138:	6d22      	ldr	r2, [r4, #80]	@ 0x50
 800313a:	0611      	lsls	r1, r2, #24
 800313c:	d526      	bpl.n	800318c <HAL_DMA_IRQHandler+0x16e>
 800313e:	6fda      	ldr	r2, [r3, #124]	@ 0x7c
 8003140:	b932      	cbnz	r2, 8003150 <HAL_DMA_IRQHandler+0x132>
 8003142:	6c9a      	ldr	r2, [r3, #72]	@ 0x48
 8003144:	b922      	cbnz	r2, 8003150 <HAL_DMA_IRQHandler+0x132>
 8003146:	2201      	movs	r2, #1
 8003148:	6f61      	ldr	r1, [r4, #116]	@ 0x74
 800314a:	f884 2054 	strb.w	r2, [r4, #84]	@ 0x54
 800314e:	730a      	strb	r2, [r1, #12]
 8003150:	f44f 7240 	mov.w	r2, #768	@ 0x300
 8003154:	60da      	str	r2, [r3, #12]
 8003156:	2300      	movs	r3, #0
 8003158:	f884 304c 	strb.w	r3, [r4, #76]	@ 0x4c
 800315c:	6e23      	ldr	r3, [r4, #96]	@ 0x60
 800315e:	b10b      	cbz	r3, 8003164 <HAL_DMA_IRQHandler+0x146>
 8003160:	4620      	mov	r0, r4
 8003162:	4798      	blx	r3
 8003164:	6da3      	ldr	r3, [r4, #88]	@ 0x58
 8003166:	b1c3      	cbz	r3, 800319a <HAL_DMA_IRQHandler+0x17c>
 8003168:	6822      	ldr	r2, [r4, #0]
 800316a:	6953      	ldr	r3, [r2, #20]
 800316c:	f043 0302 	orr.w	r3, r3, #2
 8003170:	6153      	str	r3, [r2, #20]
 8003172:	2301      	movs	r3, #1
 8003174:	6d22      	ldr	r2, [r4, #80]	@ 0x50
 8003176:	f884 3054 	strb.w	r3, [r4, #84]	@ 0x54
 800317a:	0612      	lsls	r2, r2, #24
 800317c:	bf44      	itt	mi
 800317e:	6f62      	ldrmi	r2, [r4, #116]	@ 0x74
 8003180:	7313      	strbmi	r3, [r2, #12]
 8003182:	2300      	movs	r3, #0
 8003184:	f884 304c 	strb.w	r3, [r4, #76]	@ 0x4c
 8003188:	6ea3      	ldr	r3, [r4, #104]	@ 0x68
 800318a:	e7c1      	b.n	8003110 <HAL_DMA_IRQHandler+0xf2>
 800318c:	6c9a      	ldr	r2, [r3, #72]	@ 0x48
 800318e:	2a00      	cmp	r2, #0
 8003190:	d1de      	bne.n	8003150 <HAL_DMA_IRQHandler+0x132>
 8003192:	2201      	movs	r2, #1
 8003194:	f884 2054 	strb.w	r2, [r4, #84]	@ 0x54
 8003198:	e7da      	b.n	8003150 <HAL_DMA_IRQHandler+0x132>
 800319a:	bd10      	pop	{r4, pc}

0800319c <HAL_DMA_RegisterCallback>:
 800319c:	4603      	mov	r3, r0
 800319e:	b510      	push	{r4, lr}
 80031a0:	b1b0      	cbz	r0, 80031d0 <HAL_DMA_RegisterCallback+0x34>
 80031a2:	f890 4054 	ldrb.w	r4, [r0, #84]	@ 0x54
 80031a6:	2c01      	cmp	r4, #1
 80031a8:	b2e0      	uxtb	r0, r4
 80031aa:	d111      	bne.n	80031d0 <HAL_DMA_RegisterCallback+0x34>
 80031ac:	2904      	cmp	r1, #4
 80031ae:	d806      	bhi.n	80031be <HAL_DMA_RegisterCallback+0x22>
 80031b0:	e8df f001 	tbb	[pc, r1]
 80031b4:	0a080603 	.word	0x0a080603
 80031b8:	0c          	.byte	0x0c
 80031b9:	00          	.byte	0x00
 80031ba:	661a      	str	r2, [r3, #96]	@ 0x60
 80031bc:	2000      	movs	r0, #0
 80031be:	bd10      	pop	{r4, pc}
 80031c0:	665a      	str	r2, [r3, #100]	@ 0x64
 80031c2:	e7fb      	b.n	80031bc <HAL_DMA_RegisterCallback+0x20>
 80031c4:	669a      	str	r2, [r3, #104]	@ 0x68
 80031c6:	e7f9      	b.n	80031bc <HAL_DMA_RegisterCallback+0x20>
 80031c8:	66da      	str	r2, [r3, #108]	@ 0x6c
 80031ca:	e7f7      	b.n	80031bc <HAL_DMA_RegisterCallback+0x20>
 80031cc:	671a      	str	r2, [r3, #112]	@ 0x70
 80031ce:	e7f5      	b.n	80031bc <HAL_DMA_RegisterCallback+0x20>
 80031d0:	2001      	movs	r0, #1
 80031d2:	e7f4      	b.n	80031be <HAL_DMA_RegisterCallback+0x22>

080031d4 <HAL_DMA_ConfigChannelAttributes>:
 80031d4:	b1d0      	cbz	r0, 800320c <HAL_DMA_ConfigChannelAttributes+0x38>
 80031d6:	06cb      	lsls	r3, r1, #27
 80031d8:	d401      	bmi.n	80031de <HAL_DMA_ConfigChannelAttributes+0xa>
 80031da:	2000      	movs	r0, #0
 80031dc:	4770      	bx	lr
 80031de:	6803      	ldr	r3, [r0, #0]
 80031e0:	2001      	movs	r0, #1
 80031e2:	f423 627f 	bic.w	r2, r3, #4080	@ 0xff0
 80031e6:	f3c3 030b 	ubfx	r3, r3, #0, #12
 80031ea:	f022 020f 	bic.w	r2, r2, #15
 80031ee:	f001 0111 	and.w	r1, r1, #17
 80031f2:	3b50      	subs	r3, #80	@ 0x50
 80031f4:	2911      	cmp	r1, #17
 80031f6:	f3c3 13c4 	ubfx	r3, r3, #7, #5
 80031fa:	6851      	ldr	r1, [r2, #4]
 80031fc:	fa00 f303 	lsl.w	r3, r0, r3
 8003200:	bf0c      	ite	eq
 8003202:	430b      	orreq	r3, r1
 8003204:	ea21 0303 	bicne.w	r3, r1, r3
 8003208:	6053      	str	r3, [r2, #4]
 800320a:	e7e6      	b.n	80031da <HAL_DMA_ConfigChannelAttributes+0x6>
 800320c:	2001      	movs	r0, #1
 800320e:	4770      	bx	lr

08003210 <DMA_List_CheckNodesBaseAddresses>:
 8003210:	ea41 0302 	orr.w	r3, r1, r2
 8003214:	4303      	orrs	r3, r0
 8003216:	b918      	cbnz	r0, 8003220 <DMA_List_CheckNodesBaseAddresses+0x10>
 8003218:	b949      	cbnz	r1, 800322e <DMA_List_CheckNodesBaseAddresses+0x1e>
 800321a:	2a00      	cmp	r2, #0
 800321c:	bf18      	it	ne
 800321e:	4610      	movne	r0, r2
 8003220:	4058      	eors	r0, r3
 8003222:	f5b0 3f80 	cmp.w	r0, #65536	@ 0x10000
 8003226:	bf34      	ite	cc
 8003228:	2000      	movcc	r0, #0
 800322a:	2001      	movcs	r0, #1
 800322c:	4770      	bx	lr
 800322e:	4608      	mov	r0, r1
 8003230:	e7f6      	b.n	8003220 <DMA_List_CheckNodesBaseAddresses+0x10>

08003232 <DMA_List_CheckNodesTypes>:
 8003232:	b150      	cbz	r0, 800324a <DMA_List_CheckNodesTypes+0x18>
 8003234:	f890 3020 	ldrb.w	r3, [r0, #32]
 8003238:	b959      	cbnz	r1, 8003252 <DMA_List_CheckNodesTypes+0x20>
 800323a:	b192      	cbz	r2, 8003262 <DMA_List_CheckNodesTypes+0x30>
 800323c:	f892 0020 	ldrb.w	r0, [r2, #32]
 8003240:	4298      	cmp	r0, r3
 8003242:	bf14      	ite	ne
 8003244:	2003      	movne	r0, #3
 8003246:	2000      	moveq	r0, #0
 8003248:	4770      	bx	lr
 800324a:	b141      	cbz	r1, 800325e <DMA_List_CheckNodesTypes+0x2c>
 800324c:	f891 3020 	ldrb.w	r3, [r1, #32]
 8003250:	e7f3      	b.n	800323a <DMA_List_CheckNodesTypes+0x8>
 8003252:	f891 1020 	ldrb.w	r1, [r1, #32]
 8003256:	4299      	cmp	r1, r3
 8003258:	d0ef      	beq.n	800323a <DMA_List_CheckNodesTypes+0x8>
 800325a:	2002      	movs	r0, #2
 800325c:	4770      	bx	lr
 800325e:	4608      	mov	r0, r1
 8003260:	4770      	bx	lr
 8003262:	4610      	mov	r0, r2
 8003264:	4770      	bx	lr
	...

08003268 <DMA_List_FindNode>:
 8003268:	e92d 43f0 	stmdb	sp!, {r4, r5, r6, r7, r8, r9, lr}
 800326c:	f8d0 c008 	ldr.w	ip, [r0, #8]
 8003270:	6817      	ldr	r7, [r2, #0]
 8003272:	b389      	cbz	r1, 80032d8 <DMA_List_FindNode+0x70>
 8003274:	2500      	movs	r5, #0
 8003276:	f64f 76fc 	movw	r6, #65532	@ 0xfffc
 800327a:	462b      	mov	r3, r5
 800327c:	462c      	mov	r4, r5
 800327e:	f64f 7efc 	movw	lr, #65532	@ 0xfffc
 8003282:	f8df 808c 	ldr.w	r8, [pc, #140]	@ 8003310 <DMA_List_FindNode+0xa8>
 8003286:	400e      	ands	r6, r1
 8003288:	ea4f 0987 	mov.w	r9, r7, lsl #2
 800328c:	4564      	cmp	r4, ip
 800328e:	d03b      	beq.n	8003308 <DMA_List_FindNode+0xa0>
 8003290:	429e      	cmp	r6, r3
 8003292:	d00c      	beq.n	80032ae <DMA_List_FindNode+0x46>
 8003294:	6801      	ldr	r1, [r0, #0]
 8003296:	bb4c      	cbnz	r4, 80032ec <DMA_List_FindNode+0x84>
 8003298:	ea01 030e 	and.w	r3, r1, lr
 800329c:	3401      	adds	r4, #1
 800329e:	e7f5      	b.n	800328c <DMA_List_FindNode+0x24>
 80032a0:	6801      	ldr	r1, [r0, #0]
 80032a2:	b994      	cbnz	r4, 80032ca <DMA_List_FindNode+0x62>
 80032a4:	ea01 0306 	and.w	r3, r1, r6
 80032a8:	3401      	adds	r4, #1
 80032aa:	4564      	cmp	r4, ip
 80032ac:	d1f8      	bne.n	80032a0 <DMA_List_FindNode+0x38>
 80032ae:	6801      	ldr	r1, [r0, #0]
 80032b0:	6094      	str	r4, [r2, #8]
 80032b2:	0c09      	lsrs	r1, r1, #16
 80032b4:	0409      	lsls	r1, r1, #16
 80032b6:	430b      	orrs	r3, r1
 80032b8:	60d3      	str	r3, [r2, #12]
 80032ba:	f853 3027 	ldr.w	r3, [r3, r7, lsl #2]
 80032be:	430d      	orrs	r5, r1
 80032c0:	6055      	str	r5, [r2, #4]
 80032c2:	b9d3      	cbnz	r3, 80032fa <DMA_List_FindNode+0x92>
 80032c4:	2000      	movs	r0, #0
 80032c6:	e8bd 83f0 	ldmia.w	sp!, {r4, r5, r6, r7, r8, r9, pc}
 80032ca:	eb08 0503 	add.w	r5, r8, r3
 80032ce:	ea01 010e 	and.w	r1, r1, lr
 80032d2:	5869      	ldr	r1, [r5, r1]
 80032d4:	461d      	mov	r5, r3
 80032d6:	e7e5      	b.n	80032a4 <DMA_List_FindNode+0x3c>
 80032d8:	460d      	mov	r5, r1
 80032da:	460b      	mov	r3, r1
 80032dc:	460c      	mov	r4, r1
 80032de:	f64f 76fc 	movw	r6, #65532	@ 0xfffc
 80032e2:	f8df e02c 	ldr.w	lr, [pc, #44]	@ 8003310 <DMA_List_FindNode+0xa8>
 80032e6:	ea4f 0887 	mov.w	r8, r7, lsl #2
 80032ea:	e7de      	b.n	80032aa <DMA_List_FindNode+0x42>
 80032ec:	eb09 0503 	add.w	r5, r9, r3
 80032f0:	ea01 0108 	and.w	r1, r1, r8
 80032f4:	5869      	ldr	r1, [r5, r1]
 80032f6:	461d      	mov	r5, r3
 80032f8:	e7ce      	b.n	8003298 <DMA_List_FindNode+0x30>
 80032fa:	f023 0303 	bic.w	r3, r3, #3
 80032fe:	041b      	lsls	r3, r3, #16
 8003300:	0c1b      	lsrs	r3, r3, #16
 8003302:	430b      	orrs	r3, r1
 8003304:	6113      	str	r3, [r2, #16]
 8003306:	e7dd      	b.n	80032c4 <DMA_List_FindNode+0x5c>
 8003308:	429e      	cmp	r6, r3
 800330a:	d0d0      	beq.n	80032ae <DMA_List_FindNode+0x46>
 800330c:	2001      	movs	r0, #1
 800330e:	e7da      	b.n	80032c6 <DMA_List_FindNode+0x5e>
 8003310:	ffff0000 	.word	0xffff0000

08003314 <DMA_List_GetCLLRNodeInfo.isra.0>:
 8003314:	0783      	lsls	r3, r0, #30
 8003316:	d506      	bpl.n	8003326 <DMA_List_GetCLLRNodeInfo.isra.0+0x12>
 8003318:	b109      	cbz	r1, 800331e <DMA_List_GetCLLRNodeInfo.isra.0+0xa>
 800331a:	4b06      	ldr	r3, [pc, #24]	@ (8003334 <DMA_List_GetCLLRNodeInfo.isra.0+0x20>)
 800331c:	600b      	str	r3, [r1, #0]
 800331e:	b10a      	cbz	r2, 8003324 <DMA_List_GetCLLRNodeInfo.isra.0+0x10>
 8003320:	2307      	movs	r3, #7
 8003322:	6013      	str	r3, [r2, #0]
 8003324:	4770      	bx	lr
 8003326:	b109      	cbz	r1, 800332c <DMA_List_GetCLLRNodeInfo.isra.0+0x18>
 8003328:	4b03      	ldr	r3, [pc, #12]	@ (8003338 <DMA_List_GetCLLRNodeInfo.isra.0+0x24>)
 800332a:	600b      	str	r3, [r1, #0]
 800332c:	2a00      	cmp	r2, #0
 800332e:	d0f9      	beq.n	8003324 <DMA_List_GetCLLRNodeInfo.isra.0+0x10>
 8003330:	2305      	movs	r3, #5
 8003332:	e7f6      	b.n	8003322 <DMA_List_GetCLLRNodeInfo.isra.0+0xe>
 8003334:	fe010000 	.word	0xfe010000
 8003338:	f8010000 	.word	0xf8010000

0800333c <HAL_DMAEx_List_Init>:
 800333c:	b538      	push	{r3, r4, r5, lr}
 800333e:	4604      	mov	r4, r0
 8003340:	f7ff fd04 	bl	8002d4c <HAL_GetTick>
 8003344:	4605      	mov	r5, r0
 8003346:	2c00      	cmp	r4, #0
 8003348:	f000 80e7 	beq.w	800351a <HAL_DMAEx_List_Init+0x1de>
 800334c:	2300      	movs	r3, #0
 800334e:	f884 304c 	strb.w	r3, [r4, #76]	@ 0x4c
 8003352:	2302      	movs	r3, #2
 8003354:	6822      	ldr	r2, [r4, #0]
 8003356:	f884 3054 	strb.w	r3, [r4, #84]	@ 0x54
 800335a:	6953      	ldr	r3, [r2, #20]
 800335c:	f043 0306 	orr.w	r3, r3, #6
 8003360:	6153      	str	r3, [r2, #20]
 8003362:	6823      	ldr	r3, [r4, #0]
 8003364:	695a      	ldr	r2, [r3, #20]
 8003366:	07d2      	lsls	r2, r2, #31
 8003368:	f100 80cc 	bmi.w	8003504 <HAL_DMAEx_List_Init+0x1c8>
 800336c:	e9d4 120e 	ldrd	r1, r2, [r4, #56]	@ 0x38
 8003370:	4311      	orrs	r1, r2
 8003372:	4a6b      	ldr	r2, [pc, #428]	@ (8003520 <HAL_DMAEx_List_Init+0x1e4>)
 8003374:	486b      	ldr	r0, [pc, #428]	@ (8003524 <HAL_DMAEx_List_Init+0x1e8>)
 8003376:	4293      	cmp	r3, r2
 8003378:	f000 8088 	beq.w	800348c <HAL_DMAEx_List_Init+0x150>
 800337c:	f102 5280 	add.w	r2, r2, #268435456	@ 0x10000000
 8003380:	4293      	cmp	r3, r2
 8003382:	f000 8083 	beq.w	800348c <HAL_DMAEx_List_Init+0x150>
 8003386:	f102 4270 	add.w	r2, r2, #4026531840	@ 0xf0000000
 800338a:	3280      	adds	r2, #128	@ 0x80
 800338c:	4293      	cmp	r3, r2
 800338e:	d07d      	beq.n	800348c <HAL_DMAEx_List_Init+0x150>
 8003390:	f102 5280 	add.w	r2, r2, #268435456	@ 0x10000000
 8003394:	4293      	cmp	r3, r2
 8003396:	d079      	beq.n	800348c <HAL_DMAEx_List_Init+0x150>
 8003398:	f102 4270 	add.w	r2, r2, #4026531840	@ 0xf0000000
 800339c:	3280      	adds	r2, #128	@ 0x80
 800339e:	4293      	cmp	r3, r2
 80033a0:	d074      	beq.n	800348c <HAL_DMAEx_List_Init+0x150>
 80033a2:	f102 5280 	add.w	r2, r2, #268435456	@ 0x10000000
 80033a6:	4293      	cmp	r3, r2
 80033a8:	d070      	beq.n	800348c <HAL_DMAEx_List_Init+0x150>
 80033aa:	f102 4270 	add.w	r2, r2, #4026531840	@ 0xf0000000
 80033ae:	3280      	adds	r2, #128	@ 0x80
 80033b0:	4293      	cmp	r3, r2
 80033b2:	d06b      	beq.n	800348c <HAL_DMAEx_List_Init+0x150>
 80033b4:	f102 5280 	add.w	r2, r2, #268435456	@ 0x10000000
 80033b8:	4293      	cmp	r3, r2
 80033ba:	d067      	beq.n	800348c <HAL_DMAEx_List_Init+0x150>
 80033bc:	f102 4270 	add.w	r2, r2, #4026531840	@ 0xf0000000
 80033c0:	3280      	adds	r2, #128	@ 0x80
 80033c2:	4293      	cmp	r3, r2
 80033c4:	d062      	beq.n	800348c <HAL_DMAEx_List_Init+0x150>
 80033c6:	f102 5280 	add.w	r2, r2, #268435456	@ 0x10000000
 80033ca:	4293      	cmp	r3, r2
 80033cc:	d05e      	beq.n	800348c <HAL_DMAEx_List_Init+0x150>
 80033ce:	f102 4270 	add.w	r2, r2, #4026531840	@ 0xf0000000
 80033d2:	3280      	adds	r2, #128	@ 0x80
 80033d4:	4293      	cmp	r3, r2
 80033d6:	d059      	beq.n	800348c <HAL_DMAEx_List_Init+0x150>
 80033d8:	f102 5280 	add.w	r2, r2, #268435456	@ 0x10000000
 80033dc:	4293      	cmp	r3, r2
 80033de:	d055      	beq.n	800348c <HAL_DMAEx_List_Init+0x150>
 80033e0:	f102 4270 	add.w	r2, r2, #4026531840	@ 0xf0000000
 80033e4:	3280      	adds	r2, #128	@ 0x80
 80033e6:	4293      	cmp	r3, r2
 80033e8:	d050      	beq.n	800348c <HAL_DMAEx_List_Init+0x150>
 80033ea:	f102 5280 	add.w	r2, r2, #268435456	@ 0x10000000
 80033ee:	4293      	cmp	r3, r2
 80033f0:	d04c      	beq.n	800348c <HAL_DMAEx_List_Init+0x150>
 80033f2:	f102 4270 	add.w	r2, r2, #4026531840	@ 0xf0000000
 80033f6:	3280      	adds	r2, #128	@ 0x80
 80033f8:	4293      	cmp	r3, r2
 80033fa:	d047      	beq.n	800348c <HAL_DMAEx_List_Init+0x150>
 80033fc:	f102 5280 	add.w	r2, r2, #268435456	@ 0x10000000
 8003400:	4293      	cmp	r3, r2
 8003402:	d043      	beq.n	800348c <HAL_DMAEx_List_Init+0x150>
 8003404:	f102 4270 	add.w	r2, r2, #4026531840	@ 0xf0000000
 8003408:	3280      	adds	r2, #128	@ 0x80
 800340a:	4293      	cmp	r3, r2
 800340c:	d03e      	beq.n	800348c <HAL_DMAEx_List_Init+0x150>
 800340e:	f102 5280 	add.w	r2, r2, #268435456	@ 0x10000000
 8003412:	4293      	cmp	r3, r2
 8003414:	d03a      	beq.n	800348c <HAL_DMAEx_List_Init+0x150>
 8003416:	f102 4270 	add.w	r2, r2, #4026531840	@ 0xf0000000
 800341a:	3280      	adds	r2, #128	@ 0x80
 800341c:	4293      	cmp	r3, r2
 800341e:	d035      	beq.n	800348c <HAL_DMAEx_List_Init+0x150>
 8003420:	f102 5280 	add.w	r2, r2, #268435456	@ 0x10000000
 8003424:	4293      	cmp	r3, r2
 8003426:	d031      	beq.n	800348c <HAL_DMAEx_List_Init+0x150>
 8003428:	f102 4270 	add.w	r2, r2, #4026531840	@ 0xf0000000
 800342c:	3280      	adds	r2, #128	@ 0x80
 800342e:	4293      	cmp	r3, r2
 8003430:	d02c      	beq.n	800348c <HAL_DMAEx_List_Init+0x150>
 8003432:	f102 5280 	add.w	r2, r2, #268435456	@ 0x10000000
 8003436:	4293      	cmp	r3, r2
 8003438:	d028      	beq.n	800348c <HAL_DMAEx_List_Init+0x150>
 800343a:	f102 4270 	add.w	r2, r2, #4026531840	@ 0xf0000000
 800343e:	3280      	adds	r2, #128	@ 0x80
 8003440:	4293      	cmp	r3, r2
 8003442:	d023      	beq.n	800348c <HAL_DMAEx_List_Init+0x150>
 8003444:	f102 5280 	add.w	r2, r2, #268435456	@ 0x10000000
 8003448:	4293      	cmp	r3, r2
 800344a:	d01f      	beq.n	800348c <HAL_DMAEx_List_Init+0x150>
 800344c:	4283      	cmp	r3, r0
 800344e:	d01d      	beq.n	800348c <HAL_DMAEx_List_Init+0x150>
 8003450:	3280      	adds	r2, #128	@ 0x80
 8003452:	4293      	cmp	r3, r2
 8003454:	d01a      	beq.n	800348c <HAL_DMAEx_List_Init+0x150>
 8003456:	f102 4270 	add.w	r2, r2, #4026531840	@ 0xf0000000
 800345a:	3280      	adds	r2, #128	@ 0x80
 800345c:	4293      	cmp	r3, r2
 800345e:	d015      	beq.n	800348c <HAL_DMAEx_List_Init+0x150>
 8003460:	f102 5280 	add.w	r2, r2, #268435456	@ 0x10000000
 8003464:	4293      	cmp	r3, r2
 8003466:	d011      	beq.n	800348c <HAL_DMAEx_List_Init+0x150>
 8003468:	f102 4270 	add.w	r2, r2, #4026531840	@ 0xf0000000
 800346c:	3280      	adds	r2, #128	@ 0x80
 800346e:	4293      	cmp	r3, r2
 8003470:	d00c      	beq.n	800348c <HAL_DMAEx_List_Init+0x150>
 8003472:	f102 5280 	add.w	r2, r2, #268435456	@ 0x10000000
 8003476:	4293      	cmp	r3, r2
 8003478:	d008      	beq.n	800348c <HAL_DMAEx_List_Init+0x150>
 800347a:	f102 4270 	add.w	r2, r2, #4026531840	@ 0xf0000000
 800347e:	3280      	adds	r2, #128	@ 0x80
 8003480:	4293      	cmp	r3, r2
 8003482:	d003      	beq.n	800348c <HAL_DMAEx_List_Init+0x150>
 8003484:	f102 5280 	add.w	r2, r2, #268435456	@ 0x10000000
 8003488:	4293      	cmp	r3, r2
 800348a:	d101      	bne.n	8003490 <HAL_DMAEx_List_Init+0x154>
 800348c:	6c22      	ldr	r2, [r4, #64]	@ 0x40
 800348e:	4311      	orrs	r1, r2
 8003490:	695a      	ldr	r2, [r3, #20]
 8003492:	4283      	cmp	r3, r0
 8003494:	f422 0243 	bic.w	r2, r2, #12779520	@ 0xc30000
 8003498:	ea42 0201 	orr.w	r2, r2, r1
 800349c:	615a      	str	r2, [r3, #20]
 800349e:	f04f 0200 	mov.w	r2, #0
 80034a2:	6c61      	ldr	r1, [r4, #68]	@ 0x44
 80034a4:	641a      	str	r2, [r3, #64]	@ 0x40
 80034a6:	6459      	str	r1, [r3, #68]	@ 0x44
 80034a8:	649a      	str	r2, [r3, #72]	@ 0x48
 80034aa:	64da      	str	r2, [r3, #76]	@ 0x4c
 80034ac:	651a      	str	r2, [r3, #80]	@ 0x50
 80034ae:	d01d      	beq.n	80034ec <HAL_DMAEx_List_Init+0x1b0>
 80034b0:	4a1d      	ldr	r2, [pc, #116]	@ (8003528 <HAL_DMAEx_List_Init+0x1ec>)
 80034b2:	4293      	cmp	r3, r2
 80034b4:	d01a      	beq.n	80034ec <HAL_DMAEx_List_Init+0x1b0>
 80034b6:	f102 4270 	add.w	r2, r2, #4026531840	@ 0xf0000000
 80034ba:	3280      	adds	r2, #128	@ 0x80
 80034bc:	4293      	cmp	r3, r2
 80034be:	d015      	beq.n	80034ec <HAL_DMAEx_List_Init+0x1b0>
 80034c0:	f102 5280 	add.w	r2, r2, #268435456	@ 0x10000000
 80034c4:	4293      	cmp	r3, r2
 80034c6:	d011      	beq.n	80034ec <HAL_DMAEx_List_Init+0x1b0>
 80034c8:	f102 4270 	add.w	r2, r2, #4026531840	@ 0xf0000000
 80034cc:	3280      	adds	r2, #128	@ 0x80
 80034ce:	4293      	cmp	r3, r2
 80034d0:	d00c      	beq.n	80034ec <HAL_DMAEx_List_Init+0x1b0>
 80034d2:	f102 5280 	add.w	r2, r2, #268435456	@ 0x10000000
 80034d6:	4293      	cmp	r3, r2
 80034d8:	d008      	beq.n	80034ec <HAL_DMAEx_List_Init+0x1b0>
 80034da:	f102 4270 	add.w	r2, r2, #4026531840	@ 0xf0000000
 80034de:	3280      	adds	r2, #128	@ 0x80
 80034e0:	4293      	cmp	r3, r2
 80034e2:	d003      	beq.n	80034ec <HAL_DMAEx_List_Init+0x1b0>
 80034e4:	f102 5280 	add.w	r2, r2, #268435456	@ 0x10000000
 80034e8:	4293      	cmp	r3, r2
 80034ea:	d102      	bne.n	80034f2 <HAL_DMAEx_List_Init+0x1b6>
 80034ec:	2200      	movs	r2, #0
 80034ee:	655a      	str	r2, [r3, #84]	@ 0x54
 80034f0:	659a      	str	r2, [r3, #88]	@ 0x58
 80034f2:	2000      	movs	r0, #0
 80034f4:	67d8      	str	r0, [r3, #124]	@ 0x7c
 80034f6:	6ca3      	ldr	r3, [r4, #72]	@ 0x48
 80034f8:	65a0      	str	r0, [r4, #88]	@ 0x58
 80034fa:	6523      	str	r3, [r4, #80]	@ 0x50
 80034fc:	2301      	movs	r3, #1
 80034fe:	f884 3054 	strb.w	r3, [r4, #84]	@ 0x54
 8003502:	e00b      	b.n	800351c <HAL_DMAEx_List_Init+0x1e0>
 8003504:	f7ff fc22 	bl	8002d4c <HAL_GetTick>
 8003508:	1b40      	subs	r0, r0, r5
 800350a:	2805      	cmp	r0, #5
 800350c:	f67f af29 	bls.w	8003362 <HAL_DMAEx_List_Init+0x26>
 8003510:	2310      	movs	r3, #16
 8003512:	65a3      	str	r3, [r4, #88]	@ 0x58
 8003514:	2303      	movs	r3, #3
 8003516:	f884 3054 	strb.w	r3, [r4, #84]	@ 0x54
 800351a:	2001      	movs	r0, #1
 800351c:	bd38      	pop	{r3, r4, r5, pc}
 800351e:	bf00      	nop
 8003520:	40020050 	.word	0x40020050
 8003524:	40020650 	.word	0x40020650
 8003528:	50020650 	.word	0x50020650

0800352c <HAL_DMAEx_List_Start_IT>:
 800352c:	4603      	mov	r3, r0
 800352e:	b537      	push	{r0, r1, r2, r4, r5, lr}
 8003530:	2800      	cmp	r0, #0
 8003532:	d04b      	beq.n	80035cc <HAL_DMAEx_List_Start_IT+0xa0>
 8003534:	6f42      	ldr	r2, [r0, #116]	@ 0x74
 8003536:	2a00      	cmp	r2, #0
 8003538:	d048      	beq.n	80035cc <HAL_DMAEx_List_Start_IT+0xa0>
 800353a:	f890 1054 	ldrb.w	r1, [r0, #84]	@ 0x54
 800353e:	6804      	ldr	r4, [r0, #0]
 8003540:	2901      	cmp	r1, #1
 8003542:	6960      	ldr	r0, [r4, #20]
 8003544:	b2cd      	uxtb	r5, r1
 8003546:	d003      	beq.n	8003550 <HAL_DMAEx_List_Start_IT+0x24>
 8003548:	2d02      	cmp	r5, #2
 800354a:	d13a      	bne.n	80035c2 <HAL_DMAEx_List_Start_IT+0x96>
 800354c:	03c1      	lsls	r1, r0, #15
 800354e:	d538      	bpl.n	80035c2 <HAL_DMAEx_List_Start_IT+0x96>
 8003550:	f893 1054 	ldrb.w	r1, [r3, #84]	@ 0x54
 8003554:	2901      	cmp	r1, #1
 8003556:	b2cd      	uxtb	r5, r1
 8003558:	d12c      	bne.n	80035b4 <HAL_DMAEx_List_Start_IT+0x88>
 800355a:	f893 104c 	ldrb.w	r1, [r3, #76]	@ 0x4c
 800355e:	2002      	movs	r0, #2
 8003560:	2901      	cmp	r1, #1
 8003562:	d02c      	beq.n	80035be <HAL_DMAEx_List_Start_IT+0x92>
 8003564:	2100      	movs	r1, #0
 8003566:	f883 0054 	strb.w	r0, [r3, #84]	@ 0x54
 800356a:	f883 504c 	strb.w	r5, [r3, #76]	@ 0x4c
 800356e:	7310      	strb	r0, [r2, #12]
 8003570:	6599      	str	r1, [r3, #88]	@ 0x58
 8003572:	6111      	str	r1, [r2, #16]
 8003574:	6961      	ldr	r1, [r4, #20]
 8003576:	f441 41ba 	orr.w	r1, r1, #23808	@ 0x5d00
 800357a:	6161      	str	r1, [r4, #20]
 800357c:	6e59      	ldr	r1, [r3, #100]	@ 0x64
 800357e:	b119      	cbz	r1, 8003588 <HAL_DMAEx_List_Start_IT+0x5c>
 8003580:	6961      	ldr	r1, [r4, #20]
 8003582:	f441 7100 	orr.w	r1, r1, #512	@ 0x200
 8003586:	6161      	str	r1, [r4, #20]
 8003588:	6f1b      	ldr	r3, [r3, #112]	@ 0x70
 800358a:	b11b      	cbz	r3, 8003594 <HAL_DMAEx_List_Start_IT+0x68>
 800358c:	6963      	ldr	r3, [r4, #20]
 800358e:	f443 5300 	orr.w	r3, r3, #8192	@ 0x2000
 8003592:	6163      	str	r3, [r4, #20]
 8003594:	6815      	ldr	r5, [r2, #0]
 8003596:	a901      	add	r1, sp, #4
 8003598:	6a28      	ldr	r0, [r5, #32]
 800359a:	2200      	movs	r2, #0
 800359c:	f7ff feba 	bl	8003314 <DMA_List_GetCLLRNodeInfo.isra.0>
 80035a0:	0c2b      	lsrs	r3, r5, #16
 80035a2:	041b      	lsls	r3, r3, #16
 80035a4:	f025 0503 	bic.w	r5, r5, #3
 80035a8:	6023      	str	r3, [r4, #0]
 80035aa:	042d      	lsls	r5, r5, #16
 80035ac:	9b01      	ldr	r3, [sp, #4]
 80035ae:	0c2d      	lsrs	r5, r5, #16
 80035b0:	431d      	orrs	r5, r3
 80035b2:	67e5      	str	r5, [r4, #124]	@ 0x7c
 80035b4:	2000      	movs	r0, #0
 80035b6:	6963      	ldr	r3, [r4, #20]
 80035b8:	f043 0301 	orr.w	r3, r3, #1
 80035bc:	6163      	str	r3, [r4, #20]
 80035be:	b003      	add	sp, #12
 80035c0:	bd30      	pop	{r4, r5, pc}
 80035c2:	2240      	movs	r2, #64	@ 0x40
 80035c4:	659a      	str	r2, [r3, #88]	@ 0x58
 80035c6:	2200      	movs	r2, #0
 80035c8:	f883 204c 	strb.w	r2, [r3, #76]	@ 0x4c
 80035cc:	2001      	movs	r0, #1
 80035ce:	e7f6      	b.n	80035be <HAL_DMAEx_List_Start_IT+0x92>

080035d0 <HAL_DMAEx_List_BuildNode>:
 80035d0:	b5f0      	push	{r4, r5, r6, r7, lr}
 80035d2:	2800      	cmp	r0, #0
 80035d4:	f000 8091 	beq.w	80036fa <HAL_DMAEx_List_BuildNode+0x12a>
 80035d8:	2900      	cmp	r1, #0
 80035da:	f000 808e 	beq.w	80036fa <HAL_DMAEx_List_BuildNode+0x12a>
 80035de:	69c3      	ldr	r3, [r0, #28]
 80035e0:	6945      	ldr	r5, [r0, #20]
 80035e2:	6802      	ldr	r2, [r0, #0]
 80035e4:	431d      	orrs	r5, r3
 80035e6:	6bc3      	ldr	r3, [r0, #60]	@ 0x3c
 80035e8:	f012 0420 	ands.w	r4, r2, #32
 80035ec:	ea45 0503 	orr.w	r5, r5, r3
 80035f0:	6903      	ldr	r3, [r0, #16]
 80035f2:	ea45 0503 	orr.w	r5, r5, r3
 80035f6:	6983      	ldr	r3, [r0, #24]
 80035f8:	ea45 0503 	orr.w	r5, r5, r3
 80035fc:	600d      	str	r5, [r1, #0]
 80035fe:	d010      	beq.n	8003622 <HAL_DMAEx_List_BuildNode+0x52>
 8003600:	6a83      	ldr	r3, [r0, #40]	@ 0x28
 8003602:	6ac6      	ldr	r6, [r0, #44]	@ 0x2c
 8003604:	6b87      	ldr	r7, [r0, #56]	@ 0x38
 8003606:	3b01      	subs	r3, #1
 8003608:	051b      	lsls	r3, r3, #20
 800360a:	433e      	orrs	r6, r7
 800360c:	f003 737c 	and.w	r3, r3, #66060288	@ 0x3f00000
 8003610:	4333      	orrs	r3, r6
 8003612:	6a46      	ldr	r6, [r0, #36]	@ 0x24
 8003614:	3e01      	subs	r6, #1
 8003616:	0136      	lsls	r6, r6, #4
 8003618:	f406 767c 	and.w	r6, r6, #1008	@ 0x3f0
 800361c:	4333      	orrs	r3, r6
 800361e:	432b      	orrs	r3, r5
 8003620:	600b      	str	r3, [r1, #0]
 8003622:	6843      	ldr	r3, [r0, #4]
 8003624:	6b05      	ldr	r5, [r0, #48]	@ 0x30
 8003626:	f423 73c0 	bic.w	r3, r3, #384	@ 0x180
 800362a:	059b      	lsls	r3, r3, #22
 800362c:	0d9b      	lsrs	r3, r3, #22
 800362e:	432b      	orrs	r3, r5
 8003630:	68c5      	ldr	r5, [r0, #12]
 8003632:	604b      	str	r3, [r1, #4]
 8003634:	f5b5 6f80 	cmp.w	r5, #1024	@ 0x400
 8003638:	d13b      	bne.n	80036b2 <HAL_DMAEx_List_BuildNode+0xe2>
 800363a:	b114      	cbz	r4, 8003642 <HAL_DMAEx_List_BuildNode+0x72>
 800363c:	f443 6380 	orr.w	r3, r3, #1024	@ 0x400
 8003640:	604b      	str	r3, [r1, #4]
 8003642:	6c43      	ldr	r3, [r0, #68]	@ 0x44
 8003644:	b14b      	cbz	r3, 800365a <HAL_DMAEx_List_BuildNode+0x8a>
 8003646:	6c04      	ldr	r4, [r0, #64]	@ 0x40
 8003648:	4323      	orrs	r3, r4
 800364a:	684c      	ldr	r4, [r1, #4]
 800364c:	4323      	orrs	r3, r4
 800364e:	6c84      	ldr	r4, [r0, #72]	@ 0x48
 8003650:	0424      	lsls	r4, r4, #16
 8003652:	f404 147c 	and.w	r4, r4, #4128768	@ 0x3f0000
 8003656:	4323      	orrs	r3, r4
 8003658:	604b      	str	r3, [r1, #4]
 800365a:	f8b0 5068 	ldrh.w	r5, [r0, #104]	@ 0x68
 800365e:	f012 0602 	ands.w	r6, r2, #2
 8003662:	608d      	str	r5, [r1, #8]
 8003664:	d01b      	beq.n	800369e <HAL_DMAEx_List_BuildNode+0xce>
 8003666:	6cc3      	ldr	r3, [r0, #76]	@ 0x4c
 8003668:	1e5c      	subs	r4, r3, #1
 800366a:	4b25      	ldr	r3, [pc, #148]	@ (8003700 <HAL_DMAEx_List_BuildNode+0x130>)
 800366c:	ea03 4304 	and.w	r3, r3, r4, lsl #16
 8003670:	6d04      	ldr	r4, [r0, #80]	@ 0x50
 8003672:	432b      	orrs	r3, r5
 8003674:	2c00      	cmp	r4, #0
 8003676:	6d44      	ldr	r4, [r0, #84]	@ 0x54
 8003678:	bfb8      	it	lt
 800367a:	f043 5380 	orrlt.w	r3, r3, #268435456	@ 0x10000000
 800367e:	2c00      	cmp	r4, #0
 8003680:	6d84      	ldr	r4, [r0, #88]	@ 0x58
 8003682:	bfb8      	it	lt
 8003684:	f043 5300 	orrlt.w	r3, r3, #536870912	@ 0x20000000
 8003688:	2c00      	cmp	r4, #0
 800368a:	6dc4      	ldr	r4, [r0, #92]	@ 0x5c
 800368c:	bfb8      	it	lt
 800368e:	f043 4380 	orrlt.w	r3, r3, #1073741824	@ 0x40000000
 8003692:	2c00      	cmp	r4, #0
 8003694:	608b      	str	r3, [r1, #8]
 8003696:	bfbc      	itt	lt
 8003698:	f043 4300 	orrlt.w	r3, r3, #2147483648	@ 0x80000000
 800369c:	608b      	strlt	r3, [r1, #8]
 800369e:	6e03      	ldr	r3, [r0, #96]	@ 0x60
 80036a0:	60cb      	str	r3, [r1, #12]
 80036a2:	6e43      	ldr	r3, [r0, #100]	@ 0x64
 80036a4:	610b      	str	r3, [r1, #16]
 80036a6:	b956      	cbnz	r6, 80036be <HAL_DMAEx_List_BuildNode+0xee>
 80036a8:	f442 62a0 	orr.w	r2, r2, #1280	@ 0x500
 80036ac:	2000      	movs	r0, #0
 80036ae:	620a      	str	r2, [r1, #32]
 80036b0:	bdf0      	pop	{r4, r5, r6, r7, pc}
 80036b2:	f5b5 7f00 	cmp.w	r5, #512	@ 0x200
 80036b6:	d1c4      	bne.n	8003642 <HAL_DMAEx_List_BuildNode+0x72>
 80036b8:	f443 7300 	orr.w	r3, r3, #512	@ 0x200
 80036bc:	e7c0      	b.n	8003640 <HAL_DMAEx_List_BuildNode+0x70>
 80036be:	6d03      	ldr	r3, [r0, #80]	@ 0x50
 80036c0:	6d45      	ldr	r5, [r0, #84]	@ 0x54
 80036c2:	2b00      	cmp	r3, #0
 80036c4:	bfb8      	it	lt
 80036c6:	425b      	neglt	r3, r3
 80036c8:	4c0e      	ldr	r4, [pc, #56]	@ (8003704 <HAL_DMAEx_List_BuildNode+0x134>)
 80036ca:	2d00      	cmp	r5, #0
 80036cc:	bfb8      	it	lt
 80036ce:	426d      	neglt	r5, r5
 80036d0:	f3c3 030c 	ubfx	r3, r3, #0, #13
 80036d4:	ea04 4405 	and.w	r4, r4, r5, lsl #16
 80036d8:	4323      	orrs	r3, r4
 80036da:	614b      	str	r3, [r1, #20]
 80036dc:	6d83      	ldr	r3, [r0, #88]	@ 0x58
 80036de:	6dc0      	ldr	r0, [r0, #92]	@ 0x5c
 80036e0:	2b00      	cmp	r3, #0
 80036e2:	bfb8      	it	lt
 80036e4:	425b      	neglt	r3, r3
 80036e6:	2800      	cmp	r0, #0
 80036e8:	b29b      	uxth	r3, r3
 80036ea:	bfb8      	it	lt
 80036ec:	4240      	neglt	r0, r0
 80036ee:	ea43 4300 	orr.w	r3, r3, r0, lsl #16
 80036f2:	618b      	str	r3, [r1, #24]
 80036f4:	f442 62e0 	orr.w	r2, r2, #1792	@ 0x700
 80036f8:	e7d8      	b.n	80036ac <HAL_DMAEx_List_BuildNode+0xdc>
 80036fa:	2001      	movs	r0, #1
 80036fc:	e7d8      	b.n	80036b0 <HAL_DMAEx_List_BuildNode+0xe0>
 80036fe:	bf00      	nop
 8003700:	07ff0000 	.word	0x07ff0000
 8003704:	1fff0000 	.word	0x1fff0000

08003708 <HAL_DMAEx_List_InsertNode_Head>:
 8003708:	b573      	push	{r0, r1, r4, r5, r6, lr}
 800370a:	460e      	mov	r6, r1
 800370c:	4604      	mov	r4, r0
 800370e:	b128      	cbz	r0, 800371c <HAL_DMAEx_List_InsertNode_Head+0x14>
 8003710:	b121      	cbz	r1, 800371c <HAL_DMAEx_List_InsertNode_Head+0x14>
 8003712:	6943      	ldr	r3, [r0, #20]
 8003714:	2b01      	cmp	r3, #1
 8003716:	d104      	bne.n	8003722 <HAL_DMAEx_List_InsertNode_Head+0x1a>
 8003718:	2304      	movs	r3, #4
 800371a:	6123      	str	r3, [r4, #16]
 800371c:	2001      	movs	r0, #1
 800371e:	b002      	add	sp, #8
 8003720:	bd70      	pop	{r4, r5, r6, pc}
 8003722:	6805      	ldr	r5, [r0, #0]
 8003724:	2200      	movs	r2, #0
 8003726:	4628      	mov	r0, r5
 8003728:	f7ff fd72 	bl	8003210 <DMA_List_CheckNodesBaseAddresses>
 800372c:	b108      	cbz	r0, 8003732 <HAL_DMAEx_List_InsertNode_Head+0x2a>
 800372e:	2305      	movs	r3, #5
 8003730:	e7f3      	b.n	800371a <HAL_DMAEx_List_InsertNode_Head+0x12>
 8003732:	4628      	mov	r0, r5
 8003734:	f7ff fd7d 	bl	8003232 <DMA_List_CheckNodesTypes>
 8003738:	2800      	cmp	r0, #0
 800373a:	d1ed      	bne.n	8003718 <HAL_DMAEx_List_InsertNode_Head+0x10>
 800373c:	2302      	movs	r3, #2
 800373e:	7323      	strb	r3, [r4, #12]
 8003740:	6120      	str	r0, [r4, #16]
 8003742:	b16d      	cbz	r5, 8003760 <HAL_DMAEx_List_InsertNode_Head+0x58>
 8003744:	4669      	mov	r1, sp
 8003746:	6a30      	ldr	r0, [r6, #32]
 8003748:	aa01      	add	r2, sp, #4
 800374a:	f025 0503 	bic.w	r5, r5, #3
 800374e:	f7ff fde1 	bl	8003314 <DMA_List_GetCLLRNodeInfo.isra.0>
 8003752:	042d      	lsls	r5, r5, #16
 8003754:	9b00      	ldr	r3, [sp, #0]
 8003756:	0c2d      	lsrs	r5, r5, #16
 8003758:	431d      	orrs	r5, r3
 800375a:	9b01      	ldr	r3, [sp, #4]
 800375c:	f846 5023 	str.w	r5, [r6, r3, lsl #2]
 8003760:	68a3      	ldr	r3, [r4, #8]
 8003762:	2000      	movs	r0, #0
 8003764:	3301      	adds	r3, #1
 8003766:	60a3      	str	r3, [r4, #8]
 8003768:	2301      	movs	r3, #1
 800376a:	6120      	str	r0, [r4, #16]
 800376c:	6026      	str	r6, [r4, #0]
 800376e:	7323      	strb	r3, [r4, #12]
 8003770:	e7d5      	b.n	800371e <HAL_DMAEx_List_InsertNode_Head+0x16>

08003772 <HAL_DMAEx_List_InsertNode_Tail>:
 8003772:	b5f0      	push	{r4, r5, r6, r7, lr}
 8003774:	460d      	mov	r5, r1
 8003776:	4604      	mov	r4, r0
 8003778:	b089      	sub	sp, #36	@ 0x24
 800377a:	b128      	cbz	r0, 8003788 <HAL_DMAEx_List_InsertNode_Tail+0x16>
 800377c:	b121      	cbz	r1, 8003788 <HAL_DMAEx_List_InsertNode_Tail+0x16>
 800377e:	6943      	ldr	r3, [r0, #20]
 8003780:	2b01      	cmp	r3, #1
 8003782:	d104      	bne.n	800378e <HAL_DMAEx_List_InsertNode_Tail+0x1c>
 8003784:	2304      	movs	r3, #4
 8003786:	6123      	str	r3, [r4, #16]
 8003788:	2001      	movs	r0, #1
 800378a:	b009      	add	sp, #36	@ 0x24
 800378c:	bdf0      	pop	{r4, r5, r6, r7, pc}
 800378e:	6807      	ldr	r7, [r0, #0]
 8003790:	2200      	movs	r2, #0
 8003792:	4638      	mov	r0, r7
 8003794:	f7ff fd3c 	bl	8003210 <DMA_List_CheckNodesBaseAddresses>
 8003798:	b108      	cbz	r0, 800379e <HAL_DMAEx_List_InsertNode_Tail+0x2c>
 800379a:	2305      	movs	r3, #5
 800379c:	e7f3      	b.n	8003786 <HAL_DMAEx_List_InsertNode_Tail+0x14>
 800379e:	4638      	mov	r0, r7
 80037a0:	f7ff fd47 	bl	8003232 <DMA_List_CheckNodesTypes>
 80037a4:	4606      	mov	r6, r0
 80037a6:	2800      	cmp	r0, #0
 80037a8:	d1ec      	bne.n	8003784 <HAL_DMAEx_List_InsertNode_Tail+0x12>
 80037aa:	b947      	cbnz	r7, 80037be <HAL_DMAEx_List_InsertNode_Tail+0x4c>
 80037ac:	6025      	str	r5, [r4, #0]
 80037ae:	68a3      	ldr	r3, [r4, #8]
 80037b0:	2000      	movs	r0, #0
 80037b2:	3301      	adds	r3, #1
 80037b4:	60a3      	str	r3, [r4, #8]
 80037b6:	2301      	movs	r3, #1
 80037b8:	6120      	str	r0, [r4, #16]
 80037ba:	7323      	strb	r3, [r4, #12]
 80037bc:	e7e5      	b.n	800378a <HAL_DMAEx_List_InsertNode_Tail+0x18>
 80037be:	6a28      	ldr	r0, [r5, #32]
 80037c0:	aa02      	add	r2, sp, #8
 80037c2:	a901      	add	r1, sp, #4
 80037c4:	f7ff fda6 	bl	8003314 <DMA_List_GetCLLRNodeInfo.isra.0>
 80037c8:	9f02      	ldr	r7, [sp, #8]
 80037ca:	aa03      	add	r2, sp, #12
 80037cc:	4631      	mov	r1, r6
 80037ce:	4620      	mov	r0, r4
 80037d0:	9703      	str	r7, [sp, #12]
 80037d2:	f7ff fd49 	bl	8003268 <DMA_List_FindNode>
 80037d6:	6863      	ldr	r3, [r4, #4]
 80037d8:	9a01      	ldr	r2, [sp, #4]
 80037da:	b133      	cbz	r3, 80037ea <HAL_DMAEx_List_InsertNode_Tail+0x78>
 80037dc:	f023 0303 	bic.w	r3, r3, #3
 80037e0:	041b      	lsls	r3, r3, #16
 80037e2:	0c1b      	lsrs	r3, r3, #16
 80037e4:	4313      	orrs	r3, r2
 80037e6:	f845 3027 	str.w	r3, [r5, r7, lsl #2]
 80037ea:	f025 0503 	bic.w	r5, r5, #3
 80037ee:	042d      	lsls	r5, r5, #16
 80037f0:	9b06      	ldr	r3, [sp, #24]
 80037f2:	0c2d      	lsrs	r5, r5, #16
 80037f4:	4315      	orrs	r5, r2
 80037f6:	f843 5027 	str.w	r5, [r3, r7, lsl #2]
 80037fa:	e7d8      	b.n	80037ae <HAL_DMAEx_List_InsertNode_Tail+0x3c>

080037fc <HAL_DMAEx_List_ResetQ>:
 80037fc:	e92d 43f7 	stmdb	sp!, {r0, r1, r2, r4, r5, r6, r7, r8, r9, lr}
 8003800:	4604      	mov	r4, r0
 8003802:	b120      	cbz	r0, 800380e <HAL_DMAEx_List_ResetQ+0x12>
 8003804:	7b03      	ldrb	r3, [r0, #12]
 8003806:	2b02      	cmp	r3, #2
 8003808:	d105      	bne.n	8003816 <HAL_DMAEx_List_ResetQ+0x1a>
 800380a:	2301      	movs	r3, #1
 800380c:	6123      	str	r3, [r4, #16]
 800380e:	2001      	movs	r0, #1
 8003810:	b003      	add	sp, #12
 8003812:	e8bd 83f0 	ldmia.w	sp!, {r4, r5, r6, r7, r8, r9, pc}
 8003816:	6943      	ldr	r3, [r0, #20]
 8003818:	2b01      	cmp	r3, #1
 800381a:	d101      	bne.n	8003820 <HAL_DMAEx_List_ResetQ+0x24>
 800381c:	2304      	movs	r3, #4
 800381e:	e7f5      	b.n	800380c <HAL_DMAEx_List_ResetQ+0x10>
 8003820:	2302      	movs	r3, #2
 8003822:	2100      	movs	r1, #0
 8003824:	6805      	ldr	r5, [r0, #0]
 8003826:	7303      	strb	r3, [r0, #12]
 8003828:	6101      	str	r1, [r0, #16]
 800382a:	b935      	cbnz	r5, 800383a <HAL_DMAEx_List_ResetQ+0x3e>
 800382c:	2000      	movs	r0, #0
 800382e:	6120      	str	r0, [r4, #16]
 8003830:	e9c4 0001 	strd	r0, r0, [r4, #4]
 8003834:	6020      	str	r0, [r4, #0]
 8003836:	7320      	strb	r0, [r4, #12]
 8003838:	e7ea      	b.n	8003810 <HAL_DMAEx_List_ResetQ+0x14>
 800383a:	6a28      	ldr	r0, [r5, #32]
 800383c:	aa01      	add	r2, sp, #4
 800383e:	f64f 76fc 	movw	r6, #65532	@ 0xfffc
 8003842:	f7ff fd67 	bl	8003314 <DMA_List_GetCLLRNodeInfo.isra.0>
 8003846:	4689      	mov	r9, r1
 8003848:	460a      	mov	r2, r1
 800384a:	9f01      	ldr	r7, [sp, #4]
 800384c:	0c28      	lsrs	r0, r5, #16
 800384e:	f8d4 e008 	ldr.w	lr, [r4, #8]
 8003852:	0400      	lsls	r0, r0, #16
 8003854:	ea4f 0c87 	mov.w	ip, r7, lsl #2
 8003858:	ea05 0806 	and.w	r8, r5, r6
 800385c:	4572      	cmp	r2, lr
 800385e:	d0e5      	beq.n	800382c <HAL_DMAEx_List_ResetQ+0x30>
 8003860:	b94a      	cbnz	r2, 8003876 <HAL_DMAEx_List_ResetQ+0x7a>
 8003862:	4641      	mov	r1, r8
 8003864:	f855 3027 	ldr.w	r3, [r5, r7, lsl #2]
 8003868:	4461      	add	r1, ip
 800386a:	4033      	ands	r3, r6
 800386c:	f841 9000 	str.w	r9, [r1, r0]
 8003870:	3201      	adds	r2, #1
 8003872:	4619      	mov	r1, r3
 8003874:	e7f2      	b.n	800385c <HAL_DMAEx_List_ResetQ+0x60>
 8003876:	eb0c 0301 	add.w	r3, ip, r1
 800387a:	581b      	ldr	r3, [r3, r0]
 800387c:	e7f4      	b.n	8003868 <HAL_DMAEx_List_ResetQ+0x6c>
	...

08003880 <HAL_DMAEx_List_LinkQ>:
 8003880:	b170      	cbz	r0, 80038a0 <HAL_DMAEx_List_LinkQ+0x20>
 8003882:	b169      	cbz	r1, 80038a0 <HAL_DMAEx_List_LinkQ+0x20>
 8003884:	f890 3054 	ldrb.w	r3, [r0, #84]	@ 0x54
 8003888:	f890 2054 	ldrb.w	r2, [r0, #84]	@ 0x54
 800388c:	b2db      	uxtb	r3, r3
 800388e:	2a02      	cmp	r2, #2
 8003890:	d001      	beq.n	8003896 <HAL_DMAEx_List_LinkQ+0x16>
 8003892:	2b05      	cmp	r3, #5
 8003894:	d106      	bne.n	80038a4 <HAL_DMAEx_List_LinkQ+0x24>
 8003896:	2340      	movs	r3, #64	@ 0x40
 8003898:	6583      	str	r3, [r0, #88]	@ 0x58
 800389a:	2300      	movs	r3, #0
 800389c:	f880 304c 	strb.w	r3, [r0, #76]	@ 0x4c
 80038a0:	2001      	movs	r0, #1
 80038a2:	4770      	bx	lr
 80038a4:	7b0b      	ldrb	r3, [r1, #12]
 80038a6:	2b02      	cmp	r3, #2
 80038a8:	d102      	bne.n	80038b0 <HAL_DMAEx_List_LinkQ+0x30>
 80038aa:	2301      	movs	r3, #1
 80038ac:	610b      	str	r3, [r1, #16]
 80038ae:	e7f7      	b.n	80038a0 <HAL_DMAEx_List_LinkQ+0x20>
 80038b0:	6803      	ldr	r3, [r0, #0]
 80038b2:	4a1a      	ldr	r2, [pc, #104]	@ (800391c <HAL_DMAEx_List_LinkQ+0x9c>)
 80038b4:	4293      	cmp	r3, r2
 80038b6:	d024      	beq.n	8003902 <HAL_DMAEx_List_LinkQ+0x82>
 80038b8:	f102 5280 	add.w	r2, r2, #268435456	@ 0x10000000
 80038bc:	4293      	cmp	r3, r2
 80038be:	d020      	beq.n	8003902 <HAL_DMAEx_List_LinkQ+0x82>
 80038c0:	f102 4270 	add.w	r2, r2, #4026531840	@ 0xf0000000
 80038c4:	3280      	adds	r2, #128	@ 0x80
 80038c6:	4293      	cmp	r3, r2
 80038c8:	d01b      	beq.n	8003902 <HAL_DMAEx_List_LinkQ+0x82>
 80038ca:	f102 5280 	add.w	r2, r2, #268435456	@ 0x10000000
 80038ce:	4293      	cmp	r3, r2
 80038d0:	d017      	beq.n	8003902 <HAL_DMAEx_List_LinkQ+0x82>
 80038d2:	f102 4270 	add.w	r2, r2, #4026531840	@ 0xf0000000
 80038d6:	3280      	adds	r2, #128	@ 0x80
 80038d8:	4293      	cmp	r3, r2
 80038da:	d012      	beq.n	8003902 <HAL_DMAEx_List_LinkQ+0x82>
 80038dc:	f102 5280 	add.w	r2, r2, #268435456	@ 0x10000000
 80038e0:	4293      	cmp	r3, r2
 80038e2:	d00e      	beq.n	8003902 <HAL_DMAEx_List_LinkQ+0x82>
 80038e4:	f102 4270 	add.w	r2, r2, #4026531840	@ 0xf0000000
 80038e8:	3280      	adds	r2, #128	@ 0x80
 80038ea:	4293      	cmp	r3, r2
 80038ec:	d009      	beq.n	8003902 <HAL_DMAEx_List_LinkQ+0x82>
 80038ee:	f102 5280 	add.w	r2, r2, #268435456	@ 0x10000000
 80038f2:	4293      	cmp	r3, r2
 80038f4:	d005      	beq.n	8003902 <HAL_DMAEx_List_LinkQ+0x82>
 80038f6:	680b      	ldr	r3, [r1, #0]
 80038f8:	6a1b      	ldr	r3, [r3, #32]
 80038fa:	079b      	lsls	r3, r3, #30
 80038fc:	d501      	bpl.n	8003902 <HAL_DMAEx_List_LinkQ+0x82>
 80038fe:	2303      	movs	r3, #3
 8003900:	e7d4      	b.n	80038ac <HAL_DMAEx_List_LinkQ+0x2c>
 8003902:	6d02      	ldr	r2, [r0, #80]	@ 0x50
 8003904:	684b      	ldr	r3, [r1, #4]
 8003906:	2a81      	cmp	r2, #129	@ 0x81
 8003908:	d102      	bne.n	8003910 <HAL_DMAEx_List_LinkQ+0x90>
 800390a:	b91b      	cbnz	r3, 8003914 <HAL_DMAEx_List_LinkQ+0x94>
 800390c:	2304      	movs	r3, #4
 800390e:	e7cd      	b.n	80038ac <HAL_DMAEx_List_LinkQ+0x2c>
 8003910:	2b00      	cmp	r3, #0
 8003912:	d1fb      	bne.n	800390c <HAL_DMAEx_List_LinkQ+0x8c>
 8003914:	6741      	str	r1, [r0, #116]	@ 0x74
 8003916:	2000      	movs	r0, #0
 8003918:	4770      	bx	lr
 800391a:	bf00      	nop
 800391c:	40020650 	.word	0x40020650

08003920 <HAL_EXTI_RegisterCallback>:
 8003920:	2901      	cmp	r1, #1
 8003922:	d005      	beq.n	8003930 <HAL_EXTI_RegisterCallback+0x10>
 8003924:	2902      	cmp	r1, #2
 8003926:	d001      	beq.n	800392c <HAL_EXTI_RegisterCallback+0xc>
 8003928:	b929      	cbnz	r1, 8003936 <HAL_EXTI_RegisterCallback+0x16>
 800392a:	6042      	str	r2, [r0, #4]
 800392c:	6082      	str	r2, [r0, #8]
 800392e:	e000      	b.n	8003932 <HAL_EXTI_RegisterCallback+0x12>
 8003930:	6042      	str	r2, [r0, #4]
 8003932:	2000      	movs	r0, #0
 8003934:	4770      	bx	lr
 8003936:	2001      	movs	r0, #1
 8003938:	4770      	bx	lr

0800393a <HAL_EXTI_GetHandle>:
 800393a:	b110      	cbz	r0, 8003942 <HAL_EXTI_GetHandle+0x8>
 800393c:	6001      	str	r1, [r0, #0]
 800393e:	2000      	movs	r0, #0
 8003940:	4770      	bx	lr
 8003942:	2001      	movs	r0, #1
 8003944:	4770      	bx	lr
	...

08003948 <HAL_EXTI_ClearPending>:
 8003948:	6803      	ldr	r3, [r0, #0]
 800394a:	2001      	movs	r0, #1
 800394c:	f003 021f 	and.w	r2, r3, #31
 8003950:	2901      	cmp	r1, #1
 8003952:	fa00 f002 	lsl.w	r0, r0, r2
 8003956:	f3c3 4300 	ubfx	r3, r3, #16, #1
 800395a:	bf14      	ite	ne
 800395c:	4a02      	ldrne	r2, [pc, #8]	@ (8003968 <HAL_EXTI_ClearPending+0x20>)
 800395e:	4a03      	ldreq	r2, [pc, #12]	@ (800396c <HAL_EXTI_ClearPending+0x24>)
 8003960:	015b      	lsls	r3, r3, #5
 8003962:	441a      	add	r2, r3
 8003964:	6010      	str	r0, [r2, #0]
 8003966:	4770      	bx	lr
 8003968:	46022010 	.word	0x46022010
 800396c:	4602200c 	.word	0x4602200c

08003970 <HAL_GPIO_Init>:
 8003970:	e92d 4ff0 	stmdb	sp!, {r4, r5, r6, r7, r8, r9, sl, fp, lr}
 8003974:	4b81      	ldr	r3, [pc, #516]	@ (8003b7c <HAL_GPIO_Init+0x20c>)
 8003976:	b085      	sub	sp, #20
 8003978:	ea03 2390 	and.w	r3, r3, r0, lsr #10
 800397c:	9303      	str	r3, [sp, #12]
 800397e:	4b80      	ldr	r3, [pc, #512]	@ (8003b80 <HAL_GPIO_Init+0x210>)
 8003980:	2200      	movs	r2, #0
 8003982:	9302      	str	r3, [sp, #8]
 8003984:	f04f 0e03 	mov.w	lr, #3
 8003988:	4603      	mov	r3, r0
 800398a:	4f7e      	ldr	r7, [pc, #504]	@ (8003b84 <HAL_GPIO_Init+0x214>)
 800398c:	680e      	ldr	r6, [r1, #0]
 800398e:	fa36 f402 	lsrs.w	r4, r6, r2
 8003992:	d102      	bne.n	800399a <HAL_GPIO_Init+0x2a>
 8003994:	b005      	add	sp, #20
 8003996:	e8bd 8ff0 	ldmia.w	sp!, {r4, r5, r6, r7, r8, r9, sl, fp, pc}
 800399a:	2401      	movs	r4, #1
 800399c:	fa04 fc02 	lsl.w	ip, r4, r2
 80039a0:	ea1c 0406 	ands.w	r4, ip, r6
 80039a4:	9401      	str	r4, [sp, #4]
 80039a6:	f000 808e 	beq.w	8003ac6 <HAL_GPIO_Init+0x156>
 80039aa:	4c77      	ldr	r4, [pc, #476]	@ (8003b88 <HAL_GPIO_Init+0x218>)
 80039ac:	684d      	ldr	r5, [r1, #4]
 80039ae:	42a0      	cmp	r0, r4
 80039b0:	f025 0810 	bic.w	r8, r5, #16
 80039b4:	f040 808c 	bne.w	8003ad0 <HAL_GPIO_Init+0x160>
 80039b8:	260f      	movs	r6, #15
 80039ba:	6804      	ldr	r4, [r0, #0]
 80039bc:	f005 0301 	and.w	r3, r5, #1
 80039c0:	ea24 040c 	bic.w	r4, r4, ip
 80039c4:	4093      	lsls	r3, r2
 80039c6:	4323      	orrs	r3, r4
 80039c8:	9c02      	ldr	r4, [sp, #8]
 80039ca:	6003      	str	r3, [r0, #0]
 80039cc:	6864      	ldr	r4, [r4, #4]
 80039ce:	9b02      	ldr	r3, [sp, #8]
 80039d0:	f004 0c07 	and.w	ip, r4, #7
 80039d4:	ea4f 0c8c 	mov.w	ip, ip, lsl #2
 80039d8:	fa06 fa0c 	lsl.w	sl, r6, ip
 80039dc:	260b      	movs	r6, #11
 80039de:	fa06 fc0c 	lsl.w	ip, r6, ip
 80039e2:	2602      	movs	r6, #2
 80039e4:	681b      	ldr	r3, [r3, #0]
 80039e6:	ea4f 09d4 	mov.w	r9, r4, lsr #3
 80039ea:	eb03 0989 	add.w	r9, r3, r9, lsl #2
 80039ee:	f8d9 b020 	ldr.w	fp, [r9, #32]
 80039f2:	ea2b 0a0a 	bic.w	sl, fp, sl
 80039f6:	ea4c 0c0a 	orr.w	ip, ip, sl
 80039fa:	f8c9 c020 	str.w	ip, [r9, #32]
 80039fe:	f8d3 9000 	ldr.w	r9, [r3]
 8003a02:	ea4f 0c44 	mov.w	ip, r4, lsl #1
 8003a06:	fa0e fa0c 	lsl.w	sl, lr, ip
 8003a0a:	ea29 090a 	bic.w	r9, r9, sl
 8003a0e:	fa06 fc0c 	lsl.w	ip, r6, ip
 8003a12:	ea4c 0c09 	orr.w	ip, ip, r9
 8003a16:	f8c3 c000 	str.w	ip, [r3]
 8003a1a:	f108 38ff 	add.w	r8, r8, #4294967295
 8003a1e:	f1b8 0f01 	cmp.w	r8, #1
 8003a22:	f240 8082 	bls.w	8003b2a <HAL_GPIO_Init+0x1ba>
 8003a26:	2d03      	cmp	r5, #3
 8003a28:	d04d      	beq.n	8003ac6 <HAL_GPIO_Init+0x156>
 8003a2a:	f8d3 800c 	ldr.w	r8, [r3, #12]
 8003a2e:	688e      	ldr	r6, [r1, #8]
 8003a30:	0064      	lsls	r4, r4, #1
 8003a32:	fa0e fc04 	lsl.w	ip, lr, r4
 8003a36:	ea28 0c0c 	bic.w	ip, r8, ip
 8003a3a:	fa06 f404 	lsl.w	r4, r6, r4
 8003a3e:	ea44 040c 	orr.w	r4, r4, ip
 8003a42:	60dc      	str	r4, [r3, #12]
 8003a44:	00ec      	lsls	r4, r5, #3
 8003a46:	d53e      	bpl.n	8003ac6 <HAL_GPIO_Init+0x156>
 8003a48:	260f      	movs	r6, #15
 8003a4a:	f022 0c03 	bic.w	ip, r2, #3
 8003a4e:	f10c 4c8c 	add.w	ip, ip, #1174405120	@ 0x46000000
 8003a52:	f002 0403 	and.w	r4, r2, #3
 8003a56:	f50c 3c08 	add.w	ip, ip, #139264	@ 0x22000
 8003a5a:	00e4      	lsls	r4, r4, #3
 8003a5c:	f8dc 9060 	ldr.w	r9, [ip, #96]	@ 0x60
 8003a60:	fa06 f804 	lsl.w	r8, r6, r4
 8003a64:	9e03      	ldr	r6, [sp, #12]
 8003a66:	ea29 0808 	bic.w	r8, r9, r8
 8003a6a:	fa06 f404 	lsl.w	r4, r6, r4
 8003a6e:	9e01      	ldr	r6, [sp, #4]
 8003a70:	ea44 0408 	orr.w	r4, r4, r8
 8003a74:	f8cc 4060 	str.w	r4, [ip, #96]	@ 0x60
 8003a78:	ea6f 0c06 	mvn.w	ip, r6
 8003a7c:	02ee      	lsls	r6, r5, #11
 8003a7e:	bf48      	it	mi
 8003a80:	9e01      	ldrmi	r6, [sp, #4]
 8003a82:	683c      	ldr	r4, [r7, #0]
 8003a84:	bf4c      	ite	mi
 8003a86:	4334      	orrmi	r4, r6
 8003a88:	ea0c 0404 	andpl.w	r4, ip, r4
 8003a8c:	603c      	str	r4, [r7, #0]
 8003a8e:	02ae      	lsls	r6, r5, #10
 8003a90:	687c      	ldr	r4, [r7, #4]
 8003a92:	bf4a      	itet	mi
 8003a94:	9e01      	ldrmi	r6, [sp, #4]
 8003a96:	ea0c 0404 	andpl.w	r4, ip, r4
 8003a9a:	4334      	orrmi	r4, r6
 8003a9c:	607c      	str	r4, [r7, #4]
 8003a9e:	03ae      	lsls	r6, r5, #14
 8003aa0:	f8d7 4084 	ldr.w	r4, [r7, #132]	@ 0x84
 8003aa4:	bf4a      	itet	mi
 8003aa6:	9e01      	ldrmi	r6, [sp, #4]
 8003aa8:	ea0c 0404 	andpl.w	r4, ip, r4
 8003aac:	4334      	orrmi	r4, r6
 8003aae:	f8c7 4084 	str.w	r4, [r7, #132]	@ 0x84
 8003ab2:	03ed      	lsls	r5, r5, #15
 8003ab4:	f8d7 4080 	ldr.w	r4, [r7, #128]	@ 0x80
 8003ab8:	bf4a      	itet	mi
 8003aba:	9d01      	ldrmi	r5, [sp, #4]
 8003abc:	ea0c 0404 	andpl.w	r4, ip, r4
 8003ac0:	432c      	orrmi	r4, r5
 8003ac2:	f8c7 4080 	str.w	r4, [r7, #128]	@ 0x80
 8003ac6:	9c02      	ldr	r4, [sp, #8]
 8003ac8:	3201      	adds	r2, #1
 8003aca:	3408      	adds	r4, #8
 8003acc:	9402      	str	r4, [sp, #8]
 8003ace:	e75d      	b.n	800398c <HAL_GPIO_Init+0x1c>
 8003ad0:	ea4f 0942 	mov.w	r9, r2, lsl #1
 8003ad4:	fa0e f409 	lsl.w	r4, lr, r9
 8003ad8:	f005 0c03 	and.w	ip, r5, #3
 8003adc:	f1b8 0f02 	cmp.w	r8, #2
 8003ae0:	ea6f 0404 	mvn.w	r4, r4
 8003ae4:	fa0c fc09 	lsl.w	ip, ip, r9
 8003ae8:	d13e      	bne.n	8003b68 <HAL_GPIO_Init+0x1f8>
 8003aea:	260f      	movs	r6, #15
 8003aec:	ea4f 08d2 	mov.w	r8, r2, lsr #3
 8003af0:	f002 0907 	and.w	r9, r2, #7
 8003af4:	eb00 0888 	add.w	r8, r0, r8, lsl #2
 8003af8:	ea4f 0989 	mov.w	r9, r9, lsl #2
 8003afc:	f8d8 a020 	ldr.w	sl, [r8, #32]
 8003b00:	fa06 fb09 	lsl.w	fp, r6, r9
 8003b04:	690e      	ldr	r6, [r1, #16]
 8003b06:	ea2a 0a0b 	bic.w	sl, sl, fp
 8003b0a:	f006 0b0f 	and.w	fp, r6, #15
 8003b0e:	fa0b fb09 	lsl.w	fp, fp, r9
 8003b12:	ea4b 0b0a 	orr.w	fp, fp, sl
 8003b16:	f8c8 b020 	str.w	fp, [r8, #32]
 8003b1a:	f8d3 8000 	ldr.w	r8, [r3]
 8003b1e:	ea04 0808 	and.w	r8, r4, r8
 8003b22:	ea48 040c 	orr.w	r4, r8, ip
 8003b26:	601c      	str	r4, [r3, #0]
 8003b28:	4614      	mov	r4, r2
 8003b2a:	68ce      	ldr	r6, [r1, #12]
 8003b2c:	ea4f 0844 	mov.w	r8, r4, lsl #1
 8003b30:	fa0e f908 	lsl.w	r9, lr, r8
 8003b34:	fa06 f808 	lsl.w	r8, r6, r8
 8003b38:	2601      	movs	r6, #1
 8003b3a:	f8d3 c008 	ldr.w	ip, [r3, #8]
 8003b3e:	ea2c 0c09 	bic.w	ip, ip, r9
 8003b42:	ea48 080c 	orr.w	r8, r8, ip
 8003b46:	f8c3 8008 	str.w	r8, [r3, #8]
 8003b4a:	f8d3 8004 	ldr.w	r8, [r3, #4]
 8003b4e:	fa06 fc04 	lsl.w	ip, r6, r4
 8003b52:	ea28 080c 	bic.w	r8, r8, ip
 8003b56:	f3c5 1c00 	ubfx	ip, r5, #4, #1
 8003b5a:	fa0c fc04 	lsl.w	ip, ip, r4
 8003b5e:	ea4c 0c08 	orr.w	ip, ip, r8
 8003b62:	f8c3 c004 	str.w	ip, [r3, #4]
 8003b66:	e75e      	b.n	8003a26 <HAL_GPIO_Init+0xb6>
 8003b68:	f8d3 9000 	ldr.w	r9, [r3]
 8003b6c:	ea04 0409 	and.w	r4, r4, r9
 8003b70:	ea44 040c 	orr.w	r4, r4, ip
 8003b74:	601c      	str	r4, [r3, #0]
 8003b76:	4614      	mov	r4, r2
 8003b78:	e74f      	b.n	8003a1a <HAL_GPIO_Init+0xaa>
 8003b7a:	bf00      	nop
 8003b7c:	002f7f7f 	.word	0x002f7f7f
 8003b80:	08008884 	.word	0x08008884
 8003b84:	46022000 	.word	0x46022000
 8003b88:	46020000 	.word	0x46020000

08003b8c <HAL_GPIO_DeInit>:
 8003b8c:	4b3c      	ldr	r3, [pc, #240]	@ (8003c80 <HAL_GPIO_DeInit+0xf4>)
 8003b8e:	e92d 4ff0 	stmdb	sp!, {r4, r5, r6, r7, r8, r9, sl, fp, lr}
 8003b92:	f04f 0c01 	mov.w	ip, #1
 8003b96:	ea03 2890 	and.w	r8, r3, r0, lsr #10
 8003b9a:	2400      	movs	r4, #0
 8003b9c:	4603      	mov	r3, r0
 8003b9e:	f04f 0903 	mov.w	r9, #3
 8003ba2:	f04f 0e0f 	mov.w	lr, #15
 8003ba6:	4f37      	ldr	r7, [pc, #220]	@ (8003c84 <HAL_GPIO_DeInit+0xf8>)
 8003ba8:	fa31 f204 	lsrs.w	r2, r1, r4
 8003bac:	d101      	bne.n	8003bb2 <HAL_GPIO_DeInit+0x26>
 8003bae:	e8bd 8ff0 	ldmia.w	sp!, {r4, r5, r6, r7, r8, r9, sl, fp, pc}
 8003bb2:	fa0c f604 	lsl.w	r6, ip, r4
 8003bb6:	400e      	ands	r6, r1
 8003bb8:	d02d      	beq.n	8003c16 <HAL_GPIO_DeInit+0x8a>
 8003bba:	4a33      	ldr	r2, [pc, #204]	@ (8003c88 <HAL_GPIO_DeInit+0xfc>)
 8003bbc:	4290      	cmp	r0, r2
 8003bbe:	d12d      	bne.n	8003c1c <HAL_GPIO_DeInit+0x90>
 8003bc0:	e9d7 3200 	ldrd	r3, r2, [r7]
 8003bc4:	6805      	ldr	r5, [r0, #0]
 8003bc6:	fa0c f602 	lsl.w	r6, ip, r2
 8003bca:	ea25 0506 	bic.w	r5, r5, r6
 8003bce:	6005      	str	r5, [r0, #0]
 8003bd0:	681e      	ldr	r6, [r3, #0]
 8003bd2:	0055      	lsls	r5, r2, #1
 8003bd4:	fa09 f505 	lsl.w	r5, r9, r5
 8003bd8:	432e      	orrs	r6, r5
 8003bda:	ea4f 0ad2 	mov.w	sl, r2, lsr #3
 8003bde:	601e      	str	r6, [r3, #0]
 8003be0:	eb03 0a8a 	add.w	sl, r3, sl, lsl #2
 8003be4:	f002 0607 	and.w	r6, r2, #7
 8003be8:	f8da b020 	ldr.w	fp, [sl, #32]
 8003bec:	00b6      	lsls	r6, r6, #2
 8003bee:	fa0e f606 	lsl.w	r6, lr, r6
 8003bf2:	ea2b 0606 	bic.w	r6, fp, r6
 8003bf6:	f8ca 6020 	str.w	r6, [sl, #32]
 8003bfa:	689e      	ldr	r6, [r3, #8]
 8003bfc:	fa0c f202 	lsl.w	r2, ip, r2
 8003c00:	ea26 0605 	bic.w	r6, r6, r5
 8003c04:	609e      	str	r6, [r3, #8]
 8003c06:	685e      	ldr	r6, [r3, #4]
 8003c08:	ea26 0202 	bic.w	r2, r6, r2
 8003c0c:	605a      	str	r2, [r3, #4]
 8003c0e:	68da      	ldr	r2, [r3, #12]
 8003c10:	ea22 0205 	bic.w	r2, r2, r5
 8003c14:	60da      	str	r2, [r3, #12]
 8003c16:	3401      	adds	r4, #1
 8003c18:	3708      	adds	r7, #8
 8003c1a:	e7c5      	b.n	8003ba8 <HAL_GPIO_DeInit+0x1c>
 8003c1c:	f024 0503 	bic.w	r5, r4, #3
 8003c20:	f105 458c 	add.w	r5, r5, #1174405120	@ 0x46000000
 8003c24:	f505 3508 	add.w	r5, r5, #139264	@ 0x22000
 8003c28:	f004 0203 	and.w	r2, r4, #3
 8003c2c:	00d2      	lsls	r2, r2, #3
 8003c2e:	f8d5 b060 	ldr.w	fp, [r5, #96]	@ 0x60
 8003c32:	fa0e fa02 	lsl.w	sl, lr, r2
 8003c36:	ea0a 0b0b 	and.w	fp, sl, fp
 8003c3a:	fa08 f202 	lsl.w	r2, r8, r2
 8003c3e:	455a      	cmp	r2, fp
 8003c40:	d11b      	bne.n	8003c7a <HAL_GPIO_DeInit+0xee>
 8003c42:	4a12      	ldr	r2, [pc, #72]	@ (8003c8c <HAL_GPIO_DeInit+0x100>)
 8003c44:	f8d2 b080 	ldr.w	fp, [r2, #128]	@ 0x80
 8003c48:	ea2b 0b06 	bic.w	fp, fp, r6
 8003c4c:	f8c2 b080 	str.w	fp, [r2, #128]	@ 0x80
 8003c50:	f8d2 b084 	ldr.w	fp, [r2, #132]	@ 0x84
 8003c54:	ea2b 0b06 	bic.w	fp, fp, r6
 8003c58:	f8c2 b084 	str.w	fp, [r2, #132]	@ 0x84
 8003c5c:	f8d2 b000 	ldr.w	fp, [r2]
 8003c60:	ea2b 0b06 	bic.w	fp, fp, r6
 8003c64:	f8c2 b000 	str.w	fp, [r2]
 8003c68:	f8d2 b004 	ldr.w	fp, [r2, #4]
 8003c6c:	ea2b 0606 	bic.w	r6, fp, r6
 8003c70:	6056      	str	r6, [r2, #4]
 8003c72:	6e2a      	ldr	r2, [r5, #96]	@ 0x60
 8003c74:	ea22 020a 	bic.w	r2, r2, sl
 8003c78:	662a      	str	r2, [r5, #96]	@ 0x60
 8003c7a:	4622      	mov	r2, r4
 8003c7c:	e7a8      	b.n	8003bd0 <HAL_GPIO_DeInit+0x44>
 8003c7e:	bf00      	nop
 8003c80:	002f7f7f 	.word	0x002f7f7f
 8003c84:	08008884 	.word	0x08008884
 8003c88:	46020000 	.word	0x46020000
 8003c8c:	46022000 	.word	0x46022000

08003c90 <HAL_GPIO_ReadPin>:
 8003c90:	6903      	ldr	r3, [r0, #16]
 8003c92:	4219      	tst	r1, r3
 8003c94:	bf14      	ite	ne
 8003c96:	2001      	movne	r0, #1
 8003c98:	2000      	moveq	r0, #0
 8003c9a:	4770      	bx	lr

08003c9c <HAL_GPIO_WritePin>:
 8003c9c:	b10a      	cbz	r2, 8003ca2 <HAL_GPIO_WritePin+0x6>
 8003c9e:	6181      	str	r1, [r0, #24]
 8003ca0:	4770      	bx	lr
 8003ca2:	6281      	str	r1, [r0, #40]	@ 0x28
 8003ca4:	4770      	bx	lr

08003ca6 <HAL_GPIO_EXTI_Rising_Callback>:
 8003ca6:	4770      	bx	lr

08003ca8 <HAL_GPIO_EXTI_Falling_Callback>:
 8003ca8:	4770      	bx	lr
	...

08003cac <HAL_GPIO_EXTI_IRQHandler>:
 8003cac:	b538      	push	{r3, r4, r5, lr}
 8003cae:	4d08      	ldr	r5, [pc, #32]	@ (8003cd0 <HAL_GPIO_EXTI_IRQHandler+0x24>)
 8003cb0:	4604      	mov	r4, r0
 8003cb2:	68eb      	ldr	r3, [r5, #12]
 8003cb4:	4203      	tst	r3, r0
 8003cb6:	d002      	beq.n	8003cbe <HAL_GPIO_EXTI_IRQHandler+0x12>
 8003cb8:	60e8      	str	r0, [r5, #12]
 8003cba:	f7ff fff4 	bl	8003ca6 <HAL_GPIO_EXTI_Rising_Callback>
 8003cbe:	692b      	ldr	r3, [r5, #16]
 8003cc0:	421c      	tst	r4, r3
 8003cc2:	d003      	beq.n	8003ccc <HAL_GPIO_EXTI_IRQHandler+0x20>
 8003cc4:	4620      	mov	r0, r4
 8003cc6:	612c      	str	r4, [r5, #16]
 8003cc8:	f7ff ffee 	bl	8003ca8 <HAL_GPIO_EXTI_Falling_Callback>
 8003ccc:	bd38      	pop	{r3, r4, r5, pc}
 8003cce:	bf00      	nop
 8003cd0:	46022000 	.word	0x46022000

08003cd4 <HAL_ICACHE_ConfigAssociativityMode>:
 8003cd4:	4601      	mov	r1, r0
 8003cd6:	4a06      	ldr	r2, [pc, #24]	@ (8003cf0 <HAL_ICACHE_ConfigAssociativityMode+0x1c>)
 8003cd8:	6810      	ldr	r0, [r2, #0]
 8003cda:	f010 0001 	ands.w	r0, r0, #1
 8003cde:	bf09      	itett	eq
 8003ce0:	6813      	ldreq	r3, [r2, #0]
 8003ce2:	2001      	movne	r0, #1
 8003ce4:	f023 0304 	biceq.w	r3, r3, #4
 8003ce8:	430b      	orreq	r3, r1
 8003cea:	bf08      	it	eq
 8003cec:	6013      	streq	r3, [r2, #0]
 8003cee:	4770      	bx	lr
 8003cf0:	40030400 	.word	0x40030400

08003cf4 <HAL_ICACHE_Enable>:
 8003cf4:	4a03      	ldr	r2, [pc, #12]	@ (8003d04 <HAL_ICACHE_Enable+0x10>)
 8003cf6:	2000      	movs	r0, #0
 8003cf8:	6813      	ldr	r3, [r2, #0]
 8003cfa:	f043 0301 	orr.w	r3, r3, #1
 8003cfe:	6013      	str	r3, [r2, #0]
 8003d00:	4770      	bx	lr
 8003d02:	bf00      	nop
 8003d04:	40030400 	.word	0x40030400

08003d08 <OSPI_DMACplt>:
 8003d08:	2200      	movs	r2, #0
 8003d0a:	6dc3      	ldr	r3, [r0, #92]	@ 0x5c
 8003d0c:	6801      	ldr	r1, [r0, #0]
 8003d0e:	649a      	str	r2, [r3, #72]	@ 0x48
 8003d10:	681b      	ldr	r3, [r3, #0]
 8003d12:	681a      	ldr	r2, [r3, #0]
 8003d14:	f022 0204 	bic.w	r2, r2, #4
 8003d18:	601a      	str	r2, [r3, #0]
 8003d1a:	694a      	ldr	r2, [r1, #20]
 8003d1c:	f042 0206 	orr.w	r2, r2, #6
 8003d20:	614a      	str	r2, [r1, #20]
 8003d22:	681a      	ldr	r2, [r3, #0]
 8003d24:	f442 3200 	orr.w	r2, r2, #131072	@ 0x20000
 8003d28:	601a      	str	r2, [r3, #0]
 8003d2a:	4770      	bx	lr

08003d2c <OSPI_ConfigCmd>:
 8003d2c:	e92d 43f0 	stmdb	sp!, {r4, r5, r6, r7, r8, r9, lr}
 8003d30:	6804      	ldr	r4, [r0, #0]
 8003d32:	6823      	ldr	r3, [r4, #0]
 8003d34:	f023 5340 	bic.w	r3, r3, #805306368	@ 0x30000000
 8003d38:	6023      	str	r3, [r4, #0]
 8003d3a:	6883      	ldr	r3, [r0, #8]
 8003d3c:	b92b      	cbnz	r3, 8003d4a <OSPI_ConfigCmd+0x1e>
 8003d3e:	6823      	ldr	r3, [r4, #0]
 8003d40:	684a      	ldr	r2, [r1, #4]
 8003d42:	f023 0380 	bic.w	r3, r3, #128	@ 0x80
 8003d46:	4313      	orrs	r3, r2
 8003d48:	6023      	str	r3, [r4, #0]
 8003d4a:	680b      	ldr	r3, [r1, #0]
 8003d4c:	2b02      	cmp	r3, #2
 8003d4e:	d150      	bne.n	8003df2 <OSPI_ConfigCmd+0xc6>
 8003d50:	f504 72c0 	add.w	r2, r4, #384	@ 0x180
 8003d54:	f504 76c4 	add.w	r6, r4, #392	@ 0x188
 8003d58:	f504 75c8 	add.w	r5, r4, #400	@ 0x190
 8003d5c:	f504 7cd0 	add.w	ip, r4, #416	@ 0x1a0
 8003d60:	e9d1 3712 	ldrd	r3, r7, [r1, #72]	@ 0x48
 8003d64:	433b      	orrs	r3, r7
 8003d66:	6013      	str	r3, [r2, #0]
 8003d68:	6acb      	ldr	r3, [r1, #44]	@ 0x2c
 8003d6a:	b16b      	cbz	r3, 8003d88 <OSPI_ConfigCmd+0x5c>
 8003d6c:	6a8b      	ldr	r3, [r1, #40]	@ 0x28
 8003d6e:	f8cc 3000 	str.w	r3, [ip]
 8003d72:	6b4f      	ldr	r7, [r1, #52]	@ 0x34
 8003d74:	6acb      	ldr	r3, [r1, #44]	@ 0x2c
 8003d76:	f8d2 c000 	ldr.w	ip, [r2]
 8003d7a:	433b      	orrs	r3, r7
 8003d7c:	6b0f      	ldr	r7, [r1, #48]	@ 0x30
 8003d7e:	433b      	orrs	r3, r7
 8003d80:	f42c 177c 	bic.w	r7, ip, #4128768	@ 0x3f0000
 8003d84:	433b      	orrs	r3, r7
 8003d86:	6013      	str	r3, [r2, #0]
 8003d88:	6833      	ldr	r3, [r6, #0]
 8003d8a:	6c4f      	ldr	r7, [r1, #68]	@ 0x44
 8003d8c:	f023 031f 	bic.w	r3, r3, #31
 8003d90:	433b      	orrs	r3, r7
 8003d92:	6033      	str	r3, [r6, #0]
 8003d94:	f8d1 e038 	ldr.w	lr, [r1, #56]	@ 0x38
 8003d98:	f1be 0f00 	cmp.w	lr, #0
 8003d9c:	d004      	beq.n	8003da8 <OSPI_ConfigCmd+0x7c>
 8003d9e:	680b      	ldr	r3, [r1, #0]
 8003da0:	b913      	cbnz	r3, 8003da8 <OSPI_ConfigCmd+0x7c>
 8003da2:	6bcb      	ldr	r3, [r1, #60]	@ 0x3c
 8003da4:	3b01      	subs	r3, #1
 8003da6:	6423      	str	r3, [r4, #64]	@ 0x40
 8003da8:	68cb      	ldr	r3, [r1, #12]
 8003daa:	f8d1 901c 	ldr.w	r9, [r1, #28]
 8003dae:	2b00      	cmp	r3, #0
 8003db0:	d07a      	beq.n	8003ea8 <OSPI_ConfigCmd+0x17c>
 8003db2:	e9d1 c804 	ldrd	ip, r8, [r1, #16]
 8003db6:	f1b9 0f00 	cmp.w	r9, #0
 8003dba:	d04a      	beq.n	8003e52 <OSPI_ConfigCmd+0x126>
 8003dbc:	e9d1 6708 	ldrd	r6, r7, [r1, #32]
 8003dc0:	f1be 0f00 	cmp.w	lr, #0
 8003dc4:	d029      	beq.n	8003e1a <OSPI_ConfigCmd+0xee>
 8003dc6:	ea4e 0303 	orr.w	r3, lr, r3
 8003dca:	ea43 0309 	orr.w	r3, r3, r9
 8003dce:	ea43 0308 	orr.w	r3, r3, r8
 8003dd2:	ea43 030c 	orr.w	r3, r3, ip
 8003dd6:	433b      	orrs	r3, r7
 8003dd8:	4333      	orrs	r3, r6
 8003dda:	6c0e      	ldr	r6, [r1, #64]	@ 0x40
 8003ddc:	6810      	ldr	r0, [r2, #0]
 8003dde:	4333      	orrs	r3, r6
 8003de0:	4e43      	ldr	r6, [pc, #268]	@ (8003ef0 <OSPI_ConfigCmd+0x1c4>)
 8003de2:	4006      	ands	r6, r0
 8003de4:	4333      	orrs	r3, r6
 8003de6:	6013      	str	r3, [r2, #0]
 8003de8:	688b      	ldr	r3, [r1, #8]
 8003dea:	602b      	str	r3, [r5, #0]
 8003dec:	698b      	ldr	r3, [r1, #24]
 8003dee:	64a3      	str	r3, [r4, #72]	@ 0x48
 8003df0:	e043      	b.n	8003e7a <OSPI_ConfigCmd+0x14e>
 8003df2:	2b03      	cmp	r3, #3
 8003df4:	bf01      	itttt	eq
 8003df6:	f504 72a0 	addeq.w	r2, r4, #320	@ 0x140
 8003dfa:	f504 76a4 	addeq.w	r6, r4, #328	@ 0x148
 8003dfe:	f504 75a8 	addeq.w	r5, r4, #336	@ 0x150
 8003e02:	f504 7cb0 	addeq.w	ip, r4, #352	@ 0x160
 8003e06:	bf1f      	itttt	ne
 8003e08:	f504 7280 	addne.w	r2, r4, #256	@ 0x100
 8003e0c:	f504 7684 	addne.w	r6, r4, #264	@ 0x108
 8003e10:	f504 7588 	addne.w	r5, r4, #272	@ 0x110
 8003e14:	f504 7c90 	addne.w	ip, r4, #288	@ 0x120
 8003e18:	e7a2      	b.n	8003d60 <OSPI_ConfigCmd+0x34>
 8003e1a:	ea43 0309 	orr.w	r3, r3, r9
 8003e1e:	f8d2 e000 	ldr.w	lr, [r2]
 8003e22:	ea43 0308 	orr.w	r3, r3, r8
 8003e26:	ea43 030c 	orr.w	r3, r3, ip
 8003e2a:	433b      	orrs	r3, r7
 8003e2c:	f42e 5e7c 	bic.w	lr, lr, #16128	@ 0x3f00
 8003e30:	4333      	orrs	r3, r6
 8003e32:	f02e 0e3f 	bic.w	lr, lr, #63	@ 0x3f
 8003e36:	ea43 030e 	orr.w	r3, r3, lr
 8003e3a:	6013      	str	r3, [r2, #0]
 8003e3c:	6ac3      	ldr	r3, [r0, #44]	@ 0x2c
 8003e3e:	f1b3 5f80 	cmp.w	r3, #268435456	@ 0x10000000
 8003e42:	d1d1      	bne.n	8003de8 <OSPI_ConfigCmd+0xbc>
 8003e44:	694b      	ldr	r3, [r1, #20]
 8003e46:	2b08      	cmp	r3, #8
 8003e48:	d1ce      	bne.n	8003de8 <OSPI_ConfigCmd+0xbc>
 8003e4a:	6813      	ldr	r3, [r2, #0]
 8003e4c:	f043 6300 	orr.w	r3, r3, #134217728	@ 0x8000000
 8003e50:	e7c9      	b.n	8003de6 <OSPI_ConfigCmd+0xba>
 8003e52:	f1be 0f00 	cmp.w	lr, #0
 8003e56:	d013      	beq.n	8003e80 <OSPI_ConfigCmd+0x154>
 8003e58:	6810      	ldr	r0, [r2, #0]
 8003e5a:	ea4e 0303 	orr.w	r3, lr, r3
 8003e5e:	6c0c      	ldr	r4, [r1, #64]	@ 0x40
 8003e60:	ea43 0308 	orr.w	r3, r3, r8
 8003e64:	ea43 030c 	orr.w	r3, r3, ip
 8003e68:	f020 6070 	bic.w	r0, r0, #251658240	@ 0xf000000
 8003e6c:	4323      	orrs	r3, r4
 8003e6e:	f020 003f 	bic.w	r0, r0, #63	@ 0x3f
 8003e72:	4303      	orrs	r3, r0
 8003e74:	6013      	str	r3, [r2, #0]
 8003e76:	688b      	ldr	r3, [r1, #8]
 8003e78:	602b      	str	r3, [r5, #0]
 8003e7a:	2000      	movs	r0, #0
 8003e7c:	e8bd 83f0 	ldmia.w	sp!, {r4, r5, r6, r7, r8, r9, pc}
 8003e80:	6814      	ldr	r4, [r2, #0]
 8003e82:	ea43 0308 	orr.w	r3, r3, r8
 8003e86:	ea43 030c 	orr.w	r3, r3, ip
 8003e8a:	f024 043f 	bic.w	r4, r4, #63	@ 0x3f
 8003e8e:	4323      	orrs	r3, r4
 8003e90:	6013      	str	r3, [r2, #0]
 8003e92:	6ac3      	ldr	r3, [r0, #44]	@ 0x2c
 8003e94:	f1b3 5f80 	cmp.w	r3, #268435456	@ 0x10000000
 8003e98:	d1ed      	bne.n	8003e76 <OSPI_ConfigCmd+0x14a>
 8003e9a:	694b      	ldr	r3, [r1, #20]
 8003e9c:	2b08      	cmp	r3, #8
 8003e9e:	d1ea      	bne.n	8003e76 <OSPI_ConfigCmd+0x14a>
 8003ea0:	6813      	ldr	r3, [r2, #0]
 8003ea2:	f043 6300 	orr.w	r3, r3, #134217728	@ 0x8000000
 8003ea6:	e7e5      	b.n	8003e74 <OSPI_ConfigCmd+0x148>
 8003ea8:	f1b9 0f00 	cmp.w	r9, #0
 8003eac:	d01b      	beq.n	8003ee6 <OSPI_ConfigCmd+0x1ba>
 8003eae:	e9d1 6008 	ldrd	r6, r0, [r1, #32]
 8003eb2:	f1be 0f00 	cmp.w	lr, #0
 8003eb6:	d00d      	beq.n	8003ed4 <OSPI_ConfigCmd+0x1a8>
 8003eb8:	ea4e 0309 	orr.w	r3, lr, r9
 8003ebc:	6815      	ldr	r5, [r2, #0]
 8003ebe:	4303      	orrs	r3, r0
 8003ec0:	6c08      	ldr	r0, [r1, #64]	@ 0x40
 8003ec2:	4333      	orrs	r3, r6
 8003ec4:	4303      	orrs	r3, r0
 8003ec6:	f025 6070 	bic.w	r0, r5, #251658240	@ 0xf000000
 8003eca:	f420 507c 	bic.w	r0, r0, #16128	@ 0x3f00
 8003ece:	4303      	orrs	r3, r0
 8003ed0:	6013      	str	r3, [r2, #0]
 8003ed2:	e78b      	b.n	8003dec <OSPI_ConfigCmd+0xc0>
 8003ed4:	6813      	ldr	r3, [r2, #0]
 8003ed6:	ea40 0009 	orr.w	r0, r0, r9
 8003eda:	4330      	orrs	r0, r6
 8003edc:	f423 537c 	bic.w	r3, r3, #16128	@ 0x3f00
 8003ee0:	4318      	orrs	r0, r3
 8003ee2:	6010      	str	r0, [r2, #0]
 8003ee4:	e782      	b.n	8003dec <OSPI_ConfigCmd+0xc0>
 8003ee6:	2308      	movs	r3, #8
 8003ee8:	6543      	str	r3, [r0, #84]	@ 0x54
 8003eea:	2001      	movs	r0, #1
 8003eec:	e7c6      	b.n	8003e7c <OSPI_ConfigCmd+0x150>
 8003eee:	bf00      	nop
 8003ef0:	f0ffc0c0 	.word	0xf0ffc0c0

08003ef4 <OSPI_WaitFlagStateUntilTimeout>:
 8003ef4:	e92d 41f0 	stmdb	sp!, {r4, r5, r6, r7, r8, lr}
 8003ef8:	4604      	mov	r4, r0
 8003efa:	460e      	mov	r6, r1
 8003efc:	4615      	mov	r5, r2
 8003efe:	461f      	mov	r7, r3
 8003f00:	f8dd 8018 	ldr.w	r8, [sp, #24]
 8003f04:	6822      	ldr	r2, [r4, #0]
 8003f06:	6a13      	ldr	r3, [r2, #32]
 8003f08:	4233      	tst	r3, r6
 8003f0a:	bf14      	ite	ne
 8003f0c:	2301      	movne	r3, #1
 8003f0e:	2300      	moveq	r3, #0
 8003f10:	42ab      	cmp	r3, r5
 8003f12:	d101      	bne.n	8003f18 <OSPI_WaitFlagStateUntilTimeout+0x24>
 8003f14:	2000      	movs	r0, #0
 8003f16:	e017      	b.n	8003f48 <OSPI_WaitFlagStateUntilTimeout+0x54>
 8003f18:	f1b8 3fff 	cmp.w	r8, #4294967295
 8003f1c:	d0f3      	beq.n	8003f06 <OSPI_WaitFlagStateUntilTimeout+0x12>
 8003f1e:	f7fe ff15 	bl	8002d4c <HAL_GetTick>
 8003f22:	1bc0      	subs	r0, r0, r7
 8003f24:	4540      	cmp	r0, r8
 8003f26:	d802      	bhi.n	8003f2e <OSPI_WaitFlagStateUntilTimeout+0x3a>
 8003f28:	f1b8 0f00 	cmp.w	r8, #0
 8003f2c:	d1ea      	bne.n	8003f04 <OSPI_WaitFlagStateUntilTimeout+0x10>
 8003f2e:	6823      	ldr	r3, [r4, #0]
 8003f30:	6a1b      	ldr	r3, [r3, #32]
 8003f32:	4033      	ands	r3, r6
 8003f34:	42ab      	cmp	r3, r5
 8003f36:	d0e5      	beq.n	8003f04 <OSPI_WaitFlagStateUntilTimeout+0x10>
 8003f38:	f44f 7300 	mov.w	r3, #512	@ 0x200
 8003f3c:	2001      	movs	r0, #1
 8003f3e:	6523      	str	r3, [r4, #80]	@ 0x50
 8003f40:	6d63      	ldr	r3, [r4, #84]	@ 0x54
 8003f42:	f043 0301 	orr.w	r3, r3, #1
 8003f46:	6563      	str	r3, [r4, #84]	@ 0x54
 8003f48:	e8bd 81f0 	ldmia.w	sp!, {r4, r5, r6, r7, r8, pc}

08003f4c <HAL_OSPI_Init>:
 8003f4c:	b5f7      	push	{r0, r1, r2, r4, r5, r6, r7, lr}
 8003f4e:	4604      	mov	r4, r0
 8003f50:	f7fe fefc 	bl	8002d4c <HAL_GetTick>
 8003f54:	4606      	mov	r6, r0
 8003f56:	2c00      	cmp	r4, #0
 8003f58:	d068      	beq.n	800402c <HAL_OSPI_Init+0xe0>
 8003f5a:	2300      	movs	r3, #0
 8003f5c:	6563      	str	r3, [r4, #84]	@ 0x54
 8003f5e:	6d27      	ldr	r7, [r4, #80]	@ 0x50
 8003f60:	2f00      	cmp	r7, #0
 8003f62:	d15e      	bne.n	8004022 <HAL_OSPI_Init+0xd6>
 8003f64:	4620      	mov	r0, r4
 8003f66:	f7fc fb91 	bl	800068c <HAL_OSPI_MspInit>
 8003f6a:	f241 3288 	movw	r2, #5000	@ 0x1388
 8003f6e:	6b63      	ldr	r3, [r4, #52]	@ 0x34
 8003f70:	68e1      	ldr	r1, [r4, #12]
 8003f72:	6825      	ldr	r5, [r4, #0]
 8003f74:	4319      	orrs	r1, r3
 8003f76:	69e3      	ldr	r3, [r4, #28]
 8003f78:	68a8      	ldr	r0, [r5, #8]
 8003f7a:	4319      	orrs	r1, r3
 8003f7c:	4b2c      	ldr	r3, [pc, #176]	@ (8004030 <HAL_OSPI_Init+0xe4>)
 8003f7e:	65a2      	str	r2, [r4, #88]	@ 0x58
 8003f80:	4003      	ands	r3, r0
 8003f82:	4319      	orrs	r1, r3
 8003f84:	6923      	ldr	r3, [r4, #16]
 8003f86:	4620      	mov	r0, r4
 8003f88:	3b01      	subs	r3, #1
 8003f8a:	ea41 4103 	orr.w	r1, r1, r3, lsl #16
 8003f8e:	6963      	ldr	r3, [r4, #20]
 8003f90:	3b01      	subs	r3, #1
 8003f92:	ea41 2103 	orr.w	r1, r1, r3, lsl #8
 8003f96:	60a9      	str	r1, [r5, #8]
 8003f98:	68eb      	ldr	r3, [r5, #12]
 8003f9a:	6a21      	ldr	r1, [r4, #32]
 8003f9c:	f423 23e0 	bic.w	r3, r3, #458752	@ 0x70000
 8003fa0:	430b      	orrs	r3, r1
 8003fa2:	60eb      	str	r3, [r5, #12]
 8003fa4:	6b21      	ldr	r1, [r4, #48]	@ 0x30
 8003fa6:	6ba3      	ldr	r3, [r4, #56]	@ 0x38
 8003fa8:	ea43 4301 	orr.w	r3, r3, r1, lsl #16
 8003fac:	612b      	str	r3, [r5, #16]
 8003fae:	6be3      	ldr	r3, [r4, #60]	@ 0x3c
 8003fb0:	6861      	ldr	r1, [r4, #4]
 8003fb2:	616b      	str	r3, [r5, #20]
 8003fb4:	682b      	ldr	r3, [r5, #0]
 8003fb6:	3901      	subs	r1, #1
 8003fb8:	f423 537c 	bic.w	r3, r3, #16128	@ 0x3f00
 8003fbc:	ea43 2301 	orr.w	r3, r3, r1, lsl #8
 8003fc0:	602b      	str	r3, [r5, #0]
 8003fc2:	2120      	movs	r1, #32
 8003fc4:	9200      	str	r2, [sp, #0]
 8003fc6:	4633      	mov	r3, r6
 8003fc8:	463a      	mov	r2, r7
 8003fca:	f7ff ff93 	bl	8003ef4 <OSPI_WaitFlagStateUntilTimeout>
 8003fce:	bb48      	cbnz	r0, 8004024 <HAL_OSPI_Init+0xd8>
 8003fd0:	6823      	ldr	r3, [r4, #0]
 8003fd2:	6a62      	ldr	r2, [r4, #36]	@ 0x24
 8003fd4:	68d9      	ldr	r1, [r3, #12]
 8003fd6:	3a01      	subs	r2, #1
 8003fd8:	f021 01ff 	bic.w	r1, r1, #255	@ 0xff
 8003fdc:	430a      	orrs	r2, r1
 8003fde:	60da      	str	r2, [r3, #12]
 8003fe0:	681a      	ldr	r2, [r3, #0]
 8003fe2:	68a1      	ldr	r1, [r4, #8]
 8003fe4:	f022 0240 	bic.w	r2, r2, #64	@ 0x40
 8003fe8:	430a      	orrs	r2, r1
 8003fea:	601a      	str	r2, [r3, #0]
 8003fec:	f8d3 1108 	ldr.w	r1, [r3, #264]	@ 0x108
 8003ff0:	e9d4 200a 	ldrd	r2, r0, [r4, #40]	@ 0x28
 8003ff4:	f021 41a0 	bic.w	r1, r1, #1342177280	@ 0x50000000
 8003ff8:	4302      	orrs	r2, r0
 8003ffa:	430a      	orrs	r2, r1
 8003ffc:	f8c3 2108 	str.w	r2, [r3, #264]	@ 0x108
 8004000:	681a      	ldr	r2, [r3, #0]
 8004002:	f042 0201 	orr.w	r2, r2, #1
 8004006:	601a      	str	r2, [r3, #0]
 8004008:	69a2      	ldr	r2, [r4, #24]
 800400a:	2a02      	cmp	r2, #2
 800400c:	bf02      	ittt	eq
 800400e:	689a      	ldreq	r2, [r3, #8]
 8004010:	f042 0202 	orreq.w	r2, r2, #2
 8004014:	609a      	streq	r2, [r3, #8]
 8004016:	68e3      	ldr	r3, [r4, #12]
 8004018:	f1b3 6f80 	cmp.w	r3, #67108864	@ 0x4000000
 800401c:	d104      	bne.n	8004028 <HAL_OSPI_Init+0xdc>
 800401e:	2301      	movs	r3, #1
 8004020:	6523      	str	r3, [r4, #80]	@ 0x50
 8004022:	2000      	movs	r0, #0
 8004024:	b003      	add	sp, #12
 8004026:	bdf0      	pop	{r4, r5, r6, r7, pc}
 8004028:	2302      	movs	r3, #2
 800402a:	e7f9      	b.n	8004020 <HAL_OSPI_Init+0xd4>
 800402c:	2001      	movs	r0, #1
 800402e:	e7f9      	b.n	8004024 <HAL_OSPI_Init+0xd8>
 8004030:	f8e0c0f4 	.word	0xf8e0c0f4

08004034 <HAL_OSPI_DeInit>:
 8004034:	b510      	push	{r4, lr}
 8004036:	4604      	mov	r4, r0
 8004038:	b168      	cbz	r0, 8004056 <HAL_OSPI_DeInit+0x22>
 800403a:	6803      	ldr	r3, [r0, #0]
 800403c:	681a      	ldr	r2, [r3, #0]
 800403e:	f022 0201 	bic.w	r2, r2, #1
 8004042:	601a      	str	r2, [r3, #0]
 8004044:	689a      	ldr	r2, [r3, #8]
 8004046:	f022 0202 	bic.w	r2, r2, #2
 800404a:	609a      	str	r2, [r3, #8]
 800404c:	f7fc fba8 	bl	80007a0 <HAL_OSPI_MspDeInit>
 8004050:	2000      	movs	r0, #0
 8004052:	6520      	str	r0, [r4, #80]	@ 0x50
 8004054:	bd10      	pop	{r4, pc}
 8004056:	2001      	movs	r0, #1
 8004058:	e7fc      	b.n	8004054 <HAL_OSPI_DeInit+0x20>

0800405a <HAL_OSPI_Command>:
 800405a:	b5f7      	push	{r0, r1, r2, r4, r5, r6, r7, lr}
 800405c:	4604      	mov	r4, r0
 800405e:	460d      	mov	r5, r1
 8004060:	4617      	mov	r7, r2
 8004062:	f7fe fe73 	bl	8002d4c <HAL_GetTick>
 8004066:	6d23      	ldr	r3, [r4, #80]	@ 0x50
 8004068:	4606      	mov	r6, r0
 800406a:	2b02      	cmp	r3, #2
 800406c:	d107      	bne.n	800407e <HAL_OSPI_Command+0x24>
 800406e:	68e3      	ldr	r3, [r4, #12]
 8004070:	f1b3 6f80 	cmp.w	r3, #67108864	@ 0x4000000
 8004074:	d109      	bne.n	800408a <HAL_OSPI_Command+0x30>
 8004076:	2310      	movs	r3, #16
 8004078:	2001      	movs	r0, #1
 800407a:	6563      	str	r3, [r4, #84]	@ 0x54
 800407c:	e01f      	b.n	80040be <HAL_OSPI_Command+0x64>
 800407e:	2b14      	cmp	r3, #20
 8004080:	d11f      	bne.n	80040c2 <HAL_OSPI_Command+0x68>
 8004082:	682b      	ldr	r3, [r5, #0]
 8004084:	3b02      	subs	r3, #2
 8004086:	2b01      	cmp	r3, #1
 8004088:	d8f5      	bhi.n	8004076 <HAL_OSPI_Command+0x1c>
 800408a:	4633      	mov	r3, r6
 800408c:	2200      	movs	r2, #0
 800408e:	2120      	movs	r1, #32
 8004090:	4620      	mov	r0, r4
 8004092:	9700      	str	r7, [sp, #0]
 8004094:	f7ff ff2e 	bl	8003ef4 <OSPI_WaitFlagStateUntilTimeout>
 8004098:	b988      	cbnz	r0, 80040be <HAL_OSPI_Command+0x64>
 800409a:	6560      	str	r0, [r4, #84]	@ 0x54
 800409c:	4629      	mov	r1, r5
 800409e:	4620      	mov	r0, r4
 80040a0:	f7ff fe44 	bl	8003d2c <OSPI_ConfigCmd>
 80040a4:	b958      	cbnz	r0, 80040be <HAL_OSPI_Command+0x64>
 80040a6:	6bab      	ldr	r3, [r5, #56]	@ 0x38
 80040a8:	b99b      	cbnz	r3, 80040d2 <HAL_OSPI_Command+0x78>
 80040aa:	4633      	mov	r3, r6
 80040ac:	2201      	movs	r2, #1
 80040ae:	2102      	movs	r1, #2
 80040b0:	4620      	mov	r0, r4
 80040b2:	9700      	str	r7, [sp, #0]
 80040b4:	f7ff ff1e 	bl	8003ef4 <OSPI_WaitFlagStateUntilTimeout>
 80040b8:	2202      	movs	r2, #2
 80040ba:	6823      	ldr	r3, [r4, #0]
 80040bc:	625a      	str	r2, [r3, #36]	@ 0x24
 80040be:	b003      	add	sp, #12
 80040c0:	bdf0      	pop	{r4, r5, r6, r7, pc}
 80040c2:	2b24      	cmp	r3, #36	@ 0x24
 80040c4:	d1d7      	bne.n	8004076 <HAL_OSPI_Command+0x1c>
 80040c6:	682b      	ldr	r3, [r5, #0]
 80040c8:	f023 0302 	bic.w	r3, r3, #2
 80040cc:	2b01      	cmp	r3, #1
 80040ce:	d1d2      	bne.n	8004076 <HAL_OSPI_Command+0x1c>
 80040d0:	e7db      	b.n	800408a <HAL_OSPI_Command+0x30>
 80040d2:	682b      	ldr	r3, [r5, #0]
 80040d4:	b90b      	cbnz	r3, 80040da <HAL_OSPI_Command+0x80>
 80040d6:	2304      	movs	r3, #4
 80040d8:	e005      	b.n	80040e6 <HAL_OSPI_Command+0x8c>
 80040da:	2b01      	cmp	r3, #1
 80040dc:	d105      	bne.n	80040ea <HAL_OSPI_Command+0x90>
 80040de:	6d23      	ldr	r3, [r4, #80]	@ 0x50
 80040e0:	2b24      	cmp	r3, #36	@ 0x24
 80040e2:	d0f8      	beq.n	80040d6 <HAL_OSPI_Command+0x7c>
 80040e4:	2314      	movs	r3, #20
 80040e6:	6523      	str	r3, [r4, #80]	@ 0x50
 80040e8:	e7e9      	b.n	80040be <HAL_OSPI_Command+0x64>
 80040ea:	2b02      	cmp	r3, #2
 80040ec:	d1e7      	bne.n	80040be <HAL_OSPI_Command+0x64>
 80040ee:	6d23      	ldr	r3, [r4, #80]	@ 0x50
 80040f0:	2b14      	cmp	r3, #20
 80040f2:	d0f0      	beq.n	80040d6 <HAL_OSPI_Command+0x7c>
 80040f4:	2324      	movs	r3, #36	@ 0x24
 80040f6:	e7f6      	b.n	80040e6 <HAL_OSPI_Command+0x8c>

080040f8 <HAL_OSPI_Transmit>:
 80040f8:	e92d 41f3 	stmdb	sp!, {r0, r1, r4, r5, r6, r7, r8, lr}
 80040fc:	4604      	mov	r4, r0
 80040fe:	4688      	mov	r8, r1
 8004100:	4616      	mov	r6, r2
 8004102:	f7fe fe23 	bl	8002d4c <HAL_GetTick>
 8004106:	6827      	ldr	r7, [r4, #0]
 8004108:	4605      	mov	r5, r0
 800410a:	f1b8 0f00 	cmp.w	r8, #0
 800410e:	d103      	bne.n	8004118 <HAL_OSPI_Transmit+0x20>
 8004110:	2308      	movs	r3, #8
 8004112:	2001      	movs	r0, #1
 8004114:	6563      	str	r3, [r4, #84]	@ 0x54
 8004116:	e02e      	b.n	8004176 <HAL_OSPI_Transmit+0x7e>
 8004118:	6d23      	ldr	r3, [r4, #80]	@ 0x50
 800411a:	2b04      	cmp	r3, #4
 800411c:	d12e      	bne.n	800417c <HAL_OSPI_Transmit+0x84>
 800411e:	6c3b      	ldr	r3, [r7, #64]	@ 0x40
 8004120:	f8c4 8040 	str.w	r8, [r4, #64]	@ 0x40
 8004124:	3301      	adds	r3, #1
 8004126:	64a3      	str	r3, [r4, #72]	@ 0x48
 8004128:	6ca3      	ldr	r3, [r4, #72]	@ 0x48
 800412a:	6463      	str	r3, [r4, #68]	@ 0x44
 800412c:	683b      	ldr	r3, [r7, #0]
 800412e:	f023 5340 	bic.w	r3, r3, #805306368	@ 0x30000000
 8004132:	603b      	str	r3, [r7, #0]
 8004134:	462b      	mov	r3, r5
 8004136:	2201      	movs	r2, #1
 8004138:	2104      	movs	r1, #4
 800413a:	4620      	mov	r0, r4
 800413c:	9600      	str	r6, [sp, #0]
 800413e:	f7ff fed9 	bl	8003ef4 <OSPI_WaitFlagStateUntilTimeout>
 8004142:	b9c0      	cbnz	r0, 8004176 <HAL_OSPI_Transmit+0x7e>
 8004144:	6c23      	ldr	r3, [r4, #64]	@ 0x40
 8004146:	781b      	ldrb	r3, [r3, #0]
 8004148:	f887 3050 	strb.w	r3, [r7, #80]	@ 0x50
 800414c:	6c23      	ldr	r3, [r4, #64]	@ 0x40
 800414e:	3301      	adds	r3, #1
 8004150:	6423      	str	r3, [r4, #64]	@ 0x40
 8004152:	6ca3      	ldr	r3, [r4, #72]	@ 0x48
 8004154:	3b01      	subs	r3, #1
 8004156:	64a3      	str	r3, [r4, #72]	@ 0x48
 8004158:	6ca3      	ldr	r3, [r4, #72]	@ 0x48
 800415a:	2b00      	cmp	r3, #0
 800415c:	d1ea      	bne.n	8004134 <HAL_OSPI_Transmit+0x3c>
 800415e:	462b      	mov	r3, r5
 8004160:	2201      	movs	r2, #1
 8004162:	2102      	movs	r1, #2
 8004164:	4620      	mov	r0, r4
 8004166:	9600      	str	r6, [sp, #0]
 8004168:	f7ff fec4 	bl	8003ef4 <OSPI_WaitFlagStateUntilTimeout>
 800416c:	b918      	cbnz	r0, 8004176 <HAL_OSPI_Transmit+0x7e>
 800416e:	2302      	movs	r3, #2
 8004170:	6822      	ldr	r2, [r4, #0]
 8004172:	6253      	str	r3, [r2, #36]	@ 0x24
 8004174:	6523      	str	r3, [r4, #80]	@ 0x50
 8004176:	b002      	add	sp, #8
 8004178:	e8bd 81f0 	ldmia.w	sp!, {r4, r5, r6, r7, r8, pc}
 800417c:	2310      	movs	r3, #16
 800417e:	e7c8      	b.n	8004112 <HAL_OSPI_Transmit+0x1a>

08004180 <HAL_OSPI_Receive>:
 8004180:	e92d 41f3 	stmdb	sp!, {r0, r1, r4, r5, r6, r7, r8, lr}
 8004184:	4604      	mov	r4, r0
 8004186:	4616      	mov	r6, r2
 8004188:	4688      	mov	r8, r1
 800418a:	f7fe fddf 	bl	8002d4c <HAL_GetTick>
 800418e:	6825      	ldr	r5, [r4, #0]
 8004190:	4607      	mov	r7, r0
 8004192:	6caa      	ldr	r2, [r5, #72]	@ 0x48
 8004194:	f8d5 0110 	ldr.w	r0, [r5, #272]	@ 0x110
 8004198:	f1b8 0f00 	cmp.w	r8, #0
 800419c:	d103      	bne.n	80041a6 <HAL_OSPI_Receive+0x26>
 800419e:	2308      	movs	r3, #8
 80041a0:	2001      	movs	r0, #1
 80041a2:	6563      	str	r3, [r4, #84]	@ 0x54
 80041a4:	e035      	b.n	8004212 <HAL_OSPI_Receive+0x92>
 80041a6:	6d23      	ldr	r3, [r4, #80]	@ 0x50
 80041a8:	2b04      	cmp	r3, #4
 80041aa:	d13d      	bne.n	8004228 <HAL_OSPI_Receive+0xa8>
 80041ac:	6c2b      	ldr	r3, [r5, #64]	@ 0x40
 80041ae:	f8c4 8040 	str.w	r8, [r4, #64]	@ 0x40
 80041b2:	3301      	adds	r3, #1
 80041b4:	64a3      	str	r3, [r4, #72]	@ 0x48
 80041b6:	6ca3      	ldr	r3, [r4, #72]	@ 0x48
 80041b8:	6463      	str	r3, [r4, #68]	@ 0x44
 80041ba:	6829      	ldr	r1, [r5, #0]
 80041bc:	68e3      	ldr	r3, [r4, #12]
 80041be:	f021 5140 	bic.w	r1, r1, #805306368	@ 0x30000000
 80041c2:	f041 5180 	orr.w	r1, r1, #268435456	@ 0x10000000
 80041c6:	f1b3 6f80 	cmp.w	r3, #67108864	@ 0x4000000
 80041ca:	6029      	str	r1, [r5, #0]
 80041cc:	d124      	bne.n	8004218 <HAL_OSPI_Receive+0x98>
 80041ce:	64aa      	str	r2, [r5, #72]	@ 0x48
 80041d0:	463b      	mov	r3, r7
 80041d2:	2201      	movs	r2, #1
 80041d4:	2106      	movs	r1, #6
 80041d6:	4620      	mov	r0, r4
 80041d8:	9600      	str	r6, [sp, #0]
 80041da:	f7ff fe8b 	bl	8003ef4 <OSPI_WaitFlagStateUntilTimeout>
 80041de:	b9c0      	cbnz	r0, 8004212 <HAL_OSPI_Receive+0x92>
 80041e0:	f895 2050 	ldrb.w	r2, [r5, #80]	@ 0x50
 80041e4:	6c23      	ldr	r3, [r4, #64]	@ 0x40
 80041e6:	701a      	strb	r2, [r3, #0]
 80041e8:	6c23      	ldr	r3, [r4, #64]	@ 0x40
 80041ea:	3301      	adds	r3, #1
 80041ec:	6423      	str	r3, [r4, #64]	@ 0x40
 80041ee:	6ca3      	ldr	r3, [r4, #72]	@ 0x48
 80041f0:	3b01      	subs	r3, #1
 80041f2:	64a3      	str	r3, [r4, #72]	@ 0x48
 80041f4:	6ca3      	ldr	r3, [r4, #72]	@ 0x48
 80041f6:	2b00      	cmp	r3, #0
 80041f8:	d1ea      	bne.n	80041d0 <HAL_OSPI_Receive+0x50>
 80041fa:	463b      	mov	r3, r7
 80041fc:	2201      	movs	r2, #1
 80041fe:	2102      	movs	r1, #2
 8004200:	4620      	mov	r0, r4
 8004202:	9600      	str	r6, [sp, #0]
 8004204:	f7ff fe76 	bl	8003ef4 <OSPI_WaitFlagStateUntilTimeout>
 8004208:	b918      	cbnz	r0, 8004212 <HAL_OSPI_Receive+0x92>
 800420a:	2302      	movs	r3, #2
 800420c:	6822      	ldr	r2, [r4, #0]
 800420e:	6253      	str	r3, [r2, #36]	@ 0x24
 8004210:	6523      	str	r3, [r4, #80]	@ 0x50
 8004212:	b002      	add	sp, #8
 8004214:	e8bd 81f0 	ldmia.w	sp!, {r4, r5, r6, r7, r8, pc}
 8004218:	f8d5 3100 	ldr.w	r3, [r5, #256]	@ 0x100
 800421c:	f413 6fe0 	tst.w	r3, #1792	@ 0x700
 8004220:	d1d5      	bne.n	80041ce <HAL_OSPI_Receive+0x4e>
 8004222:	f8c5 0110 	str.w	r0, [r5, #272]	@ 0x110
 8004226:	e7d3      	b.n	80041d0 <HAL_OSPI_Receive+0x50>
 8004228:	2310      	movs	r3, #16
 800422a:	e7b9      	b.n	80041a0 <HAL_OSPI_Receive+0x20>

0800422c <HAL_OSPI_Transmit_DMA>:
 800422c:	6802      	ldr	r2, [r0, #0]
 800422e:	b5f8      	push	{r3, r4, r5, r6, r7, lr}
 8004230:	4604      	mov	r4, r0
 8004232:	6c15      	ldr	r5, [r2, #64]	@ 0x40
 8004234:	b911      	cbnz	r1, 800423c <HAL_OSPI_Transmit_DMA+0x10>
 8004236:	2308      	movs	r3, #8
 8004238:	6563      	str	r3, [r4, #84]	@ 0x54
 800423a:	e069      	b.n	8004310 <HAL_OSPI_Transmit_DMA+0xe4>
 800423c:	6d03      	ldr	r3, [r0, #80]	@ 0x50
 800423e:	2b04      	cmp	r3, #4
 8004240:	d178      	bne.n	8004334 <HAL_OSPI_Transmit_DMA+0x108>
 8004242:	6cc0      	ldr	r0, [r0, #76]	@ 0x4c
 8004244:	3501      	adds	r5, #1
 8004246:	6d03      	ldr	r3, [r0, #80]	@ 0x50
 8004248:	f013 0680 	ands.w	r6, r3, #128	@ 0x80
 800424c:	d04c      	beq.n	80042e8 <HAL_OSPI_Transmit_DMA+0xbc>
 800424e:	6f47      	ldr	r7, [r0, #116]	@ 0x74
 8004250:	b187      	cbz	r7, 8004274 <HAL_OSPI_Transmit_DMA+0x48>
 8004252:	683b      	ldr	r3, [r7, #0]
 8004254:	b173      	cbz	r3, 8004274 <HAL_OSPI_Transmit_DMA+0x48>
 8004256:	681b      	ldr	r3, [r3, #0]
 8004258:	f403 3340 	and.w	r3, r3, #196608	@ 0x30000
 800425c:	b16b      	cbz	r3, 800427a <HAL_OSPI_Transmit_DMA+0x4e>
 800425e:	f5b3 3f80 	cmp.w	r3, #65536	@ 0x10000
 8004262:	d144      	bne.n	80042ee <HAL_OSPI_Transmit_DMA+0xc2>
 8004264:	07eb      	lsls	r3, r5, #31
 8004266:	d4e6      	bmi.n	8004236 <HAL_OSPI_Transmit_DMA+0xa>
 8004268:	6863      	ldr	r3, [r4, #4]
 800426a:	f013 0f01 	tst.w	r3, #1
 800426e:	d1e2      	bne.n	8004236 <HAL_OSPI_Transmit_DMA+0xa>
 8004270:	64a5      	str	r5, [r4, #72]	@ 0x48
 8004272:	e005      	b.n	8004280 <HAL_OSPI_Transmit_DMA+0x54>
 8004274:	2304      	movs	r3, #4
 8004276:	6563      	str	r3, [r4, #84]	@ 0x54
 8004278:	2301      	movs	r3, #1
 800427a:	64a5      	str	r5, [r4, #72]	@ 0x48
 800427c:	2b00      	cmp	r3, #0
 800427e:	d147      	bne.n	8004310 <HAL_OSPI_Transmit_DMA+0xe4>
 8004280:	6ca3      	ldr	r3, [r4, #72]	@ 0x48
 8004282:	6421      	str	r1, [r4, #64]	@ 0x40
 8004284:	6463      	str	r3, [r4, #68]	@ 0x44
 8004286:	6813      	ldr	r3, [r2, #0]
 8004288:	f023 5340 	bic.w	r3, r3, #805306368	@ 0x30000000
 800428c:	6013      	str	r3, [r2, #0]
 800428e:	2303      	movs	r3, #3
 8004290:	6253      	str	r3, [r2, #36]	@ 0x24
 8004292:	2318      	movs	r3, #24
 8004294:	6523      	str	r3, [r4, #80]	@ 0x50
 8004296:	4b28      	ldr	r3, [pc, #160]	@ (8004338 <HAL_OSPI_Transmit_DMA+0x10c>)
 8004298:	6603      	str	r3, [r0, #96]	@ 0x60
 800429a:	4b28      	ldr	r3, [pc, #160]	@ (800433c <HAL_OSPI_Transmit_DMA+0x110>)
 800429c:	6643      	str	r3, [r0, #100]	@ 0x64
 800429e:	4b28      	ldr	r3, [pc, #160]	@ (8004340 <HAL_OSPI_Transmit_DMA+0x114>)
 80042a0:	6683      	str	r3, [r0, #104]	@ 0x68
 80042a2:	2300      	movs	r3, #0
 80042a4:	66c3      	str	r3, [r0, #108]	@ 0x6c
 80042a6:	2e00      	cmp	r6, #0
 80042a8:	d034      	beq.n	8004314 <HAL_OSPI_Transmit_DMA+0xe8>
 80042aa:	6f43      	ldr	r3, [r0, #116]	@ 0x74
 80042ac:	b343      	cbz	r3, 8004300 <HAL_OSPI_Transmit_DMA+0xd4>
 80042ae:	683b      	ldr	r3, [r7, #0]
 80042b0:	3250      	adds	r2, #80	@ 0x50
 80042b2:	681d      	ldr	r5, [r3, #0]
 80042b4:	f025 1508 	bic.w	r5, r5, #524296	@ 0x80008
 80042b8:	f045 0508 	orr.w	r5, r5, #8
 80042bc:	601d      	str	r5, [r3, #0]
 80042be:	685d      	ldr	r5, [r3, #4]
 80042c0:	f445 6580 	orr.w	r5, r5, #1024	@ 0x400
 80042c4:	605d      	str	r5, [r3, #4]
 80042c6:	6c65      	ldr	r5, [r4, #68]	@ 0x44
 80042c8:	611a      	str	r2, [r3, #16]
 80042ca:	e9c3 5102 	strd	r5, r1, [r3, #8]
 80042ce:	f7ff f92d 	bl	800352c <HAL_DMAEx_List_Start_IT>
 80042d2:	b9c8      	cbnz	r0, 8004308 <HAL_OSPI_Transmit_DMA+0xdc>
 80042d4:	6823      	ldr	r3, [r4, #0]
 80042d6:	681a      	ldr	r2, [r3, #0]
 80042d8:	f442 3280 	orr.w	r2, r2, #65536	@ 0x10000
 80042dc:	601a      	str	r2, [r3, #0]
 80042de:	681a      	ldr	r2, [r3, #0]
 80042e0:	f042 0204 	orr.w	r2, r2, #4
 80042e4:	601a      	str	r2, [r3, #0]
 80042e6:	bdf8      	pop	{r3, r4, r5, r6, r7, pc}
 80042e8:	4637      	mov	r7, r6
 80042ea:	69c3      	ldr	r3, [r0, #28]
 80042ec:	e7b6      	b.n	800425c <HAL_OSPI_Transmit_DMA+0x30>
 80042ee:	f5b3 3f00 	cmp.w	r3, #131072	@ 0x20000
 80042f2:	d1c5      	bne.n	8004280 <HAL_OSPI_Transmit_DMA+0x54>
 80042f4:	07ab      	lsls	r3, r5, #30
 80042f6:	d19e      	bne.n	8004236 <HAL_OSPI_Transmit_DMA+0xa>
 80042f8:	6863      	ldr	r3, [r4, #4]
 80042fa:	f013 0f03 	tst.w	r3, #3
 80042fe:	e7b6      	b.n	800426e <HAL_OSPI_Transmit_DMA+0x42>
 8004300:	2304      	movs	r3, #4
 8004302:	6563      	str	r3, [r4, #84]	@ 0x54
 8004304:	2302      	movs	r3, #2
 8004306:	6523      	str	r3, [r4, #80]	@ 0x50
 8004308:	2304      	movs	r3, #4
 800430a:	6563      	str	r3, [r4, #84]	@ 0x54
 800430c:	2302      	movs	r3, #2
 800430e:	6523      	str	r3, [r4, #80]	@ 0x50
 8004310:	2001      	movs	r0, #1
 8004312:	e7e8      	b.n	80042e6 <HAL_OSPI_Transmit_DMA+0xba>
 8004314:	6805      	ldr	r5, [r0, #0]
 8004316:	3250      	adds	r2, #80	@ 0x50
 8004318:	6c2b      	ldr	r3, [r5, #64]	@ 0x40
 800431a:	f023 1308 	bic.w	r3, r3, #524296	@ 0x80008
 800431e:	f043 0308 	orr.w	r3, r3, #8
 8004322:	642b      	str	r3, [r5, #64]	@ 0x40
 8004324:	6c6b      	ldr	r3, [r5, #68]	@ 0x44
 8004326:	f443 6380 	orr.w	r3, r3, #1024	@ 0x400
 800432a:	646b      	str	r3, [r5, #68]	@ 0x44
 800432c:	6c63      	ldr	r3, [r4, #68]	@ 0x44
 800432e:	f7fe fdd9 	bl	8002ee4 <HAL_DMA_Start_IT>
 8004332:	e7ce      	b.n	80042d2 <HAL_OSPI_Transmit_DMA+0xa6>
 8004334:	2310      	movs	r3, #16
 8004336:	e77f      	b.n	8004238 <HAL_OSPI_Transmit_DMA+0xc>
 8004338:	08003d09 	.word	0x08003d09
 800433c:	080045df 	.word	0x080045df
 8004340:	080046f1 	.word	0x080046f1

08004344 <HAL_OSPI_Receive_DMA>:
 8004344:	b5f8      	push	{r3, r4, r5, r6, r7, lr}
 8004346:	6805      	ldr	r5, [r0, #0]
 8004348:	4604      	mov	r4, r0
 800434a:	6c2b      	ldr	r3, [r5, #64]	@ 0x40
 800434c:	460a      	mov	r2, r1
 800434e:	6cae      	ldr	r6, [r5, #72]	@ 0x48
 8004350:	f8d5 7110 	ldr.w	r7, [r5, #272]	@ 0x110
 8004354:	b911      	cbnz	r1, 800435c <HAL_OSPI_Receive_DMA+0x18>
 8004356:	2308      	movs	r3, #8
 8004358:	6563      	str	r3, [r4, #84]	@ 0x54
 800435a:	e077      	b.n	800444c <HAL_OSPI_Receive_DMA+0x108>
 800435c:	6d01      	ldr	r1, [r0, #80]	@ 0x50
 800435e:	2904      	cmp	r1, #4
 8004360:	f040 808f 	bne.w	8004482 <HAL_OSPI_Receive_DMA+0x13e>
 8004364:	6cc0      	ldr	r0, [r0, #76]	@ 0x4c
 8004366:	1c59      	adds	r1, r3, #1
 8004368:	6d03      	ldr	r3, [r0, #80]	@ 0x50
 800436a:	f013 0c80 	ands.w	ip, r3, #128	@ 0x80
 800436e:	d059      	beq.n	8004424 <HAL_OSPI_Receive_DMA+0xe0>
 8004370:	f8d0 e074 	ldr.w	lr, [r0, #116]	@ 0x74
 8004374:	f1be 0f00 	cmp.w	lr, #0
 8004378:	d011      	beq.n	800439e <HAL_OSPI_Receive_DMA+0x5a>
 800437a:	f8de 3000 	ldr.w	r3, [lr]
 800437e:	b173      	cbz	r3, 800439e <HAL_OSPI_Receive_DMA+0x5a>
 8004380:	681b      	ldr	r3, [r3, #0]
 8004382:	f403 3340 	and.w	r3, r3, #196608	@ 0x30000
 8004386:	b16b      	cbz	r3, 80043a4 <HAL_OSPI_Receive_DMA+0x60>
 8004388:	f5b3 3f80 	cmp.w	r3, #65536	@ 0x10000
 800438c:	d14d      	bne.n	800442a <HAL_OSPI_Receive_DMA+0xe6>
 800438e:	07cb      	lsls	r3, r1, #31
 8004390:	d4e1      	bmi.n	8004356 <HAL_OSPI_Receive_DMA+0x12>
 8004392:	6863      	ldr	r3, [r4, #4]
 8004394:	f013 0f01 	tst.w	r3, #1
 8004398:	d1dd      	bne.n	8004356 <HAL_OSPI_Receive_DMA+0x12>
 800439a:	64a1      	str	r1, [r4, #72]	@ 0x48
 800439c:	e005      	b.n	80043aa <HAL_OSPI_Receive_DMA+0x66>
 800439e:	2304      	movs	r3, #4
 80043a0:	6563      	str	r3, [r4, #84]	@ 0x54
 80043a2:	2301      	movs	r3, #1
 80043a4:	64a1      	str	r1, [r4, #72]	@ 0x48
 80043a6:	2b00      	cmp	r3, #0
 80043a8:	d150      	bne.n	800444c <HAL_OSPI_Receive_DMA+0x108>
 80043aa:	6ca3      	ldr	r3, [r4, #72]	@ 0x48
 80043ac:	6422      	str	r2, [r4, #64]	@ 0x40
 80043ae:	6463      	str	r3, [r4, #68]	@ 0x44
 80043b0:	682b      	ldr	r3, [r5, #0]
 80043b2:	f023 5340 	bic.w	r3, r3, #805306368	@ 0x30000000
 80043b6:	f043 5380 	orr.w	r3, r3, #268435456	@ 0x10000000
 80043ba:	602b      	str	r3, [r5, #0]
 80043bc:	2303      	movs	r3, #3
 80043be:	626b      	str	r3, [r5, #36]	@ 0x24
 80043c0:	2328      	movs	r3, #40	@ 0x28
 80043c2:	6523      	str	r3, [r4, #80]	@ 0x50
 80043c4:	4b30      	ldr	r3, [pc, #192]	@ (8004488 <HAL_OSPI_Receive_DMA+0x144>)
 80043c6:	6603      	str	r3, [r0, #96]	@ 0x60
 80043c8:	4b30      	ldr	r3, [pc, #192]	@ (800448c <HAL_OSPI_Receive_DMA+0x148>)
 80043ca:	6643      	str	r3, [r0, #100]	@ 0x64
 80043cc:	4b30      	ldr	r3, [pc, #192]	@ (8004490 <HAL_OSPI_Receive_DMA+0x14c>)
 80043ce:	6683      	str	r3, [r0, #104]	@ 0x68
 80043d0:	2300      	movs	r3, #0
 80043d2:	66c3      	str	r3, [r0, #108]	@ 0x6c
 80043d4:	f1bc 0f00 	cmp.w	ip, #0
 80043d8:	d03a      	beq.n	8004450 <HAL_OSPI_Receive_DMA+0x10c>
 80043da:	6f43      	ldr	r3, [r0, #116]	@ 0x74
 80043dc:	b373      	cbz	r3, 800443c <HAL_OSPI_Receive_DMA+0xf8>
 80043de:	f8de 3000 	ldr.w	r3, [lr]
 80043e2:	3550      	adds	r5, #80	@ 0x50
 80043e4:	6819      	ldr	r1, [r3, #0]
 80043e6:	f021 1108 	bic.w	r1, r1, #524296	@ 0x80008
 80043ea:	f441 2100 	orr.w	r1, r1, #524288	@ 0x80000
 80043ee:	6019      	str	r1, [r3, #0]
 80043f0:	6859      	ldr	r1, [r3, #4]
 80043f2:	f421 6180 	bic.w	r1, r1, #1024	@ 0x400
 80043f6:	6059      	str	r1, [r3, #4]
 80043f8:	6c61      	ldr	r1, [r4, #68]	@ 0x44
 80043fa:	e9c3 5203 	strd	r5, r2, [r3, #12]
 80043fe:	6099      	str	r1, [r3, #8]
 8004400:	f7ff f894 	bl	800352c <HAL_DMAEx_List_Start_IT>
 8004404:	b9f0      	cbnz	r0, 8004444 <HAL_OSPI_Receive_DMA+0x100>
 8004406:	6823      	ldr	r3, [r4, #0]
 8004408:	681a      	ldr	r2, [r3, #0]
 800440a:	f442 3280 	orr.w	r2, r2, #65536	@ 0x10000
 800440e:	601a      	str	r2, [r3, #0]
 8004410:	68e2      	ldr	r2, [r4, #12]
 8004412:	f1b2 6f80 	cmp.w	r2, #67108864	@ 0x4000000
 8004416:	d12c      	bne.n	8004472 <HAL_OSPI_Receive_DMA+0x12e>
 8004418:	649e      	str	r6, [r3, #72]	@ 0x48
 800441a:	681a      	ldr	r2, [r3, #0]
 800441c:	f042 0204 	orr.w	r2, r2, #4
 8004420:	601a      	str	r2, [r3, #0]
 8004422:	bdf8      	pop	{r3, r4, r5, r6, r7, pc}
 8004424:	46e6      	mov	lr, ip
 8004426:	69c3      	ldr	r3, [r0, #28]
 8004428:	e7ad      	b.n	8004386 <HAL_OSPI_Receive_DMA+0x42>
 800442a:	f5b3 3f00 	cmp.w	r3, #131072	@ 0x20000
 800442e:	d1bc      	bne.n	80043aa <HAL_OSPI_Receive_DMA+0x66>
 8004430:	078b      	lsls	r3, r1, #30
 8004432:	d190      	bne.n	8004356 <HAL_OSPI_Receive_DMA+0x12>
 8004434:	6863      	ldr	r3, [r4, #4]
 8004436:	f013 0f03 	tst.w	r3, #3
 800443a:	e7ad      	b.n	8004398 <HAL_OSPI_Receive_DMA+0x54>
 800443c:	2304      	movs	r3, #4
 800443e:	6563      	str	r3, [r4, #84]	@ 0x54
 8004440:	2302      	movs	r3, #2
 8004442:	6523      	str	r3, [r4, #80]	@ 0x50
 8004444:	2304      	movs	r3, #4
 8004446:	6563      	str	r3, [r4, #84]	@ 0x54
 8004448:	2302      	movs	r3, #2
 800444a:	6523      	str	r3, [r4, #80]	@ 0x50
 800444c:	2001      	movs	r0, #1
 800444e:	e7e8      	b.n	8004422 <HAL_OSPI_Receive_DMA+0xde>
 8004450:	6801      	ldr	r1, [r0, #0]
 8004452:	6c0b      	ldr	r3, [r1, #64]	@ 0x40
 8004454:	f023 1308 	bic.w	r3, r3, #524296	@ 0x80008
 8004458:	f443 2300 	orr.w	r3, r3, #524288	@ 0x80000
 800445c:	640b      	str	r3, [r1, #64]	@ 0x40
 800445e:	6c4b      	ldr	r3, [r1, #68]	@ 0x44
 8004460:	f423 6380 	bic.w	r3, r3, #1024	@ 0x400
 8004464:	644b      	str	r3, [r1, #68]	@ 0x44
 8004466:	6c63      	ldr	r3, [r4, #68]	@ 0x44
 8004468:	f105 0150 	add.w	r1, r5, #80	@ 0x50
 800446c:	f7fe fd3a 	bl	8002ee4 <HAL_DMA_Start_IT>
 8004470:	e7c8      	b.n	8004404 <HAL_OSPI_Receive_DMA+0xc0>
 8004472:	f8d3 2100 	ldr.w	r2, [r3, #256]	@ 0x100
 8004476:	f412 6fe0 	tst.w	r2, #1792	@ 0x700
 800447a:	d1cd      	bne.n	8004418 <HAL_OSPI_Receive_DMA+0xd4>
 800447c:	f8c3 7110 	str.w	r7, [r3, #272]	@ 0x110
 8004480:	e7cb      	b.n	800441a <HAL_OSPI_Receive_DMA+0xd6>
 8004482:	2310      	movs	r3, #16
 8004484:	e768      	b.n	8004358 <HAL_OSPI_Receive_DMA+0x14>
 8004486:	bf00      	nop
 8004488:	08003d09 	.word	0x08003d09
 800448c:	080045df 	.word	0x080045df
 8004490:	080046f1 	.word	0x080046f1

08004494 <HAL_OSPI_AutoPolling>:
 8004494:	e92d 43f7 	stmdb	sp!, {r0, r1, r2, r4, r5, r6, r7, r8, r9, lr}
 8004498:	4604      	mov	r4, r0
 800449a:	460d      	mov	r5, r1
 800449c:	4616      	mov	r6, r2
 800449e:	f7fe fc55 	bl	8002d4c <HAL_GetTick>
 80044a2:	6823      	ldr	r3, [r4, #0]
 80044a4:	4681      	mov	r9, r0
 80044a6:	6c9f      	ldr	r7, [r3, #72]	@ 0x48
 80044a8:	f8d3 8110 	ldr.w	r8, [r3, #272]	@ 0x110
 80044ac:	6d23      	ldr	r3, [r4, #80]	@ 0x50
 80044ae:	2b04      	cmp	r3, #4
 80044b0:	d13c      	bne.n	800452c <HAL_OSPI_AutoPolling+0x98>
 80044b2:	68eb      	ldr	r3, [r5, #12]
 80044b4:	f5b3 0f80 	cmp.w	r3, #4194304	@ 0x400000
 80044b8:	d138      	bne.n	800452c <HAL_OSPI_AutoPolling+0x98>
 80044ba:	4603      	mov	r3, r0
 80044bc:	2200      	movs	r2, #0
 80044be:	2120      	movs	r1, #32
 80044c0:	4620      	mov	r0, r4
 80044c2:	9600      	str	r6, [sp, #0]
 80044c4:	f7ff fd16 	bl	8003ef4 <OSPI_WaitFlagStateUntilTimeout>
 80044c8:	bb28      	cbnz	r0, 8004516 <HAL_OSPI_AutoPolling+0x82>
 80044ca:	6823      	ldr	r3, [r4, #0]
 80044cc:	682a      	ldr	r2, [r5, #0]
 80044ce:	f8c3 2088 	str.w	r2, [r3, #136]	@ 0x88
 80044d2:	686a      	ldr	r2, [r5, #4]
 80044d4:	f8c3 2080 	str.w	r2, [r3, #128]	@ 0x80
 80044d8:	692a      	ldr	r2, [r5, #16]
 80044da:	f8c3 2090 	str.w	r2, [r3, #144]	@ 0x90
 80044de:	6819      	ldr	r1, [r3, #0]
 80044e0:	e9d5 2002 	ldrd	r2, r0, [r5, #8]
 80044e4:	f021 5143 	bic.w	r1, r1, #817889280	@ 0x30c00000
 80044e8:	4302      	orrs	r2, r0
 80044ea:	430a      	orrs	r2, r1
 80044ec:	f042 5200 	orr.w	r2, r2, #536870912	@ 0x20000000
 80044f0:	601a      	str	r2, [r3, #0]
 80044f2:	68e2      	ldr	r2, [r4, #12]
 80044f4:	f1b2 6f80 	cmp.w	r2, #67108864	@ 0x4000000
 80044f8:	d110      	bne.n	800451c <HAL_OSPI_AutoPolling+0x88>
 80044fa:	649f      	str	r7, [r3, #72]	@ 0x48
 80044fc:	464b      	mov	r3, r9
 80044fe:	2201      	movs	r2, #1
 8004500:	2108      	movs	r1, #8
 8004502:	4620      	mov	r0, r4
 8004504:	9600      	str	r6, [sp, #0]
 8004506:	f7ff fcf5 	bl	8003ef4 <OSPI_WaitFlagStateUntilTimeout>
 800450a:	b920      	cbnz	r0, 8004516 <HAL_OSPI_AutoPolling+0x82>
 800450c:	2208      	movs	r2, #8
 800450e:	6823      	ldr	r3, [r4, #0]
 8004510:	625a      	str	r2, [r3, #36]	@ 0x24
 8004512:	2302      	movs	r3, #2
 8004514:	6523      	str	r3, [r4, #80]	@ 0x50
 8004516:	b003      	add	sp, #12
 8004518:	e8bd 83f0 	ldmia.w	sp!, {r4, r5, r6, r7, r8, r9, pc}
 800451c:	f8d3 2100 	ldr.w	r2, [r3, #256]	@ 0x100
 8004520:	f412 6fe0 	tst.w	r2, #1792	@ 0x700
 8004524:	d1e9      	bne.n	80044fa <HAL_OSPI_AutoPolling+0x66>
 8004526:	f8c3 8110 	str.w	r8, [r3, #272]	@ 0x110
 800452a:	e7e7      	b.n	80044fc <HAL_OSPI_AutoPolling+0x68>
 800452c:	2310      	movs	r3, #16
 800452e:	2001      	movs	r0, #1
 8004530:	6563      	str	r3, [r4, #84]	@ 0x54
 8004532:	e7f0      	b.n	8004516 <HAL_OSPI_AutoPolling+0x82>

08004534 <HAL_OSPI_MemoryMapped>:
 8004534:	b537      	push	{r0, r1, r2, r4, r5, lr}
 8004536:	4604      	mov	r4, r0
 8004538:	460d      	mov	r5, r1
 800453a:	f7fe fc07 	bl	8002d4c <HAL_GetTick>
 800453e:	6d22      	ldr	r2, [r4, #80]	@ 0x50
 8004540:	4603      	mov	r3, r0
 8004542:	2a04      	cmp	r2, #4
 8004544:	d121      	bne.n	800458a <HAL_OSPI_MemoryMapped+0x56>
 8004546:	6da2      	ldr	r2, [r4, #88]	@ 0x58
 8004548:	2120      	movs	r1, #32
 800454a:	9200      	str	r2, [sp, #0]
 800454c:	4620      	mov	r0, r4
 800454e:	2200      	movs	r2, #0
 8004550:	f7ff fcd0 	bl	8003ef4 <OSPI_WaitFlagStateUntilTimeout>
 8004554:	b9b8      	cbnz	r0, 8004586 <HAL_OSPI_MemoryMapped+0x52>
 8004556:	2388      	movs	r3, #136	@ 0x88
 8004558:	6829      	ldr	r1, [r5, #0]
 800455a:	6822      	ldr	r2, [r4, #0]
 800455c:	2908      	cmp	r1, #8
 800455e:	6523      	str	r3, [r4, #80]	@ 0x50
 8004560:	d108      	bne.n	8004574 <HAL_OSPI_MemoryMapped+0x40>
 8004562:	686b      	ldr	r3, [r5, #4]
 8004564:	f8c2 3130 	str.w	r3, [r2, #304]	@ 0x130
 8004568:	2310      	movs	r3, #16
 800456a:	6253      	str	r3, [r2, #36]	@ 0x24
 800456c:	6813      	ldr	r3, [r2, #0]
 800456e:	f443 1380 	orr.w	r3, r3, #1048576	@ 0x100000
 8004572:	6013      	str	r3, [r2, #0]
 8004574:	6813      	ldr	r3, [r2, #0]
 8004576:	f023 5340 	bic.w	r3, r3, #805306368	@ 0x30000000
 800457a:	f023 0308 	bic.w	r3, r3, #8
 800457e:	430b      	orrs	r3, r1
 8004580:	f043 5340 	orr.w	r3, r3, #805306368	@ 0x30000000
 8004584:	6013      	str	r3, [r2, #0]
 8004586:	b003      	add	sp, #12
 8004588:	bd30      	pop	{r4, r5, pc}
 800458a:	2310      	movs	r3, #16
 800458c:	2001      	movs	r0, #1
 800458e:	6563      	str	r3, [r4, #84]	@ 0x54
 8004590:	e7f9      	b.n	8004586 <HAL_OSPI_MemoryMapped+0x52>

08004592 <HAL_OSPI_ErrorCallback>:
 8004592:	4770      	bx	lr

08004594 <HAL_OSPI_AbortCpltCallback>:
 8004594:	4770      	bx	lr

08004596 <OSPI_DMAAbortCplt>:
 8004596:	b508      	push	{r3, lr}
 8004598:	2300      	movs	r3, #0
 800459a:	6dc0      	ldr	r0, [r0, #92]	@ 0x5c
 800459c:	6483      	str	r3, [r0, #72]	@ 0x48
 800459e:	6d03      	ldr	r3, [r0, #80]	@ 0x50
 80045a0:	f5b3 7f80 	cmp.w	r3, #256	@ 0x100
 80045a4:	d114      	bne.n	80045d0 <OSPI_DMAAbortCplt+0x3a>
 80045a6:	6803      	ldr	r3, [r0, #0]
 80045a8:	6a1a      	ldr	r2, [r3, #32]
 80045aa:	f012 0f20 	tst.w	r2, #32
 80045ae:	f04f 0202 	mov.w	r2, #2
 80045b2:	d009      	beq.n	80045c8 <OSPI_DMAAbortCplt+0x32>
 80045b4:	625a      	str	r2, [r3, #36]	@ 0x24
 80045b6:	681a      	ldr	r2, [r3, #0]
 80045b8:	f442 3200 	orr.w	r2, r2, #131072	@ 0x20000
 80045bc:	601a      	str	r2, [r3, #0]
 80045be:	681a      	ldr	r2, [r3, #0]
 80045c0:	f042 0202 	orr.w	r2, r2, #2
 80045c4:	601a      	str	r2, [r3, #0]
 80045c6:	bd08      	pop	{r3, pc}
 80045c8:	6502      	str	r2, [r0, #80]	@ 0x50
 80045ca:	f7ff ffe3 	bl	8004594 <HAL_OSPI_AbortCpltCallback>
 80045ce:	e7fa      	b.n	80045c6 <OSPI_DMAAbortCplt+0x30>
 80045d0:	2302      	movs	r3, #2
 80045d2:	6503      	str	r3, [r0, #80]	@ 0x50
 80045d4:	f7ff ffdd 	bl	8004592 <HAL_OSPI_ErrorCallback>
 80045d8:	e7f5      	b.n	80045c6 <OSPI_DMAAbortCplt+0x30>

080045da <HAL_OSPI_RxHalfCpltCallback>:
 80045da:	4770      	bx	lr

080045dc <HAL_OSPI_TxHalfCpltCallback>:
 80045dc:	4770      	bx	lr

080045de <OSPI_DMAHalfCplt>:
 80045de:	6dc0      	ldr	r0, [r0, #92]	@ 0x5c
 80045e0:	b508      	push	{r3, lr}
 80045e2:	6c83      	ldr	r3, [r0, #72]	@ 0x48
 80045e4:	085b      	lsrs	r3, r3, #1
 80045e6:	6483      	str	r3, [r0, #72]	@ 0x48
 80045e8:	6d03      	ldr	r3, [r0, #80]	@ 0x50
 80045ea:	2b28      	cmp	r3, #40	@ 0x28
 80045ec:	d102      	bne.n	80045f4 <OSPI_DMAHalfCplt+0x16>
 80045ee:	f7ff fff4 	bl	80045da <HAL_OSPI_RxHalfCpltCallback>
 80045f2:	bd08      	pop	{r3, pc}
 80045f4:	f7ff fff2 	bl	80045dc <HAL_OSPI_TxHalfCpltCallback>
 80045f8:	e7fb      	b.n	80045f2 <OSPI_DMAHalfCplt+0x14>

080045fa <HAL_OSPI_Abort>:
 80045fa:	b573      	push	{r0, r1, r4, r5, r6, lr}
 80045fc:	4604      	mov	r4, r0
 80045fe:	f7fe fba5 	bl	8002d4c <HAL_GetTick>
 8004602:	6d23      	ldr	r3, [r4, #80]	@ 0x50
 8004604:	4605      	mov	r5, r0
 8004606:	f013 0f0c 	tst.w	r3, #12
 800460a:	d032      	beq.n	8004672 <HAL_OSPI_Abort+0x78>
 800460c:	6823      	ldr	r3, [r4, #0]
 800460e:	681a      	ldr	r2, [r3, #0]
 8004610:	0751      	lsls	r1, r2, #29
 8004612:	d507      	bpl.n	8004624 <HAL_OSPI_Abort+0x2a>
 8004614:	681a      	ldr	r2, [r3, #0]
 8004616:	6ce0      	ldr	r0, [r4, #76]	@ 0x4c
 8004618:	f022 0204 	bic.w	r2, r2, #4
 800461c:	601a      	str	r2, [r3, #0]
 800461e:	f7fe fc9f 	bl	8002f60 <HAL_DMA_Abort>
 8004622:	bb00      	cbnz	r0, 8004666 <HAL_OSPI_Abort+0x6c>
 8004624:	2000      	movs	r0, #0
 8004626:	6823      	ldr	r3, [r4, #0]
 8004628:	6a1a      	ldr	r2, [r3, #32]
 800462a:	0692      	lsls	r2, r2, #26
 800462c:	d51e      	bpl.n	800466c <HAL_OSPI_Abort+0x72>
 800462e:	681a      	ldr	r2, [r3, #0]
 8004630:	2102      	movs	r1, #2
 8004632:	f042 0202 	orr.w	r2, r2, #2
 8004636:	601a      	str	r2, [r3, #0]
 8004638:	6da3      	ldr	r3, [r4, #88]	@ 0x58
 800463a:	2201      	movs	r2, #1
 800463c:	9300      	str	r3, [sp, #0]
 800463e:	4620      	mov	r0, r4
 8004640:	462b      	mov	r3, r5
 8004642:	f7ff fc57 	bl	8003ef4 <OSPI_WaitFlagStateUntilTimeout>
 8004646:	b960      	cbnz	r0, 8004662 <HAL_OSPI_Abort+0x68>
 8004648:	2602      	movs	r6, #2
 800464a:	6823      	ldr	r3, [r4, #0]
 800464c:	4602      	mov	r2, r0
 800464e:	625e      	str	r6, [r3, #36]	@ 0x24
 8004650:	6da3      	ldr	r3, [r4, #88]	@ 0x58
 8004652:	2120      	movs	r1, #32
 8004654:	9300      	str	r3, [sp, #0]
 8004656:	4620      	mov	r0, r4
 8004658:	462b      	mov	r3, r5
 800465a:	f7ff fc4b 	bl	8003ef4 <OSPI_WaitFlagStateUntilTimeout>
 800465e:	b900      	cbnz	r0, 8004662 <HAL_OSPI_Abort+0x68>
 8004660:	6526      	str	r6, [r4, #80]	@ 0x50
 8004662:	b002      	add	sp, #8
 8004664:	bd70      	pop	{r4, r5, r6, pc}
 8004666:	2304      	movs	r3, #4
 8004668:	6563      	str	r3, [r4, #84]	@ 0x54
 800466a:	e7dc      	b.n	8004626 <HAL_OSPI_Abort+0x2c>
 800466c:	2302      	movs	r3, #2
 800466e:	6523      	str	r3, [r4, #80]	@ 0x50
 8004670:	e7f7      	b.n	8004662 <HAL_OSPI_Abort+0x68>
 8004672:	2310      	movs	r3, #16
 8004674:	2001      	movs	r0, #1
 8004676:	6563      	str	r3, [r4, #84]	@ 0x54
 8004678:	e7f3      	b.n	8004662 <HAL_OSPI_Abort+0x68>
	...

0800467c <HAL_OSPI_Abort_IT>:
 800467c:	6d03      	ldr	r3, [r0, #80]	@ 0x50
 800467e:	b510      	push	{r4, lr}
 8004680:	f013 0f0c 	tst.w	r3, #12
 8004684:	4604      	mov	r4, r0
 8004686:	d02d      	beq.n	80046e4 <HAL_OSPI_Abort_IT+0x68>
 8004688:	6803      	ldr	r3, [r0, #0]
 800468a:	681a      	ldr	r2, [r3, #0]
 800468c:	f422 12f8 	bic.w	r2, r2, #2031616	@ 0x1f0000
 8004690:	601a      	str	r2, [r3, #0]
 8004692:	f44f 7280 	mov.w	r2, #256	@ 0x100
 8004696:	6502      	str	r2, [r0, #80]	@ 0x50
 8004698:	681a      	ldr	r2, [r3, #0]
 800469a:	0752      	lsls	r2, r2, #29
 800469c:	d510      	bpl.n	80046c0 <HAL_OSPI_Abort_IT+0x44>
 800469e:	681a      	ldr	r2, [r3, #0]
 80046a0:	6cc0      	ldr	r0, [r0, #76]	@ 0x4c
 80046a2:	f022 0204 	bic.w	r2, r2, #4
 80046a6:	601a      	str	r2, [r3, #0]
 80046a8:	4b10      	ldr	r3, [pc, #64]	@ (80046ec <HAL_OSPI_Abort_IT+0x70>)
 80046aa:	66c3      	str	r3, [r0, #108]	@ 0x6c
 80046ac:	f7fe fca2 	bl	8002ff4 <HAL_DMA_Abort_IT>
 80046b0:	b120      	cbz	r0, 80046bc <HAL_OSPI_Abort_IT+0x40>
 80046b2:	2302      	movs	r3, #2
 80046b4:	4620      	mov	r0, r4
 80046b6:	6523      	str	r3, [r4, #80]	@ 0x50
 80046b8:	f7ff ff6c 	bl	8004594 <HAL_OSPI_AbortCpltCallback>
 80046bc:	2000      	movs	r0, #0
 80046be:	bd10      	pop	{r4, pc}
 80046c0:	6a1a      	ldr	r2, [r3, #32]
 80046c2:	f012 0f20 	tst.w	r2, #32
 80046c6:	f04f 0202 	mov.w	r2, #2
 80046ca:	d009      	beq.n	80046e0 <HAL_OSPI_Abort_IT+0x64>
 80046cc:	625a      	str	r2, [r3, #36]	@ 0x24
 80046ce:	681a      	ldr	r2, [r3, #0]
 80046d0:	f442 3200 	orr.w	r2, r2, #131072	@ 0x20000
 80046d4:	601a      	str	r2, [r3, #0]
 80046d6:	681a      	ldr	r2, [r3, #0]
 80046d8:	f042 0202 	orr.w	r2, r2, #2
 80046dc:	601a      	str	r2, [r3, #0]
 80046de:	e7ed      	b.n	80046bc <HAL_OSPI_Abort_IT+0x40>
 80046e0:	6502      	str	r2, [r0, #80]	@ 0x50
 80046e2:	e7e9      	b.n	80046b8 <HAL_OSPI_Abort_IT+0x3c>
 80046e4:	2310      	movs	r3, #16
 80046e6:	6543      	str	r3, [r0, #84]	@ 0x54
 80046e8:	2001      	movs	r0, #1
 80046ea:	e7e8      	b.n	80046be <HAL_OSPI_Abort_IT+0x42>
 80046ec:	08004597 	.word	0x08004597

080046f0 <OSPI_DMAError>:
 80046f0:	2300      	movs	r3, #0
 80046f2:	b510      	push	{r4, lr}
 80046f4:	6dc4      	ldr	r4, [r0, #92]	@ 0x5c
 80046f6:	64a3      	str	r3, [r4, #72]	@ 0x48
 80046f8:	2304      	movs	r3, #4
 80046fa:	6822      	ldr	r2, [r4, #0]
 80046fc:	6563      	str	r3, [r4, #84]	@ 0x54
 80046fe:	6813      	ldr	r3, [r2, #0]
 8004700:	4620      	mov	r0, r4
 8004702:	f023 0304 	bic.w	r3, r3, #4
 8004706:	6013      	str	r3, [r2, #0]
 8004708:	f7ff ffb8 	bl	800467c <HAL_OSPI_Abort_IT>
 800470c:	b148      	cbz	r0, 8004722 <OSPI_DMAError+0x32>
 800470e:	6822      	ldr	r2, [r4, #0]
 8004710:	4620      	mov	r0, r4
 8004712:	6813      	ldr	r3, [r2, #0]
 8004714:	f423 23e0 	bic.w	r3, r3, #458752	@ 0x70000
 8004718:	6013      	str	r3, [r2, #0]
 800471a:	2302      	movs	r3, #2
 800471c:	6523      	str	r3, [r4, #80]	@ 0x50
 800471e:	f7ff ff38 	bl	8004592 <HAL_OSPI_ErrorCallback>
 8004722:	bd10      	pop	{r4, pc}

08004724 <HAL_OSPIM_Config>:
 8004724:	e92d 4ff0 	stmdb	sp!, {r4, r5, r6, r7, r8, r9, sl, fp, lr}
 8004728:	6803      	ldr	r3, [r0, #0]
 800472a:	f8df 92ec 	ldr.w	r9, [pc, #748]	@ 8004a18 <HAL_OSPIM_Config+0x2f4>
 800472e:	468c      	mov	ip, r1
 8004730:	454b      	cmp	r3, r9
 8004732:	bf15      	itete	ne
 8004734:	2300      	movne	r3, #0
 8004736:	2301      	moveq	r3, #1
 8004738:	2601      	movne	r6, #1
 800473a:	2600      	moveq	r6, #0
 800473c:	2701      	movs	r7, #1
 800473e:	2400      	movs	r4, #0
 8004740:	b093      	sub	sp, #76	@ 0x4c
 8004742:	f8df e2c8 	ldr.w	lr, [pc, #712]	@ 8004a0c <HAL_OSPIM_Config+0x2e8>
 8004746:	9302      	str	r3, [sp, #8]
 8004748:	ab06      	add	r3, sp, #24
 800474a:	2f02      	cmp	r7, #2
 800474c:	e9c3 4400 	strd	r4, r4, [r3]
 8004750:	e9c3 4402 	strd	r4, r4, [r3, #8]
 8004754:	611c      	str	r4, [r3, #16]
 8004756:	f040 811a 	bne.w	800498e <HAL_OSPIM_Config+0x26a>
 800475a:	4aac      	ldr	r2, [pc, #688]	@ (8004a0c <HAL_OSPIM_Config+0x2e8>)
 800475c:	48ac      	ldr	r0, [pc, #688]	@ (8004a10 <HAL_OSPIM_Config+0x2ec>)
 800475e:	6812      	ldr	r2, [r2, #0]
 8004760:	f012 0f01 	tst.w	r2, #1
 8004764:	bf18      	it	ne
 8004766:	f44f 7000 	movne.w	r0, #512	@ 0x200
 800476a:	2500      	movs	r5, #0
 800476c:	eb0e 0285 	add.w	r2, lr, r5, lsl #2
 8004770:	6852      	ldr	r2, [r2, #4]
 8004772:	1c69      	adds	r1, r5, #1
 8004774:	07d5      	lsls	r5, r2, #31
 8004776:	d504      	bpl.n	8004782 <HAL_OSPIM_Config+0x5e>
 8004778:	ea82 0500 	eor.w	r5, r2, r0
 800477c:	07ad      	lsls	r5, r5, #30
 800477e:	bf58      	it	pl
 8004780:	6019      	strpl	r1, [r3, #0]
 8004782:	06d5      	lsls	r5, r2, #27
 8004784:	d504      	bpl.n	8004790 <HAL_OSPIM_Config+0x6c>
 8004786:	ea82 0500 	eor.w	r5, r2, r0
 800478a:	06ad      	lsls	r5, r5, #26
 800478c:	bf58      	it	pl
 800478e:	6059      	strpl	r1, [r3, #4]
 8004790:	05d5      	lsls	r5, r2, #23
 8004792:	d504      	bpl.n	800479e <HAL_OSPIM_Config+0x7a>
 8004794:	ea82 0500 	eor.w	r5, r2, r0
 8004798:	05ad      	lsls	r5, r5, #22
 800479a:	bf58      	it	pl
 800479c:	6099      	strpl	r1, [r3, #8]
 800479e:	03d5      	lsls	r5, r2, #15
 80047a0:	d50a      	bpl.n	80047b8 <HAL_OSPIM_Config+0x94>
 80047a2:	ea82 0500 	eor.w	r5, r2, r0
 80047a6:	036d      	lsls	r5, r5, #13
 80047a8:	d406      	bmi.n	80047b8 <HAL_OSPIM_Config+0x94>
 80047aa:	0395      	lsls	r5, r2, #14
 80047ac:	bf54      	ite	pl
 80047ae:	f441 3580 	orrpl.w	r5, r1, #65536	@ 0x10000
 80047b2:	f041 7580 	orrmi.w	r5, r1, #16777216	@ 0x1000000
 80047b6:	60dd      	str	r5, [r3, #12]
 80047b8:	01d5      	lsls	r5, r2, #7
 80047ba:	d50a      	bpl.n	80047d2 <HAL_OSPIM_Config+0xae>
 80047bc:	ea82 0500 	eor.w	r5, r2, r0
 80047c0:	016d      	lsls	r5, r5, #5
 80047c2:	d406      	bmi.n	80047d2 <HAL_OSPIM_Config+0xae>
 80047c4:	0195      	lsls	r5, r2, #6
 80047c6:	bf54      	ite	pl
 80047c8:	f441 3280 	orrpl.w	r2, r1, #65536	@ 0x10000
 80047cc:	f041 7280 	orrmi.w	r2, r1, #16777216	@ 0x1000000
 80047d0:	611a      	str	r2, [r3, #16]
 80047d2:	2902      	cmp	r1, #2
 80047d4:	f04f 0501 	mov.w	r5, #1
 80047d8:	d1c8      	bne.n	800476c <HAL_OSPIM_Config+0x48>
 80047da:	42af      	cmp	r7, r5
 80047dc:	f103 0318 	add.w	r3, r3, #24
 80047e0:	f000 80d3 	beq.w	800498a <HAL_OSPIM_Config+0x266>
 80047e4:	f8d9 7000 	ldr.w	r7, [r9]
 80047e8:	f8df a230 	ldr.w	sl, [pc, #560]	@ 8004a1c <HAL_OSPIM_Config+0x2f8>
 80047ec:	402f      	ands	r7, r5
 80047ee:	bf1f      	itttt	ne
 80047f0:	f8d9 3000 	ldrne.w	r3, [r9]
 80047f4:	462f      	movne	r7, r5
 80047f6:	f023 0301 	bicne.w	r3, r3, #1
 80047fa:	f8c9 3000 	strne.w	r3, [r9]
 80047fe:	f8da 3000 	ldr.w	r3, [sl]
 8004802:	07d9      	lsls	r1, r3, #31
 8004804:	f04f 0118 	mov.w	r1, #24
 8004808:	bf49      	itett	mi
 800480a:	f8da 3000 	ldrmi.w	r3, [sl]
 800480e:	9704      	strpl	r7, [sp, #16]
 8004810:	f023 0301 	bicmi.w	r3, r3, #1
 8004814:	f8ca 3000 	strmi.w	r3, [sl]
 8004818:	bf44      	itt	mi
 800481a:	f047 0302 	orrmi.w	r3, r7, #2
 800481e:	9304      	strmi	r3, [sp, #16]
 8004820:	ab12      	add	r3, sp, #72	@ 0x48
 8004822:	fb01 3106 	mla	r1, r1, r6, r3
 8004826:	f851 2c28 	ldr.w	r2, [r1, #-40]
 800482a:	4b78      	ldr	r3, [pc, #480]	@ (8004a0c <HAL_OSPIM_Config+0x2e8>)
 800482c:	3a01      	subs	r2, #1
 800482e:	eb03 0282 	add.w	r2, r3, r2, lsl #2
 8004832:	6850      	ldr	r0, [r2, #4]
 8004834:	f420 7080 	bic.w	r0, r0, #256	@ 0x100
 8004838:	6050      	str	r0, [r2, #4]
 800483a:	681a      	ldr	r2, [r3, #0]
 800483c:	07d2      	lsls	r2, r2, #31
 800483e:	f140 80a8 	bpl.w	8004992 <HAL_OSPIM_Config+0x26e>
 8004842:	681a      	ldr	r2, [r3, #0]
 8004844:	f022 0201 	bic.w	r2, r2, #1
 8004848:	601a      	str	r2, [r3, #0]
 800484a:	9a02      	ldr	r2, [sp, #8]
 800484c:	b362      	cbz	r2, 80048a8 <HAL_OSPIM_Config+0x184>
 800484e:	9a0c      	ldr	r2, [sp, #48]	@ 0x30
 8004850:	3a01      	subs	r2, #1
 8004852:	eb03 0282 	add.w	r2, r3, r2, lsl #2
 8004856:	6851      	ldr	r1, [r2, #4]
 8004858:	f041 0102 	orr.w	r1, r1, #2
 800485c:	6051      	str	r1, [r2, #4]
 800485e:	9a0d      	ldr	r2, [sp, #52]	@ 0x34
 8004860:	b132      	cbz	r2, 8004870 <HAL_OSPIM_Config+0x14c>
 8004862:	3a01      	subs	r2, #1
 8004864:	eb03 0382 	add.w	r3, r3, r2, lsl #2
 8004868:	685a      	ldr	r2, [r3, #4]
 800486a:	f042 0220 	orr.w	r2, r2, #32
 800486e:	605a      	str	r2, [r3, #4]
 8004870:	9b0f      	ldr	r3, [sp, #60]	@ 0x3c
 8004872:	b15b      	cbz	r3, 800488c <HAL_OSPIM_Config+0x168>
 8004874:	3b01      	subs	r3, #1
 8004876:	f003 0301 	and.w	r3, r3, #1
 800487a:	009b      	lsls	r3, r3, #2
 800487c:	f103 4384 	add.w	r3, r3, #1107296256	@ 0x42000000
 8004880:	f503 2344 	add.w	r3, r3, #802816	@ 0xc4000
 8004884:	685a      	ldr	r2, [r3, #4]
 8004886:	f442 2280 	orr.w	r2, r2, #262144	@ 0x40000
 800488a:	605a      	str	r2, [r3, #4]
 800488c:	9b10      	ldr	r3, [sp, #64]	@ 0x40
 800488e:	b15b      	cbz	r3, 80048a8 <HAL_OSPIM_Config+0x184>
 8004890:	3b01      	subs	r3, #1
 8004892:	f003 0301 	and.w	r3, r3, #1
 8004896:	009b      	lsls	r3, r3, #2
 8004898:	f103 4384 	add.w	r3, r3, #1107296256	@ 0x42000000
 800489c:	f503 2344 	add.w	r3, r3, #802816	@ 0xc4000
 80048a0:	685a      	ldr	r2, [r3, #4]
 80048a2:	f042 6280 	orr.w	r2, r2, #67108864	@ 0x4000000
 80048a6:	605a      	str	r2, [r3, #4]
 80048a8:	f04f 0818 	mov.w	r8, #24
 80048ac:	f8dc 3000 	ldr.w	r3, [ip]
 80048b0:	aa12      	add	r2, sp, #72	@ 0x48
 80048b2:	9303      	str	r3, [sp, #12]
 80048b4:	9b02      	ldr	r3, [sp, #8]
 80048b6:	f8dc 5004 	ldr.w	r5, [ip, #4]
 80048ba:	fb08 2803 	mla	r8, r8, r3, r2
 80048be:	f858 0c20 	ldr.w	r0, [r8, #-32]
 80048c2:	f858 ec30 	ldr.w	lr, [r8, #-48]
 80048c6:	9001      	str	r0, [sp, #4]
 80048c8:	9803      	ldr	r0, [sp, #12]
 80048ca:	f8dc 3008 	ldr.w	r3, [ip, #8]
 80048ce:	4570      	cmp	r0, lr
 80048d0:	9305      	str	r3, [sp, #20]
 80048d2:	f858 1c2c 	ldr.w	r1, [r8, #-44]
 80048d6:	f8dc 200c 	ldr.w	r2, [ip, #12]
 80048da:	f858 4c24 	ldr.w	r4, [r8, #-36]
 80048de:	f8dc 3010 	ldr.w	r3, [ip, #16]
 80048e2:	f8df b128 	ldr.w	fp, [pc, #296]	@ 8004a0c <HAL_OSPIM_Config+0x2e8>
 80048e6:	f000 809b 	beq.w	8004a20 <HAL_OSPIM_Config+0x2fc>
 80048ea:	42a9      	cmp	r1, r5
 80048ec:	d00a      	beq.n	8004904 <HAL_OSPIM_Config+0x1e0>
 80048ee:	f858 8c28 	ldr.w	r8, [r8, #-40]
 80048f2:	9805      	ldr	r0, [sp, #20]
 80048f4:	4540      	cmp	r0, r8
 80048f6:	d005      	beq.n	8004904 <HAL_OSPIM_Config+0x1e0>
 80048f8:	4294      	cmp	r4, r2
 80048fa:	d003      	beq.n	8004904 <HAL_OSPIM_Config+0x1e0>
 80048fc:	9801      	ldr	r0, [sp, #4]
 80048fe:	4283      	cmp	r3, r0
 8004900:	f040 809e 	bne.w	8004a40 <HAL_OSPIM_Config+0x31c>
 8004904:	f10e 3eff 	add.w	lr, lr, #4294967295
 8004908:	eb0b 0e8e 	add.w	lr, fp, lr, lsl #2
 800490c:	f8de 8004 	ldr.w	r8, [lr, #4]
 8004910:	f028 0801 	bic.w	r8, r8, #1
 8004914:	f8ce 8004 	str.w	r8, [lr, #4]
 8004918:	b141      	cbz	r1, 800492c <HAL_OSPIM_Config+0x208>
 800491a:	3901      	subs	r1, #1
 800491c:	eb0b 0181 	add.w	r1, fp, r1, lsl #2
 8004920:	f8d1 e004 	ldr.w	lr, [r1, #4]
 8004924:	f02e 0e10 	bic.w	lr, lr, #16
 8004928:	f8c1 e004 	str.w	lr, [r1, #4]
 800492c:	2118      	movs	r1, #24
 800492e:	9802      	ldr	r0, [sp, #8]
 8004930:	f10d 0e48 	add.w	lr, sp, #72	@ 0x48
 8004934:	fb01 e100 	mla	r1, r1, r0, lr
 8004938:	f851 1c28 	ldr.w	r1, [r1, #-40]
 800493c:	ea4f 0e81 	mov.w	lr, r1, lsl #2
 8004940:	4934      	ldr	r1, [pc, #208]	@ (8004a14 <HAL_OSPIM_Config+0x2f0>)
 8004942:	4471      	add	r1, lr
 8004944:	f8d1 e004 	ldr.w	lr, [r1, #4]
 8004948:	f42e 7e80 	bic.w	lr, lr, #256	@ 0x100
 800494c:	f8c1 e004 	str.w	lr, [r1, #4]
 8004950:	b15c      	cbz	r4, 800496a <HAL_OSPIM_Config+0x246>
 8004952:	3c01      	subs	r4, #1
 8004954:	f004 0401 	and.w	r4, r4, #1
 8004958:	00a4      	lsls	r4, r4, #2
 800495a:	f104 4484 	add.w	r4, r4, #1107296256	@ 0x42000000
 800495e:	f504 2444 	add.w	r4, r4, #802816	@ 0xc4000
 8004962:	6861      	ldr	r1, [r4, #4]
 8004964:	f421 3180 	bic.w	r1, r1, #65536	@ 0x10000
 8004968:	6061      	str	r1, [r4, #4]
 800496a:	9901      	ldr	r1, [sp, #4]
 800496c:	2900      	cmp	r1, #0
 800496e:	d067      	beq.n	8004a40 <HAL_OSPIM_Config+0x31c>
 8004970:	1e48      	subs	r0, r1, #1
 8004972:	f000 0001 	and.w	r0, r0, #1
 8004976:	0080      	lsls	r0, r0, #2
 8004978:	f100 4084 	add.w	r0, r0, #1107296256	@ 0x42000000
 800497c:	f500 2044 	add.w	r0, r0, #802816	@ 0xc4000
 8004980:	6841      	ldr	r1, [r0, #4]
 8004982:	f021 7180 	bic.w	r1, r1, #16777216	@ 0x1000000
 8004986:	6041      	str	r1, [r0, #4]
 8004988:	e05a      	b.n	8004a40 <HAL_OSPIM_Config+0x31c>
 800498a:	460f      	mov	r7, r1
 800498c:	e6dd      	b.n	800474a <HAL_OSPIM_Config+0x26>
 800498e:	2000      	movs	r0, #0
 8004990:	e6eb      	b.n	800476a <HAL_OSPIM_Config+0x46>
 8004992:	f851 2c30 	ldr.w	r2, [r1, #-48]
 8004996:	2a00      	cmp	r2, #0
 8004998:	d086      	beq.n	80048a8 <HAL_OSPIM_Config+0x184>
 800499a:	3a01      	subs	r2, #1
 800499c:	eb03 0282 	add.w	r2, r3, r2, lsl #2
 80049a0:	6850      	ldr	r0, [r2, #4]
 80049a2:	f020 0001 	bic.w	r0, r0, #1
 80049a6:	6050      	str	r0, [r2, #4]
 80049a8:	f851 2c2c 	ldr.w	r2, [r1, #-44]
 80049ac:	b132      	cbz	r2, 80049bc <HAL_OSPIM_Config+0x298>
 80049ae:	3a01      	subs	r2, #1
 80049b0:	eb03 0382 	add.w	r3, r3, r2, lsl #2
 80049b4:	685a      	ldr	r2, [r3, #4]
 80049b6:	f022 0210 	bic.w	r2, r2, #16
 80049ba:	605a      	str	r2, [r3, #4]
 80049bc:	2318      	movs	r3, #24
 80049be:	aa12      	add	r2, sp, #72	@ 0x48
 80049c0:	fb03 2306 	mla	r3, r3, r6, r2
 80049c4:	f853 3c24 	ldr.w	r3, [r3, #-36]
 80049c8:	b15b      	cbz	r3, 80049e2 <HAL_OSPIM_Config+0x2be>
 80049ca:	3b01      	subs	r3, #1
 80049cc:	f003 0301 	and.w	r3, r3, #1
 80049d0:	009b      	lsls	r3, r3, #2
 80049d2:	f103 4384 	add.w	r3, r3, #1107296256	@ 0x42000000
 80049d6:	f503 2344 	add.w	r3, r3, #802816	@ 0xc4000
 80049da:	685a      	ldr	r2, [r3, #4]
 80049dc:	f422 3280 	bic.w	r2, r2, #65536	@ 0x10000
 80049e0:	605a      	str	r2, [r3, #4]
 80049e2:	2318      	movs	r3, #24
 80049e4:	aa12      	add	r2, sp, #72	@ 0x48
 80049e6:	fb03 2306 	mla	r3, r3, r6, r2
 80049ea:	f853 3c20 	ldr.w	r3, [r3, #-32]
 80049ee:	2b00      	cmp	r3, #0
 80049f0:	f43f af5a 	beq.w	80048a8 <HAL_OSPIM_Config+0x184>
 80049f4:	3b01      	subs	r3, #1
 80049f6:	f003 0301 	and.w	r3, r3, #1
 80049fa:	009b      	lsls	r3, r3, #2
 80049fc:	f103 4384 	add.w	r3, r3, #1107296256	@ 0x42000000
 8004a00:	f503 2344 	add.w	r3, r3, #802816	@ 0xc4000
 8004a04:	685a      	ldr	r2, [r3, #4]
 8004a06:	f022 7280 	bic.w	r2, r2, #16777216	@ 0x1000000
 8004a0a:	e74c      	b.n	80048a6 <HAL_OSPIM_Config+0x182>
 8004a0c:	420c4000 	.word	0x420c4000
 8004a10:	04040222 	.word	0x04040222
 8004a14:	420c3ffc 	.word	0x420c3ffc
 8004a18:	420d1400 	.word	0x420d1400
 8004a1c:	420d2400 	.word	0x420d2400
 8004a20:	42a9      	cmp	r1, r5
 8004a22:	f47f af6f 	bne.w	8004904 <HAL_OSPIM_Config+0x1e0>
 8004a26:	4294      	cmp	r4, r2
 8004a28:	f47f af6c 	bne.w	8004904 <HAL_OSPIM_Config+0x1e0>
 8004a2c:	9801      	ldr	r0, [sp, #4]
 8004a2e:	4283      	cmp	r3, r0
 8004a30:	f47f af68 	bne.w	8004904 <HAL_OSPIM_Config+0x1e0>
 8004a34:	f8db 1000 	ldr.w	r1, [fp]
 8004a38:	f041 0101 	orr.w	r1, r1, #1
 8004a3c:	f8cb 1000 	str.w	r1, [fp]
 8004a40:	9905      	ldr	r1, [sp, #20]
 8004a42:	4c74      	ldr	r4, [pc, #464]	@ (8004c14 <HAL_OSPIM_Config+0x4f0>)
 8004a44:	3901      	subs	r1, #1
 8004a46:	eb04 0181 	add.w	r1, r4, r1, lsl #2
 8004a4a:	6848      	ldr	r0, [r1, #4]
 8004a4c:	f420 7040 	bic.w	r0, r0, #768	@ 0x300
 8004a50:	ea40 2046 	orr.w	r0, r0, r6, lsl #9
 8004a54:	f440 7080 	orr.w	r0, r0, #256	@ 0x100
 8004a58:	6048      	str	r0, [r1, #4]
 8004a5a:	f8dc 0014 	ldr.w	r0, [ip, #20]
 8004a5e:	3801      	subs	r0, #1
 8004a60:	28ff      	cmp	r0, #255	@ 0xff
 8004a62:	d80a      	bhi.n	8004a7a <HAL_OSPIM_Config+0x356>
 8004a64:	6821      	ldr	r1, [r4, #0]
 8004a66:	f3c1 4107 	ubfx	r1, r1, #16, #8
 8004a6a:	4288      	cmp	r0, r1
 8004a6c:	bf81      	itttt	hi
 8004a6e:	6821      	ldrhi	r1, [r4, #0]
 8004a70:	f421 017f 	bichi.w	r1, r1, #16711680	@ 0xff0000
 8004a74:	ea41 4100 	orrhi.w	r1, r1, r0, lsl #16
 8004a78:	6021      	strhi	r1, [r4, #0]
 8004a7a:	9803      	ldr	r0, [sp, #12]
 8004a7c:	6821      	ldr	r1, [r4, #0]
 8004a7e:	3801      	subs	r0, #1
 8004a80:	f011 0f01 	tst.w	r1, #1
 8004a84:	ea4f 0080 	mov.w	r0, r0, lsl #2
 8004a88:	f402 3c80 	and.w	ip, r2, #65536	@ 0x10000
 8004a8c:	f403 3180 	and.w	r1, r3, #65536	@ 0x10000
 8004a90:	4420      	add	r0, r4
 8004a92:	d063      	beq.n	8004b5c <HAL_OSPIM_Config+0x438>
 8004a94:	6846      	ldr	r6, [r0, #4]
 8004a96:	f026 0603 	bic.w	r6, r6, #3
 8004a9a:	f046 0601 	orr.w	r6, r6, #1
 8004a9e:	6046      	str	r6, [r0, #4]
 8004aa0:	b145      	cbz	r5, 8004ab4 <HAL_OSPIM_Config+0x390>
 8004aa2:	3d01      	subs	r5, #1
 8004aa4:	eb04 0585 	add.w	r5, r4, r5, lsl #2
 8004aa8:	6868      	ldr	r0, [r5, #4]
 8004aaa:	f020 0030 	bic.w	r0, r0, #48	@ 0x30
 8004aae:	f040 0010 	orr.w	r0, r0, #16
 8004ab2:	6068      	str	r0, [r5, #4]
 8004ab4:	f1bc 0f00 	cmp.w	ip, #0
 8004ab8:	d030      	beq.n	8004b1c <HAL_OSPIM_Config+0x3f8>
 8004aba:	3a01      	subs	r2, #1
 8004abc:	f002 0201 	and.w	r2, r2, #1
 8004ac0:	0092      	lsls	r2, r2, #2
 8004ac2:	f102 4284 	add.w	r2, r2, #1107296256	@ 0x42000000
 8004ac6:	f502 2244 	add.w	r2, r2, #802816	@ 0xc4000
 8004aca:	6850      	ldr	r0, [r2, #4]
 8004acc:	f420 20e0 	bic.w	r0, r0, #458752	@ 0x70000
 8004ad0:	f440 3080 	orr.w	r0, r0, #65536	@ 0x10000
 8004ad4:	6050      	str	r0, [r2, #4]
 8004ad6:	b389      	cbz	r1, 8004b3c <HAL_OSPIM_Config+0x418>
 8004ad8:	3b01      	subs	r3, #1
 8004ada:	f003 0301 	and.w	r3, r3, #1
 8004ade:	009b      	lsls	r3, r3, #2
 8004ae0:	f103 4384 	add.w	r3, r3, #1107296256	@ 0x42000000
 8004ae4:	f503 2344 	add.w	r3, r3, #802816	@ 0xc4000
 8004ae8:	685a      	ldr	r2, [r3, #4]
 8004aea:	f422 22e0 	bic.w	r2, r2, #458752	@ 0x70000
 8004aee:	f442 3240 	orr.w	r2, r2, #196608	@ 0x30000
 8004af2:	605a      	str	r2, [r3, #4]
 8004af4:	b12f      	cbz	r7, 8004b02 <HAL_OSPIM_Config+0x3de>
 8004af6:	f8d9 3000 	ldr.w	r3, [r9]
 8004afa:	f043 0301 	orr.w	r3, r3, #1
 8004afe:	f8c9 3000 	str.w	r3, [r9]
 8004b02:	2000      	movs	r0, #0
 8004b04:	9b04      	ldr	r3, [sp, #16]
 8004b06:	079b      	lsls	r3, r3, #30
 8004b08:	bf42      	ittt	mi
 8004b0a:	f8da 3000 	ldrmi.w	r3, [sl]
 8004b0e:	f043 0301 	orrmi.w	r3, r3, #1
 8004b12:	f8ca 3000 	strmi.w	r3, [sl]
 8004b16:	b013      	add	sp, #76	@ 0x4c
 8004b18:	e8bd 8ff0 	ldmia.w	sp!, {r4, r5, r6, r7, r8, r9, sl, fp, pc}
 8004b1c:	2a00      	cmp	r2, #0
 8004b1e:	d0da      	beq.n	8004ad6 <HAL_OSPIM_Config+0x3b2>
 8004b20:	3a01      	subs	r2, #1
 8004b22:	f002 0201 	and.w	r2, r2, #1
 8004b26:	0092      	lsls	r2, r2, #2
 8004b28:	f102 4284 	add.w	r2, r2, #1107296256	@ 0x42000000
 8004b2c:	f502 2244 	add.w	r2, r2, #802816	@ 0xc4000
 8004b30:	6850      	ldr	r0, [r2, #4]
 8004b32:	f020 60e0 	bic.w	r0, r0, #117440512	@ 0x7000000
 8004b36:	f040 7080 	orr.w	r0, r0, #16777216	@ 0x1000000
 8004b3a:	e7cb      	b.n	8004ad4 <HAL_OSPIM_Config+0x3b0>
 8004b3c:	2b00      	cmp	r3, #0
 8004b3e:	d0d9      	beq.n	8004af4 <HAL_OSPIM_Config+0x3d0>
 8004b40:	3b01      	subs	r3, #1
 8004b42:	f003 0301 	and.w	r3, r3, #1
 8004b46:	009b      	lsls	r3, r3, #2
 8004b48:	f103 4384 	add.w	r3, r3, #1107296256	@ 0x42000000
 8004b4c:	f503 2344 	add.w	r3, r3, #802816	@ 0xc4000
 8004b50:	685a      	ldr	r2, [r3, #4]
 8004b52:	f022 62e0 	bic.w	r2, r2, #117440512	@ 0x7000000
 8004b56:	f042 7240 	orr.w	r2, r2, #50331648	@ 0x3000000
 8004b5a:	e7ca      	b.n	8004af2 <HAL_OSPIM_Config+0x3ce>
 8004b5c:	f8d0 e004 	ldr.w	lr, [r0, #4]
 8004b60:	f02e 0e03 	bic.w	lr, lr, #3
 8004b64:	ea4e 0e46 	orr.w	lr, lr, r6, lsl #1
 8004b68:	f04e 0e01 	orr.w	lr, lr, #1
 8004b6c:	f8c0 e004 	str.w	lr, [r0, #4]
 8004b70:	b155      	cbz	r5, 8004b88 <HAL_OSPIM_Config+0x464>
 8004b72:	3d01      	subs	r5, #1
 8004b74:	eb04 0585 	add.w	r5, r4, r5, lsl #2
 8004b78:	6868      	ldr	r0, [r5, #4]
 8004b7a:	f020 0030 	bic.w	r0, r0, #48	@ 0x30
 8004b7e:	ea40 1046 	orr.w	r0, r0, r6, lsl #5
 8004b82:	f040 0010 	orr.w	r0, r0, #16
 8004b86:	6068      	str	r0, [r5, #4]
 8004b88:	f1bc 0f00 	cmp.w	ip, #0
 8004b8c:	d01e      	beq.n	8004bcc <HAL_OSPIM_Config+0x4a8>
 8004b8e:	3a01      	subs	r2, #1
 8004b90:	f002 0201 	and.w	r2, r2, #1
 8004b94:	0092      	lsls	r2, r2, #2
 8004b96:	f102 4284 	add.w	r2, r2, #1107296256	@ 0x42000000
 8004b9a:	f502 2244 	add.w	r2, r2, #802816	@ 0xc4000
 8004b9e:	6850      	ldr	r0, [r2, #4]
 8004ba0:	f420 20e0 	bic.w	r0, r0, #458752	@ 0x70000
 8004ba4:	ea40 4086 	orr.w	r0, r0, r6, lsl #18
 8004ba8:	f440 3080 	orr.w	r0, r0, #65536	@ 0x10000
 8004bac:	6050      	str	r0, [r2, #4]
 8004bae:	b1f9      	cbz	r1, 8004bf0 <HAL_OSPIM_Config+0x4cc>
 8004bb0:	3b01      	subs	r3, #1
 8004bb2:	f003 0301 	and.w	r3, r3, #1
 8004bb6:	009b      	lsls	r3, r3, #2
 8004bb8:	f103 4384 	add.w	r3, r3, #1107296256	@ 0x42000000
 8004bbc:	f503 2344 	add.w	r3, r3, #802816	@ 0xc4000
 8004bc0:	685a      	ldr	r2, [r3, #4]
 8004bc2:	f422 22e0 	bic.w	r2, r2, #458752	@ 0x70000
 8004bc6:	ea42 4286 	orr.w	r2, r2, r6, lsl #18
 8004bca:	e790      	b.n	8004aee <HAL_OSPIM_Config+0x3ca>
 8004bcc:	2a00      	cmp	r2, #0
 8004bce:	d0ee      	beq.n	8004bae <HAL_OSPIM_Config+0x48a>
 8004bd0:	3a01      	subs	r2, #1
 8004bd2:	f002 0201 	and.w	r2, r2, #1
 8004bd6:	0092      	lsls	r2, r2, #2
 8004bd8:	f102 4284 	add.w	r2, r2, #1107296256	@ 0x42000000
 8004bdc:	f502 2244 	add.w	r2, r2, #802816	@ 0xc4000
 8004be0:	6850      	ldr	r0, [r2, #4]
 8004be2:	f020 60e0 	bic.w	r0, r0, #117440512	@ 0x7000000
 8004be6:	ea40 6086 	orr.w	r0, r0, r6, lsl #26
 8004bea:	f040 7080 	orr.w	r0, r0, #16777216	@ 0x1000000
 8004bee:	e7dd      	b.n	8004bac <HAL_OSPIM_Config+0x488>
 8004bf0:	2b00      	cmp	r3, #0
 8004bf2:	f43f af7f 	beq.w	8004af4 <HAL_OSPIM_Config+0x3d0>
 8004bf6:	3b01      	subs	r3, #1
 8004bf8:	f003 0301 	and.w	r3, r3, #1
 8004bfc:	009b      	lsls	r3, r3, #2
 8004bfe:	f103 4384 	add.w	r3, r3, #1107296256	@ 0x42000000
 8004c02:	f503 2344 	add.w	r3, r3, #802816	@ 0xc4000
 8004c06:	685a      	ldr	r2, [r3, #4]
 8004c08:	f022 62e0 	bic.w	r2, r2, #117440512	@ 0x7000000
 8004c0c:	ea42 6286 	orr.w	r2, r2, r6, lsl #26
 8004c10:	e7a1      	b.n	8004b56 <HAL_OSPIM_Config+0x432>
 8004c12:	bf00      	nop
 8004c14:	420c4000 	.word	0x420c4000

08004c18 <HAL_OSPI_DLYB_SetConfig>:
 8004c18:	b538      	push	{r3, r4, r5, lr}
 8004c1a:	6803      	ldr	r3, [r0, #0]
 8004c1c:	4604      	mov	r4, r0
 8004c1e:	689a      	ldr	r2, [r3, #8]
 8004c20:	f042 0202 	orr.w	r2, r2, #2
 8004c24:	609a      	str	r2, [r3, #8]
 8004c26:	2208      	movs	r2, #8
 8004c28:	6502      	str	r2, [r0, #80]	@ 0x50
 8004c2a:	4a0e      	ldr	r2, [pc, #56]	@ (8004c64 <HAL_OSPI_DLYB_SetConfig+0x4c>)
 8004c2c:	4293      	cmp	r3, r2
 8004c2e:	d111      	bne.n	8004c54 <HAL_OSPI_DLYB_SetConfig+0x3c>
 8004c30:	480d      	ldr	r0, [pc, #52]	@ (8004c68 <HAL_OSPI_DLYB_SetConfig+0x50>)
 8004c32:	6803      	ldr	r3, [r0, #0]
 8004c34:	2500      	movs	r5, #0
 8004c36:	f043 0301 	orr.w	r3, r3, #1
 8004c3a:	6003      	str	r3, [r0, #0]
 8004c3c:	f001 fb26 	bl	800628c <LL_DLYB_SetDelay>
 8004c40:	4620      	mov	r0, r4
 8004c42:	f7ff fcda 	bl	80045fa <HAL_OSPI_Abort>
 8004c46:	6822      	ldr	r2, [r4, #0]
 8004c48:	4628      	mov	r0, r5
 8004c4a:	6893      	ldr	r3, [r2, #8]
 8004c4c:	f023 0302 	bic.w	r3, r3, #2
 8004c50:	6093      	str	r3, [r2, #8]
 8004c52:	bd38      	pop	{r3, r4, r5, pc}
 8004c54:	4a05      	ldr	r2, [pc, #20]	@ (8004c6c <HAL_OSPI_DLYB_SetConfig+0x54>)
 8004c56:	4293      	cmp	r3, r2
 8004c58:	d101      	bne.n	8004c5e <HAL_OSPI_DLYB_SetConfig+0x46>
 8004c5a:	4805      	ldr	r0, [pc, #20]	@ (8004c70 <HAL_OSPI_DLYB_SetConfig+0x58>)
 8004c5c:	e7e9      	b.n	8004c32 <HAL_OSPI_DLYB_SetConfig+0x1a>
 8004c5e:	2501      	movs	r5, #1
 8004c60:	e7ee      	b.n	8004c40 <HAL_OSPI_DLYB_SetConfig+0x28>
 8004c62:	bf00      	nop
 8004c64:	420d1400 	.word	0x420d1400
 8004c68:	420cf000 	.word	0x420cf000
 8004c6c:	420d2400 	.word	0x420d2400
 8004c70:	420cf400 	.word	0x420cf400

08004c74 <HAL_PWREx_ControlVoltageScaling>:
 8004c74:	4b1d      	ldr	r3, [pc, #116]	@ (8004cec <HAL_PWREx_ControlVoltageScaling+0x78>)
 8004c76:	6bda      	ldr	r2, [r3, #60]	@ 0x3c
 8004c78:	f402 3240 	and.w	r2, r2, #196608	@ 0x30000
 8004c7c:	4282      	cmp	r2, r0
 8004c7e:	d108      	bne.n	8004c92 <HAL_PWREx_ControlVoltageScaling+0x1e>
 8004c80:	f5b2 3f80 	cmp.w	r2, #65536	@ 0x10000
 8004c84:	d903      	bls.n	8004c8e <HAL_PWREx_ControlVoltageScaling+0x1a>
 8004c86:	68da      	ldr	r2, [r3, #12]
 8004c88:	f442 2280 	orr.w	r2, r2, #262144	@ 0x40000
 8004c8c:	60da      	str	r2, [r3, #12]
 8004c8e:	2000      	movs	r0, #0
 8004c90:	4770      	bx	lr
 8004c92:	68da      	ldr	r2, [r3, #12]
 8004c94:	f5b0 3f80 	cmp.w	r0, #65536	@ 0x10000
 8004c98:	f422 22e0 	bic.w	r2, r2, #458752	@ 0x70000
 8004c9c:	ea42 0200 	orr.w	r2, r2, r0
 8004ca0:	bf88      	it	hi
 8004ca2:	f442 2280 	orrhi.w	r2, r2, #262144	@ 0x40000
 8004ca6:	60da      	str	r2, [r3, #12]
 8004ca8:	f44f 727a 	mov.w	r2, #1000	@ 0x3e8
 8004cac:	4b10      	ldr	r3, [pc, #64]	@ (8004cf0 <HAL_PWREx_ControlVoltageScaling+0x7c>)
 8004cae:	2132      	movs	r1, #50	@ 0x32
 8004cb0:	681b      	ldr	r3, [r3, #0]
 8004cb2:	fbb3 f3f2 	udiv	r3, r3, r2
 8004cb6:	434b      	muls	r3, r1
 8004cb8:	fbb3 f3f2 	udiv	r3, r3, r2
 8004cbc:	3301      	adds	r3, #1
 8004cbe:	461a      	mov	r2, r3
 8004cc0:	490a      	ldr	r1, [pc, #40]	@ (8004cec <HAL_PWREx_ControlVoltageScaling+0x78>)
 8004cc2:	68c8      	ldr	r0, [r1, #12]
 8004cc4:	0400      	lsls	r0, r0, #16
 8004cc6:	d404      	bmi.n	8004cd2 <HAL_PWREx_ControlVoltageScaling+0x5e>
 8004cc8:	b90a      	cbnz	r2, 8004cce <HAL_PWREx_ControlVoltageScaling+0x5a>
 8004cca:	2003      	movs	r0, #3
 8004ccc:	4770      	bx	lr
 8004cce:	3a01      	subs	r2, #1
 8004cd0:	e7f7      	b.n	8004cc2 <HAL_PWREx_ControlVoltageScaling+0x4e>
 8004cd2:	2a00      	cmp	r2, #0
 8004cd4:	d0f9      	beq.n	8004cca <HAL_PWREx_ControlVoltageScaling+0x56>
 8004cd6:	4a05      	ldr	r2, [pc, #20]	@ (8004cec <HAL_PWREx_ControlVoltageScaling+0x78>)
 8004cd8:	6bd1      	ldr	r1, [r2, #60]	@ 0x3c
 8004cda:	0409      	lsls	r1, r1, #16
 8004cdc:	d403      	bmi.n	8004ce6 <HAL_PWREx_ControlVoltageScaling+0x72>
 8004cde:	2b00      	cmp	r3, #0
 8004ce0:	d0f3      	beq.n	8004cca <HAL_PWREx_ControlVoltageScaling+0x56>
 8004ce2:	3b01      	subs	r3, #1
 8004ce4:	e7f8      	b.n	8004cd8 <HAL_PWREx_ControlVoltageScaling+0x64>
 8004ce6:	2b00      	cmp	r3, #0
 8004ce8:	d1d1      	bne.n	8004c8e <HAL_PWREx_ControlVoltageScaling+0x1a>
 8004cea:	e7ee      	b.n	8004cca <HAL_PWREx_ControlVoltageScaling+0x56>
 8004cec:	46020800 	.word	0x46020800
 8004cf0:	20000000 	.word	0x20000000

08004cf4 <HAL_PWREx_GetVoltageRange>:
 8004cf4:	4b02      	ldr	r3, [pc, #8]	@ (8004d00 <HAL_PWREx_GetVoltageRange+0xc>)
 8004cf6:	6bd8      	ldr	r0, [r3, #60]	@ 0x3c
 8004cf8:	f400 3040 	and.w	r0, r0, #196608	@ 0x30000
 8004cfc:	4770      	bx	lr
 8004cfe:	bf00      	nop
 8004d00:	46020800 	.word	0x46020800

08004d04 <HAL_PWREx_ConfigSupply>:
 8004d04:	f44f 727a 	mov.w	r2, #1000	@ 0x3e8
 8004d08:	4b12      	ldr	r3, [pc, #72]	@ (8004d54 <HAL_PWREx_ConfigSupply+0x50>)
 8004d0a:	2132      	movs	r1, #50	@ 0x32
 8004d0c:	681b      	ldr	r3, [r3, #0]
 8004d0e:	fbb3 f3f2 	udiv	r3, r3, r2
 8004d12:	434b      	muls	r3, r1
 8004d14:	fbb3 f3f2 	udiv	r3, r3, r2
 8004d18:	4a0f      	ldr	r2, [pc, #60]	@ (8004d58 <HAL_PWREx_ConfigSupply+0x54>)
 8004d1a:	3301      	adds	r3, #1
 8004d1c:	6891      	ldr	r1, [r2, #8]
 8004d1e:	b950      	cbnz	r0, 8004d36 <HAL_PWREx_ConfigSupply+0x32>
 8004d20:	f021 0102 	bic.w	r1, r1, #2
 8004d24:	6091      	str	r1, [r2, #8]
 8004d26:	6bd1      	ldr	r1, [r2, #60]	@ 0x3c
 8004d28:	0788      	lsls	r0, r1, #30
 8004d2a:	d50e      	bpl.n	8004d4a <HAL_PWREx_ConfigSupply+0x46>
 8004d2c:	b90b      	cbnz	r3, 8004d32 <HAL_PWREx_ConfigSupply+0x2e>
 8004d2e:	2003      	movs	r0, #3
 8004d30:	4770      	bx	lr
 8004d32:	3b01      	subs	r3, #1
 8004d34:	e7f7      	b.n	8004d26 <HAL_PWREx_ConfigSupply+0x22>
 8004d36:	f041 0102 	orr.w	r1, r1, #2
 8004d3a:	6091      	str	r1, [r2, #8]
 8004d3c:	6bd1      	ldr	r1, [r2, #60]	@ 0x3c
 8004d3e:	0789      	lsls	r1, r1, #30
 8004d40:	d403      	bmi.n	8004d4a <HAL_PWREx_ConfigSupply+0x46>
 8004d42:	2b00      	cmp	r3, #0
 8004d44:	d0f3      	beq.n	8004d2e <HAL_PWREx_ConfigSupply+0x2a>
 8004d46:	3b01      	subs	r3, #1
 8004d48:	e7f8      	b.n	8004d3c <HAL_PWREx_ConfigSupply+0x38>
 8004d4a:	2b00      	cmp	r3, #0
 8004d4c:	d0ef      	beq.n	8004d2e <HAL_PWREx_ConfigSupply+0x2a>
 8004d4e:	2000      	movs	r0, #0
 8004d50:	4770      	bx	lr
 8004d52:	bf00      	nop
 8004d54:	20000000 	.word	0x20000000
 8004d58:	46020800 	.word	0x46020800

08004d5c <HAL_PWREx_EnableVddIO2>:
 8004d5c:	4a02      	ldr	r2, [pc, #8]	@ (8004d68 <HAL_PWREx_EnableVddIO2+0xc>)
 8004d5e:	6913      	ldr	r3, [r2, #16]
 8004d60:	f043 5300 	orr.w	r3, r3, #536870912	@ 0x20000000
 8004d64:	6113      	str	r3, [r2, #16]
 8004d66:	4770      	bx	lr
 8004d68:	46020800 	.word	0x46020800

08004d6c <HAL_PWREx_DisableUCPDDeadBattery>:
 8004d6c:	4a02      	ldr	r2, [pc, #8]	@ (8004d78 <HAL_PWREx_DisableUCPDDeadBattery+0xc>)
 8004d6e:	6ad3      	ldr	r3, [r2, #44]	@ 0x2c
 8004d70:	f043 0301 	orr.w	r3, r3, #1
 8004d74:	62d3      	str	r3, [r2, #44]	@ 0x2c
 8004d76:	4770      	bx	lr
 8004d78:	46020800 	.word	0x46020800

08004d7c <RCC_SetFlashLatencyFromMSIRange>:
 8004d7c:	b537      	push	{r0, r1, r2, r4, r5, lr}
 8004d7e:	4d2b      	ldr	r5, [pc, #172]	@ (8004e2c <RCC_SetFlashLatencyFromMSIRange+0xb0>)
 8004d80:	4604      	mov	r4, r0
 8004d82:	f8d5 3094 	ldr.w	r3, [r5, #148]	@ 0x94
 8004d86:	075b      	lsls	r3, r3, #29
 8004d88:	d518      	bpl.n	8004dbc <RCC_SetFlashLatencyFromMSIRange+0x40>
 8004d8a:	f7ff ffb3 	bl	8004cf4 <HAL_PWREx_GetVoltageRange>
 8004d8e:	f420 3380 	bic.w	r3, r0, #65536	@ 0x10000
 8004d92:	f5b3 3f00 	cmp.w	r3, #131072	@ 0x20000
 8004d96:	d126      	bne.n	8004de6 <RCC_SetFlashLatencyFromMSIRange+0x6a>
 8004d98:	f1b4 5f80 	cmp.w	r4, #268435456	@ 0x10000000
 8004d9c:	bf2c      	ite	cs
 8004d9e:	2000      	movcs	r0, #0
 8004da0:	2001      	movcc	r0, #1
 8004da2:	4a23      	ldr	r2, [pc, #140]	@ (8004e30 <RCC_SetFlashLatencyFromMSIRange+0xb4>)
 8004da4:	6813      	ldr	r3, [r2, #0]
 8004da6:	f023 030f 	bic.w	r3, r3, #15
 8004daa:	4303      	orrs	r3, r0
 8004dac:	6013      	str	r3, [r2, #0]
 8004dae:	6813      	ldr	r3, [r2, #0]
 8004db0:	f003 030f 	and.w	r3, r3, #15
 8004db4:	1a18      	subs	r0, r3, r0
 8004db6:	bf18      	it	ne
 8004db8:	2001      	movne	r0, #1
 8004dba:	e01b      	b.n	8004df4 <RCC_SetFlashLatencyFromMSIRange+0x78>
 8004dbc:	f8d5 3094 	ldr.w	r3, [r5, #148]	@ 0x94
 8004dc0:	f043 0304 	orr.w	r3, r3, #4
 8004dc4:	f8c5 3094 	str.w	r3, [r5, #148]	@ 0x94
 8004dc8:	f8d5 3094 	ldr.w	r3, [r5, #148]	@ 0x94
 8004dcc:	f003 0304 	and.w	r3, r3, #4
 8004dd0:	9301      	str	r3, [sp, #4]
 8004dd2:	9b01      	ldr	r3, [sp, #4]
 8004dd4:	f7ff ff8e 	bl	8004cf4 <HAL_PWREx_GetVoltageRange>
 8004dd8:	f8d5 3094 	ldr.w	r3, [r5, #148]	@ 0x94
 8004ddc:	f023 0304 	bic.w	r3, r3, #4
 8004de0:	f8c5 3094 	str.w	r3, [r5, #148]	@ 0x94
 8004de4:	e7d3      	b.n	8004d8e <RCC_SetFlashLatencyFromMSIRange+0x12>
 8004de6:	f1b4 5f80 	cmp.w	r4, #268435456	@ 0x10000000
 8004dea:	d205      	bcs.n	8004df8 <RCC_SetFlashLatencyFromMSIRange+0x7c>
 8004dec:	f5b0 3f80 	cmp.w	r0, #65536	@ 0x10000
 8004df0:	d015      	beq.n	8004e1e <RCC_SetFlashLatencyFromMSIRange+0xa2>
 8004df2:	2001      	movs	r0, #1
 8004df4:	b003      	add	sp, #12
 8004df6:	bd30      	pop	{r4, r5, pc}
 8004df8:	f1b4 5f00 	cmp.w	r4, #536870912	@ 0x20000000
 8004dfc:	d906      	bls.n	8004e0c <RCC_SetFlashLatencyFromMSIRange+0x90>
 8004dfe:	b980      	cbnz	r0, 8004e22 <RCC_SetFlashLatencyFromMSIRange+0xa6>
 8004e00:	f1b4 5f40 	cmp.w	r4, #805306368	@ 0x30000000
 8004e04:	bf8c      	ite	hi
 8004e06:	2000      	movhi	r0, #0
 8004e08:	2001      	movls	r0, #1
 8004e0a:	e7ca      	b.n	8004da2 <RCC_SetFlashLatencyFromMSIRange+0x26>
 8004e0c:	f1b4 5f80 	cmp.w	r4, #268435456	@ 0x10000000
 8004e10:	d109      	bne.n	8004e26 <RCC_SetFlashLatencyFromMSIRange+0xaa>
 8004e12:	f5b0 3f80 	cmp.w	r0, #65536	@ 0x10000
 8004e16:	bf14      	ite	ne
 8004e18:	2002      	movne	r0, #2
 8004e1a:	2001      	moveq	r0, #1
 8004e1c:	e7c1      	b.n	8004da2 <RCC_SetFlashLatencyFromMSIRange+0x26>
 8004e1e:	2003      	movs	r0, #3
 8004e20:	e7bf      	b.n	8004da2 <RCC_SetFlashLatencyFromMSIRange+0x26>
 8004e22:	2000      	movs	r0, #0
 8004e24:	e7bd      	b.n	8004da2 <RCC_SetFlashLatencyFromMSIRange+0x26>
 8004e26:	2001      	movs	r0, #1
 8004e28:	e7bb      	b.n	8004da2 <RCC_SetFlashLatencyFromMSIRange+0x26>
 8004e2a:	bf00      	nop
 8004e2c:	46020c00 	.word	0x46020c00
 8004e30:	40022000 	.word	0x40022000

08004e34 <HAL_RCC_GetSysClockFreq>:
 8004e34:	4a40      	ldr	r2, [pc, #256]	@ (8004f38 <HAL_RCC_GetSysClockFreq+0x104>)
 8004e36:	b510      	push	{r4, lr}
 8004e38:	69d3      	ldr	r3, [r2, #28]
 8004e3a:	6a91      	ldr	r1, [r2, #40]	@ 0x28
 8004e3c:	f013 030c 	ands.w	r3, r3, #12
 8004e40:	d005      	beq.n	8004e4e <HAL_RCC_GetSysClockFreq+0x1a>
 8004e42:	2b0c      	cmp	r3, #12
 8004e44:	d148      	bne.n	8004ed8 <HAL_RCC_GetSysClockFreq+0xa4>
 8004e46:	f001 0103 	and.w	r1, r1, #3
 8004e4a:	2901      	cmp	r1, #1
 8004e4c:	d144      	bne.n	8004ed8 <HAL_RCC_GetSysClockFreq+0xa4>
 8004e4e:	6891      	ldr	r1, [r2, #8]
 8004e50:	0209      	lsls	r1, r1, #8
 8004e52:	bf54      	ite	pl
 8004e54:	f8d2 20f4 	ldrpl.w	r2, [r2, #244]	@ 0xf4
 8004e58:	6892      	ldrmi	r2, [r2, #8]
 8004e5a:	4938      	ldr	r1, [pc, #224]	@ (8004f3c <HAL_RCC_GetSysClockFreq+0x108>)
 8004e5c:	bf54      	ite	pl
 8004e5e:	f3c2 3203 	ubfxpl	r2, r2, #12, #4
 8004e62:	0f12      	lsrmi	r2, r2, #28
 8004e64:	f851 2022 	ldr.w	r2, [r1, r2, lsl #2]
 8004e68:	2b00      	cmp	r3, #0
 8004e6a:	d063      	beq.n	8004f34 <HAL_RCC_GetSysClockFreq+0x100>
 8004e6c:	2000      	movs	r0, #0
 8004e6e:	2b0c      	cmp	r3, #12
 8004e70:	d15e      	bne.n	8004f30 <HAL_RCC_GetSysClockFreq+0xfc>
 8004e72:	4931      	ldr	r1, [pc, #196]	@ (8004f38 <HAL_RCC_GetSysClockFreq+0x104>)
 8004e74:	eddf 5a32 	vldr	s11, [pc, #200]	@ 8004f40 <HAL_RCC_GetSysClockFreq+0x10c>
 8004e78:	6a88      	ldr	r0, [r1, #40]	@ 0x28
 8004e7a:	6a8b      	ldr	r3, [r1, #40]	@ 0x28
 8004e7c:	6a8c      	ldr	r4, [r1, #40]	@ 0x28
 8004e7e:	f3c3 2303 	ubfx	r3, r3, #8, #4
 8004e82:	3301      	adds	r3, #1
 8004e84:	ee07 3a90 	vmov	s15, r3
 8004e88:	6b8b      	ldr	r3, [r1, #56]	@ 0x38
 8004e8a:	f3c4 1400 	ubfx	r4, r4, #4, #1
 8004e8e:	f3c3 03cc 	ubfx	r3, r3, #3, #13
 8004e92:	4363      	muls	r3, r4
 8004e94:	ee07 3a10 	vmov	s14, r3
 8004e98:	f000 0003 	and.w	r0, r0, #3
 8004e9c:	2802      	cmp	r0, #2
 8004e9e:	eeb8 7ac7 	vcvt.f32.s32	s14, s14
 8004ea2:	eef8 7ae7 	vcvt.f32.s32	s15, s15
 8004ea6:	eeb7 6a00 	vmov.f32	s12, #112	@ 0x3f800000  1.0
 8004eaa:	d021      	beq.n	8004ef0 <HAL_RCC_GetSysClockFreq+0xbc>
 8004eac:	2803      	cmp	r0, #3
 8004eae:	d01f      	beq.n	8004ef0 <HAL_RCC_GetSysClockFreq+0xbc>
 8004eb0:	ee06 2a90 	vmov	s13, r2
 8004eb4:	eef8 6a66 	vcvt.f32.u32	s13, s13
 8004eb8:	6b4b      	ldr	r3, [r1, #52]	@ 0x34
 8004eba:	ee86 5aa7 	vdiv.f32	s10, s13, s15
 8004ebe:	f3c3 0308 	ubfx	r3, r3, #0, #9
 8004ec2:	ee07 3a90 	vmov	s15, r3
 8004ec6:	eef8 7ae7 	vcvt.f32.s32	s15, s15
 8004eca:	eee7 7a25 	vfma.f32	s15, s14, s11
 8004ece:	ee77 7a86 	vadd.f32	s15, s15, s12
 8004ed2:	ee67 7a85 	vmul.f32	s15, s15, s10
 8004ed6:	e01c      	b.n	8004f12 <HAL_RCC_GetSysClockFreq+0xde>
 8004ed8:	69d2      	ldr	r2, [r2, #28]
 8004eda:	f002 020c 	and.w	r2, r2, #12
 8004ede:	2a04      	cmp	r2, #4
 8004ee0:	d004      	beq.n	8004eec <HAL_RCC_GetSysClockFreq+0xb8>
 8004ee2:	2b08      	cmp	r3, #8
 8004ee4:	d025      	beq.n	8004f32 <HAL_RCC_GetSysClockFreq+0xfe>
 8004ee6:	2000      	movs	r0, #0
 8004ee8:	2200      	movs	r2, #0
 8004eea:	e7c0      	b.n	8004e6e <HAL_RCC_GetSysClockFreq+0x3a>
 8004eec:	4815      	ldr	r0, [pc, #84]	@ (8004f44 <HAL_RCC_GetSysClockFreq+0x110>)
 8004eee:	e7fb      	b.n	8004ee8 <HAL_RCC_GetSysClockFreq+0xb4>
 8004ef0:	ed9f 5a15 	vldr	s10, [pc, #84]	@ 8004f48 <HAL_RCC_GetSysClockFreq+0x114>
 8004ef4:	6b4b      	ldr	r3, [r1, #52]	@ 0x34
 8004ef6:	eec5 6a27 	vdiv.f32	s13, s10, s15
 8004efa:	f3c3 0308 	ubfx	r3, r3, #0, #9
 8004efe:	ee07 3a90 	vmov	s15, r3
 8004f02:	eef8 7ae7 	vcvt.f32.s32	s15, s15
 8004f06:	eee7 7a25 	vfma.f32	s15, s14, s11
 8004f0a:	ee77 7a86 	vadd.f32	s15, s15, s12
 8004f0e:	ee67 7aa6 	vmul.f32	s15, s15, s13
 8004f12:	4b09      	ldr	r3, [pc, #36]	@ (8004f38 <HAL_RCC_GetSysClockFreq+0x104>)
 8004f14:	6b5b      	ldr	r3, [r3, #52]	@ 0x34
 8004f16:	f3c3 6306 	ubfx	r3, r3, #24, #7
 8004f1a:	3301      	adds	r3, #1
 8004f1c:	ee07 3a10 	vmov	s14, r3
 8004f20:	eef8 6ac7 	vcvt.f32.s32	s13, s14
 8004f24:	ee87 7aa6 	vdiv.f32	s14, s15, s13
 8004f28:	eefc 7ac7 	vcvt.u32.f32	s15, s14
 8004f2c:	ee17 0a90 	vmov	r0, s15
 8004f30:	bd10      	pop	{r4, pc}
 8004f32:	4a04      	ldr	r2, [pc, #16]	@ (8004f44 <HAL_RCC_GetSysClockFreq+0x110>)
 8004f34:	4610      	mov	r0, r2
 8004f36:	e7fb      	b.n	8004f30 <HAL_RCC_GetSysClockFreq+0xfc>
 8004f38:	46020c00 	.word	0x46020c00
 8004f3c:	0800646c 	.word	0x0800646c
 8004f40:	39000000 	.word	0x39000000
 8004f44:	00f42400 	.word	0x00f42400
 8004f48:	4b742400 	.word	0x4b742400

08004f4c <HAL_RCC_ClockConfig>:
 8004f4c:	e92d 41f3 	stmdb	sp!, {r0, r1, r4, r5, r6, r7, r8, lr}
 8004f50:	460d      	mov	r5, r1
 8004f52:	4604      	mov	r4, r0
 8004f54:	b918      	cbnz	r0, 8004f5e <HAL_RCC_ClockConfig+0x12>
 8004f56:	2001      	movs	r0, #1
 8004f58:	b002      	add	sp, #8
 8004f5a:	e8bd 81f0 	ldmia.w	sp!, {r4, r5, r6, r7, r8, pc}
 8004f5e:	4a9c      	ldr	r2, [pc, #624]	@ (80051d0 <HAL_RCC_ClockConfig+0x284>)
 8004f60:	6813      	ldr	r3, [r2, #0]
 8004f62:	f003 030f 	and.w	r3, r3, #15
 8004f66:	428b      	cmp	r3, r1
 8004f68:	d36e      	bcc.n	8005048 <HAL_RCC_ClockConfig+0xfc>
 8004f6a:	6823      	ldr	r3, [r4, #0]
 8004f6c:	06d8      	lsls	r0, r3, #27
 8004f6e:	d477      	bmi.n	8005060 <HAL_RCC_ClockConfig+0x114>
 8004f70:	0719      	lsls	r1, r3, #28
 8004f72:	d50d      	bpl.n	8004f90 <HAL_RCC_ClockConfig+0x44>
 8004f74:	4997      	ldr	r1, [pc, #604]	@ (80051d4 <HAL_RCC_ClockConfig+0x288>)
 8004f76:	6920      	ldr	r0, [r4, #16]
 8004f78:	6a0a      	ldr	r2, [r1, #32]
 8004f7a:	0912      	lsrs	r2, r2, #4
 8004f7c:	f002 0270 	and.w	r2, r2, #112	@ 0x70
 8004f80:	4290      	cmp	r0, r2
 8004f82:	bf81      	itttt	hi
 8004f84:	6a0a      	ldrhi	r2, [r1, #32]
 8004f86:	f422 62e0 	bichi.w	r2, r2, #1792	@ 0x700
 8004f8a:	ea42 1200 	orrhi.w	r2, r2, r0, lsl #4
 8004f8e:	620a      	strhi	r2, [r1, #32]
 8004f90:	075a      	lsls	r2, r3, #29
 8004f92:	d50b      	bpl.n	8004fac <HAL_RCC_ClockConfig+0x60>
 8004f94:	498f      	ldr	r1, [pc, #572]	@ (80051d4 <HAL_RCC_ClockConfig+0x288>)
 8004f96:	68e0      	ldr	r0, [r4, #12]
 8004f98:	6a0a      	ldr	r2, [r1, #32]
 8004f9a:	f002 0270 	and.w	r2, r2, #112	@ 0x70
 8004f9e:	4290      	cmp	r0, r2
 8004fa0:	bf81      	itttt	hi
 8004fa2:	6a0a      	ldrhi	r2, [r1, #32]
 8004fa4:	f022 0270 	bichi.w	r2, r2, #112	@ 0x70
 8004fa8:	4302      	orrhi	r2, r0
 8004faa:	620a      	strhi	r2, [r1, #32]
 8004fac:	079f      	lsls	r7, r3, #30
 8004fae:	d50b      	bpl.n	8004fc8 <HAL_RCC_ClockConfig+0x7c>
 8004fb0:	4988      	ldr	r1, [pc, #544]	@ (80051d4 <HAL_RCC_ClockConfig+0x288>)
 8004fb2:	68a0      	ldr	r0, [r4, #8]
 8004fb4:	6a0a      	ldr	r2, [r1, #32]
 8004fb6:	f002 020f 	and.w	r2, r2, #15
 8004fba:	4290      	cmp	r0, r2
 8004fbc:	bf81      	itttt	hi
 8004fbe:	6a0a      	ldrhi	r2, [r1, #32]
 8004fc0:	f022 020f 	bichi.w	r2, r2, #15
 8004fc4:	4302      	orrhi	r2, r0
 8004fc6:	620a      	strhi	r2, [r1, #32]
 8004fc8:	07de      	lsls	r6, r3, #31
 8004fca:	d456      	bmi.n	800507a <HAL_RCC_ClockConfig+0x12e>
 8004fcc:	6822      	ldr	r2, [r4, #0]
 8004fce:	0790      	lsls	r0, r2, #30
 8004fd0:	f100 80d8 	bmi.w	8005184 <HAL_RCC_ClockConfig+0x238>
 8004fd4:	497e      	ldr	r1, [pc, #504]	@ (80051d0 <HAL_RCC_ClockConfig+0x284>)
 8004fd6:	680b      	ldr	r3, [r1, #0]
 8004fd8:	f003 030f 	and.w	r3, r3, #15
 8004fdc:	42ab      	cmp	r3, r5
 8004fde:	f200 80de 	bhi.w	800519e <HAL_RCC_ClockConfig+0x252>
 8004fe2:	0750      	lsls	r0, r2, #29
 8004fe4:	f100 80e7 	bmi.w	80051b6 <HAL_RCC_ClockConfig+0x26a>
 8004fe8:	0711      	lsls	r1, r2, #28
 8004fea:	d50d      	bpl.n	8005008 <HAL_RCC_ClockConfig+0xbc>
 8004fec:	4979      	ldr	r1, [pc, #484]	@ (80051d4 <HAL_RCC_ClockConfig+0x288>)
 8004fee:	6920      	ldr	r0, [r4, #16]
 8004ff0:	6a0b      	ldr	r3, [r1, #32]
 8004ff2:	091b      	lsrs	r3, r3, #4
 8004ff4:	f003 0370 	and.w	r3, r3, #112	@ 0x70
 8004ff8:	4298      	cmp	r0, r3
 8004ffa:	bf3f      	itttt	cc
 8004ffc:	6a0b      	ldrcc	r3, [r1, #32]
 8004ffe:	f423 63e0 	biccc.w	r3, r3, #1792	@ 0x700
 8005002:	ea43 1300 	orrcc.w	r3, r3, r0, lsl #4
 8005006:	620b      	strcc	r3, [r1, #32]
 8005008:	06d3      	lsls	r3, r2, #27
 800500a:	d50b      	bpl.n	8005024 <HAL_RCC_ClockConfig+0xd8>
 800500c:	4a71      	ldr	r2, [pc, #452]	@ (80051d4 <HAL_RCC_ClockConfig+0x288>)
 800500e:	6961      	ldr	r1, [r4, #20]
 8005010:	6a53      	ldr	r3, [r2, #36]	@ 0x24
 8005012:	f003 0370 	and.w	r3, r3, #112	@ 0x70
 8005016:	4299      	cmp	r1, r3
 8005018:	bf3f      	itttt	cc
 800501a:	6a53      	ldrcc	r3, [r2, #36]	@ 0x24
 800501c:	f023 0370 	biccc.w	r3, r3, #112	@ 0x70
 8005020:	430b      	orrcc	r3, r1
 8005022:	6253      	strcc	r3, [r2, #36]	@ 0x24
 8005024:	f7ff ff06 	bl	8004e34 <HAL_RCC_GetSysClockFreq>
 8005028:	4b6a      	ldr	r3, [pc, #424]	@ (80051d4 <HAL_RCC_ClockConfig+0x288>)
 800502a:	4a6b      	ldr	r2, [pc, #428]	@ (80051d8 <HAL_RCC_ClockConfig+0x28c>)
 800502c:	6a1b      	ldr	r3, [r3, #32]
 800502e:	f003 030f 	and.w	r3, r3, #15
 8005032:	5cd3      	ldrb	r3, [r2, r3]
 8005034:	40d8      	lsrs	r0, r3
 8005036:	4b69      	ldr	r3, [pc, #420]	@ (80051dc <HAL_RCC_ClockConfig+0x290>)
 8005038:	6018      	str	r0, [r3, #0]
 800503a:	4b69      	ldr	r3, [pc, #420]	@ (80051e0 <HAL_RCC_ClockConfig+0x294>)
 800503c:	6818      	ldr	r0, [r3, #0]
 800503e:	b002      	add	sp, #8
 8005040:	e8bd 41f0 	ldmia.w	sp!, {r4, r5, r6, r7, r8, lr}
 8005044:	f7fd be04 	b.w	8002c50 <HAL_InitTick>
 8005048:	6813      	ldr	r3, [r2, #0]
 800504a:	f023 030f 	bic.w	r3, r3, #15
 800504e:	430b      	orrs	r3, r1
 8005050:	6013      	str	r3, [r2, #0]
 8005052:	6813      	ldr	r3, [r2, #0]
 8005054:	f003 030f 	and.w	r3, r3, #15
 8005058:	428b      	cmp	r3, r1
 800505a:	f47f af7c 	bne.w	8004f56 <HAL_RCC_ClockConfig+0xa>
 800505e:	e784      	b.n	8004f6a <HAL_RCC_ClockConfig+0x1e>
 8005060:	495c      	ldr	r1, [pc, #368]	@ (80051d4 <HAL_RCC_ClockConfig+0x288>)
 8005062:	6960      	ldr	r0, [r4, #20]
 8005064:	6a4a      	ldr	r2, [r1, #36]	@ 0x24
 8005066:	f002 0270 	and.w	r2, r2, #112	@ 0x70
 800506a:	4290      	cmp	r0, r2
 800506c:	bf81      	itttt	hi
 800506e:	6a4a      	ldrhi	r2, [r1, #36]	@ 0x24
 8005070:	f022 0270 	bichi.w	r2, r2, #112	@ 0x70
 8005074:	4302      	orrhi	r2, r0
 8005076:	624a      	strhi	r2, [r1, #36]	@ 0x24
 8005078:	e77a      	b.n	8004f70 <HAL_RCC_ClockConfig+0x24>
 800507a:	6862      	ldr	r2, [r4, #4]
 800507c:	4b55      	ldr	r3, [pc, #340]	@ (80051d4 <HAL_RCC_ClockConfig+0x288>)
 800507e:	2a03      	cmp	r2, #3
 8005080:	d14e      	bne.n	8005120 <HAL_RCC_ClockConfig+0x1d4>
 8005082:	f8d3 2094 	ldr.w	r2, [r3, #148]	@ 0x94
 8005086:	0751      	lsls	r1, r2, #29
 8005088:	d43d      	bmi.n	8005106 <HAL_RCC_ClockConfig+0x1ba>
 800508a:	2701      	movs	r7, #1
 800508c:	f8d3 2094 	ldr.w	r2, [r3, #148]	@ 0x94
 8005090:	f042 0204 	orr.w	r2, r2, #4
 8005094:	f8c3 2094 	str.w	r2, [r3, #148]	@ 0x94
 8005098:	f8d3 3094 	ldr.w	r3, [r3, #148]	@ 0x94
 800509c:	f003 0304 	and.w	r3, r3, #4
 80050a0:	9301      	str	r3, [sp, #4]
 80050a2:	9b01      	ldr	r3, [sp, #4]
 80050a4:	f7fd fe52 	bl	8002d4c <HAL_GetTick>
 80050a8:	f8df 8138 	ldr.w	r8, [pc, #312]	@ 80051e4 <HAL_RCC_ClockConfig+0x298>
 80050ac:	4606      	mov	r6, r0
 80050ae:	f8d8 300c 	ldr.w	r3, [r8, #12]
 80050b2:	035a      	lsls	r2, r3, #13
 80050b4:	d429      	bmi.n	800510a <HAL_RCC_ClockConfig+0x1be>
 80050b6:	4b47      	ldr	r3, [pc, #284]	@ (80051d4 <HAL_RCC_ClockConfig+0x288>)
 80050b8:	b12f      	cbz	r7, 80050c6 <HAL_RCC_ClockConfig+0x17a>
 80050ba:	f8d3 2094 	ldr.w	r2, [r3, #148]	@ 0x94
 80050be:	f022 0204 	bic.w	r2, r2, #4
 80050c2:	f8c3 2094 	str.w	r2, [r3, #148]	@ 0x94
 80050c6:	681b      	ldr	r3, [r3, #0]
 80050c8:	f013 7f00 	tst.w	r3, #33554432	@ 0x2000000
 80050cc:	f43f af43 	beq.w	8004f56 <HAL_RCC_ClockConfig+0xa>
 80050d0:	4e40      	ldr	r6, [pc, #256]	@ (80051d4 <HAL_RCC_ClockConfig+0x288>)
 80050d2:	6862      	ldr	r2, [r4, #4]
 80050d4:	69f3      	ldr	r3, [r6, #28]
 80050d6:	f241 3888 	movw	r8, #5000	@ 0x1388
 80050da:	f023 0303 	bic.w	r3, r3, #3
 80050de:	4313      	orrs	r3, r2
 80050e0:	61f3      	str	r3, [r6, #28]
 80050e2:	f7fd fe33 	bl	8002d4c <HAL_GetTick>
 80050e6:	6863      	ldr	r3, [r4, #4]
 80050e8:	4607      	mov	r7, r0
 80050ea:	2b03      	cmp	r3, #3
 80050ec:	d125      	bne.n	800513a <HAL_RCC_ClockConfig+0x1ee>
 80050ee:	69f3      	ldr	r3, [r6, #28]
 80050f0:	f003 030c 	and.w	r3, r3, #12
 80050f4:	2b0c      	cmp	r3, #12
 80050f6:	f43f af69 	beq.w	8004fcc <HAL_RCC_ClockConfig+0x80>
 80050fa:	f7fd fe27 	bl	8002d4c <HAL_GetTick>
 80050fe:	1bc0      	subs	r0, r0, r7
 8005100:	4540      	cmp	r0, r8
 8005102:	d9f4      	bls.n	80050ee <HAL_RCC_ClockConfig+0x1a2>
 8005104:	e00a      	b.n	800511c <HAL_RCC_ClockConfig+0x1d0>
 8005106:	2700      	movs	r7, #0
 8005108:	e7cc      	b.n	80050a4 <HAL_RCC_ClockConfig+0x158>
 800510a:	f8d8 300c 	ldr.w	r3, [r8, #12]
 800510e:	045b      	lsls	r3, r3, #17
 8005110:	d4d1      	bmi.n	80050b6 <HAL_RCC_ClockConfig+0x16a>
 8005112:	f7fd fe1b 	bl	8002d4c <HAL_GetTick>
 8005116:	1b80      	subs	r0, r0, r6
 8005118:	2802      	cmp	r0, #2
 800511a:	d9f6      	bls.n	800510a <HAL_RCC_ClockConfig+0x1be>
 800511c:	2003      	movs	r0, #3
 800511e:	e71b      	b.n	8004f58 <HAL_RCC_ClockConfig+0xc>
 8005120:	2a02      	cmp	r2, #2
 8005122:	681b      	ldr	r3, [r3, #0]
 8005124:	d102      	bne.n	800512c <HAL_RCC_ClockConfig+0x1e0>
 8005126:	f413 3f00 	tst.w	r3, #131072	@ 0x20000
 800512a:	e7cf      	b.n	80050cc <HAL_RCC_ClockConfig+0x180>
 800512c:	b912      	cbnz	r2, 8005134 <HAL_RCC_ClockConfig+0x1e8>
 800512e:	f013 0f04 	tst.w	r3, #4
 8005132:	e7cb      	b.n	80050cc <HAL_RCC_ClockConfig+0x180>
 8005134:	f413 6f80 	tst.w	r3, #1024	@ 0x400
 8005138:	e7c8      	b.n	80050cc <HAL_RCC_ClockConfig+0x180>
 800513a:	2b02      	cmp	r3, #2
 800513c:	d10b      	bne.n	8005156 <HAL_RCC_ClockConfig+0x20a>
 800513e:	69f3      	ldr	r3, [r6, #28]
 8005140:	f003 030c 	and.w	r3, r3, #12
 8005144:	2b08      	cmp	r3, #8
 8005146:	f43f af41 	beq.w	8004fcc <HAL_RCC_ClockConfig+0x80>
 800514a:	f7fd fdff 	bl	8002d4c <HAL_GetTick>
 800514e:	1bc0      	subs	r0, r0, r7
 8005150:	4540      	cmp	r0, r8
 8005152:	d9f4      	bls.n	800513e <HAL_RCC_ClockConfig+0x1f2>
 8005154:	e7e2      	b.n	800511c <HAL_RCC_ClockConfig+0x1d0>
 8005156:	b97b      	cbnz	r3, 8005178 <HAL_RCC_ClockConfig+0x22c>
 8005158:	69f3      	ldr	r3, [r6, #28]
 800515a:	f013 0f0c 	tst.w	r3, #12
 800515e:	f43f af35 	beq.w	8004fcc <HAL_RCC_ClockConfig+0x80>
 8005162:	f7fd fdf3 	bl	8002d4c <HAL_GetTick>
 8005166:	1bc0      	subs	r0, r0, r7
 8005168:	4540      	cmp	r0, r8
 800516a:	d9f5      	bls.n	8005158 <HAL_RCC_ClockConfig+0x20c>
 800516c:	e7d6      	b.n	800511c <HAL_RCC_ClockConfig+0x1d0>
 800516e:	f7fd fded 	bl	8002d4c <HAL_GetTick>
 8005172:	1bc0      	subs	r0, r0, r7
 8005174:	4540      	cmp	r0, r8
 8005176:	d8d1      	bhi.n	800511c <HAL_RCC_ClockConfig+0x1d0>
 8005178:	69f3      	ldr	r3, [r6, #28]
 800517a:	f003 030c 	and.w	r3, r3, #12
 800517e:	2b04      	cmp	r3, #4
 8005180:	d1f5      	bne.n	800516e <HAL_RCC_ClockConfig+0x222>
 8005182:	e723      	b.n	8004fcc <HAL_RCC_ClockConfig+0x80>
 8005184:	4913      	ldr	r1, [pc, #76]	@ (80051d4 <HAL_RCC_ClockConfig+0x288>)
 8005186:	68a0      	ldr	r0, [r4, #8]
 8005188:	6a0b      	ldr	r3, [r1, #32]
 800518a:	f003 030f 	and.w	r3, r3, #15
 800518e:	4298      	cmp	r0, r3
 8005190:	bf3f      	itttt	cc
 8005192:	6a0b      	ldrcc	r3, [r1, #32]
 8005194:	f023 030f 	biccc.w	r3, r3, #15
 8005198:	4303      	orrcc	r3, r0
 800519a:	620b      	strcc	r3, [r1, #32]
 800519c:	e71a      	b.n	8004fd4 <HAL_RCC_ClockConfig+0x88>
 800519e:	680b      	ldr	r3, [r1, #0]
 80051a0:	f023 030f 	bic.w	r3, r3, #15
 80051a4:	432b      	orrs	r3, r5
 80051a6:	600b      	str	r3, [r1, #0]
 80051a8:	680b      	ldr	r3, [r1, #0]
 80051aa:	f003 030f 	and.w	r3, r3, #15
 80051ae:	42ab      	cmp	r3, r5
 80051b0:	f47f aed1 	bne.w	8004f56 <HAL_RCC_ClockConfig+0xa>
 80051b4:	e715      	b.n	8004fe2 <HAL_RCC_ClockConfig+0x96>
 80051b6:	4907      	ldr	r1, [pc, #28]	@ (80051d4 <HAL_RCC_ClockConfig+0x288>)
 80051b8:	68e0      	ldr	r0, [r4, #12]
 80051ba:	6a0b      	ldr	r3, [r1, #32]
 80051bc:	f003 0370 	and.w	r3, r3, #112	@ 0x70
 80051c0:	4298      	cmp	r0, r3
 80051c2:	bf3f      	itttt	cc
 80051c4:	6a0b      	ldrcc	r3, [r1, #32]
 80051c6:	f023 0370 	biccc.w	r3, r3, #112	@ 0x70
 80051ca:	4303      	orrcc	r3, r0
 80051cc:	620b      	strcc	r3, [r1, #32]
 80051ce:	e70b      	b.n	8004fe8 <HAL_RCC_ClockConfig+0x9c>
 80051d0:	40022000 	.word	0x40022000
 80051d4:	46020c00 	.word	0x46020c00
 80051d8:	080064ac 	.word	0x080064ac
 80051dc:	20000000 	.word	0x20000000
 80051e0:	200000fc 	.word	0x200000fc
 80051e4:	46020800 	.word	0x46020800

080051e8 <HAL_RCC_GetHCLKFreq>:
 80051e8:	b508      	push	{r3, lr}
 80051ea:	f7ff fe23 	bl	8004e34 <HAL_RCC_GetSysClockFreq>
 80051ee:	4b05      	ldr	r3, [pc, #20]	@ (8005204 <HAL_RCC_GetHCLKFreq+0x1c>)
 80051f0:	4a05      	ldr	r2, [pc, #20]	@ (8005208 <HAL_RCC_GetHCLKFreq+0x20>)
 80051f2:	6a1b      	ldr	r3, [r3, #32]
 80051f4:	f003 030f 	and.w	r3, r3, #15
 80051f8:	5cd3      	ldrb	r3, [r2, r3]
 80051fa:	40d8      	lsrs	r0, r3
 80051fc:	4b03      	ldr	r3, [pc, #12]	@ (800520c <HAL_RCC_GetHCLKFreq+0x24>)
 80051fe:	6018      	str	r0, [r3, #0]
 8005200:	bd08      	pop	{r3, pc}
 8005202:	bf00      	nop
 8005204:	46020c00 	.word	0x46020c00
 8005208:	080064ac 	.word	0x080064ac
 800520c:	20000000 	.word	0x20000000

08005210 <HAL_RCC_OscConfig>:
 8005210:	e92d 41ff 	stmdb	sp!, {r0, r1, r2, r3, r4, r5, r6, r7, r8, lr}
 8005214:	4604      	mov	r4, r0
 8005216:	2800      	cmp	r0, #0
 8005218:	d039      	beq.n	800528e <HAL_RCC_OscConfig+0x7e>
 800521a:	4ba3      	ldr	r3, [pc, #652]	@ (80054a8 <HAL_RCC_OscConfig+0x298>)
 800521c:	69de      	ldr	r6, [r3, #28]
 800521e:	6a9f      	ldr	r7, [r3, #40]	@ 0x28
 8005220:	6803      	ldr	r3, [r0, #0]
 8005222:	f006 060c 	and.w	r6, r6, #12
 8005226:	06d8      	lsls	r0, r3, #27
 8005228:	f007 0703 	and.w	r7, r7, #3
 800522c:	f140 809a 	bpl.w	8005364 <HAL_RCC_OscConfig+0x154>
 8005230:	69e3      	ldr	r3, [r4, #28]
 8005232:	b11e      	cbz	r6, 800523c <HAL_RCC_OscConfig+0x2c>
 8005234:	2e0c      	cmp	r6, #12
 8005236:	d175      	bne.n	8005324 <HAL_RCC_OscConfig+0x114>
 8005238:	2f01      	cmp	r7, #1
 800523a:	d173      	bne.n	8005324 <HAL_RCC_OscConfig+0x114>
 800523c:	b33b      	cbz	r3, 800528e <HAL_RCC_OscConfig+0x7e>
 800523e:	4d9a      	ldr	r5, [pc, #616]	@ (80054a8 <HAL_RCC_OscConfig+0x298>)
 8005240:	6a60      	ldr	r0, [r4, #36]	@ 0x24
 8005242:	68ab      	ldr	r3, [r5, #8]
 8005244:	0219      	lsls	r1, r3, #8
 8005246:	bf56      	itet	pl
 8005248:	f8d5 30f4 	ldrpl.w	r3, [r5, #244]	@ 0xf4
 800524c:	68ab      	ldrmi	r3, [r5, #8]
 800524e:	041b      	lslpl	r3, r3, #16
 8005250:	f003 4370 	and.w	r3, r3, #4026531840	@ 0xf0000000
 8005254:	4298      	cmp	r0, r3
 8005256:	d938      	bls.n	80052ca <HAL_RCC_OscConfig+0xba>
 8005258:	b1ae      	cbz	r6, 8005286 <HAL_RCC_OscConfig+0x76>
 800525a:	68ab      	ldr	r3, [r5, #8]
 800525c:	f443 0300 	orr.w	r3, r3, #8388608	@ 0x800000
 8005260:	60ab      	str	r3, [r5, #8]
 8005262:	68ab      	ldr	r3, [r5, #8]
 8005264:	6a61      	ldr	r1, [r4, #36]	@ 0x24
 8005266:	f023 4370 	bic.w	r3, r3, #4026531840	@ 0xf0000000
 800526a:	430b      	orrs	r3, r1
 800526c:	60ab      	str	r3, [r5, #8]
 800526e:	f1b1 4f40 	cmp.w	r1, #3221225472	@ 0xc0000000
 8005272:	6a22      	ldr	r2, [r4, #32]
 8005274:	d20d      	bcs.n	8005292 <HAL_RCC_OscConfig+0x82>
 8005276:	2900      	cmp	r1, #0
 8005278:	68eb      	ldr	r3, [r5, #12]
 800527a:	da1a      	bge.n	80052b2 <HAL_RCC_OscConfig+0xa2>
 800527c:	f423 7378 	bic.w	r3, r3, #992	@ 0x3e0
 8005280:	ea43 1342 	orr.w	r3, r3, r2, lsl #5
 8005284:	e009      	b.n	800529a <HAL_RCC_OscConfig+0x8a>
 8005286:	f7ff fd79 	bl	8004d7c <RCC_SetFlashLatencyFromMSIRange>
 800528a:	2800      	cmp	r0, #0
 800528c:	d0e5      	beq.n	800525a <HAL_RCC_OscConfig+0x4a>
 800528e:	2001      	movs	r0, #1
 8005290:	e00c      	b.n	80052ac <HAL_RCC_OscConfig+0x9c>
 8005292:	68eb      	ldr	r3, [r5, #12]
 8005294:	f023 031f 	bic.w	r3, r3, #31
 8005298:	4313      	orrs	r3, r2
 800529a:	60eb      	str	r3, [r5, #12]
 800529c:	f7ff ffa4 	bl	80051e8 <HAL_RCC_GetHCLKFreq>
 80052a0:	4b82      	ldr	r3, [pc, #520]	@ (80054ac <HAL_RCC_OscConfig+0x29c>)
 80052a2:	6818      	ldr	r0, [r3, #0]
 80052a4:	f7fd fcd4 	bl	8002c50 <HAL_InitTick>
 80052a8:	2800      	cmp	r0, #0
 80052aa:	d05b      	beq.n	8005364 <HAL_RCC_OscConfig+0x154>
 80052ac:	b004      	add	sp, #16
 80052ae:	e8bd 81f0 	ldmia.w	sp!, {r4, r5, r6, r7, r8, pc}
 80052b2:	f1b1 4f80 	cmp.w	r1, #1073741824	@ 0x40000000
 80052b6:	bf2b      	itete	cs
 80052b8:	f423 43f8 	biccs.w	r3, r3, #31744	@ 0x7c00
 80052bc:	f423 2378 	biccc.w	r3, r3, #1015808	@ 0xf8000
 80052c0:	ea43 2382 	orrcs.w	r3, r3, r2, lsl #10
 80052c4:	ea43 33c2 	orrcc.w	r3, r3, r2, lsl #15
 80052c8:	e7e7      	b.n	800529a <HAL_RCC_OscConfig+0x8a>
 80052ca:	68ab      	ldr	r3, [r5, #8]
 80052cc:	f1b0 4f40 	cmp.w	r0, #3221225472	@ 0xc0000000
 80052d0:	f443 0300 	orr.w	r3, r3, #8388608	@ 0x800000
 80052d4:	60ab      	str	r3, [r5, #8]
 80052d6:	68ab      	ldr	r3, [r5, #8]
 80052d8:	f023 4370 	bic.w	r3, r3, #4026531840	@ 0xf0000000
 80052dc:	ea43 0300 	orr.w	r3, r3, r0
 80052e0:	60ab      	str	r3, [r5, #8]
 80052e2:	6a22      	ldr	r2, [r4, #32]
 80052e4:	68eb      	ldr	r3, [r5, #12]
 80052e6:	d30a      	bcc.n	80052fe <HAL_RCC_OscConfig+0xee>
 80052e8:	f023 031f 	bic.w	r3, r3, #31
 80052ec:	4313      	orrs	r3, r2
 80052ee:	60eb      	str	r3, [r5, #12]
 80052f0:	2e00      	cmp	r6, #0
 80052f2:	d1d3      	bne.n	800529c <HAL_RCC_OscConfig+0x8c>
 80052f4:	f7ff fd42 	bl	8004d7c <RCC_SetFlashLatencyFromMSIRange>
 80052f8:	2800      	cmp	r0, #0
 80052fa:	d0cf      	beq.n	800529c <HAL_RCC_OscConfig+0x8c>
 80052fc:	e7c7      	b.n	800528e <HAL_RCC_OscConfig+0x7e>
 80052fe:	2800      	cmp	r0, #0
 8005300:	da04      	bge.n	800530c <HAL_RCC_OscConfig+0xfc>
 8005302:	f423 7378 	bic.w	r3, r3, #992	@ 0x3e0
 8005306:	ea43 1342 	orr.w	r3, r3, r2, lsl #5
 800530a:	e7f0      	b.n	80052ee <HAL_RCC_OscConfig+0xde>
 800530c:	f1b0 4f80 	cmp.w	r0, #1073741824	@ 0x40000000
 8005310:	bf2b      	itete	cs
 8005312:	f423 43f8 	biccs.w	r3, r3, #31744	@ 0x7c00
 8005316:	f423 2378 	biccc.w	r3, r3, #1015808	@ 0xf8000
 800531a:	ea43 2382 	orrcs.w	r3, r3, r2, lsl #10
 800531e:	ea43 33c2 	orrcc.w	r3, r3, r2, lsl #15
 8005322:	e7e4      	b.n	80052ee <HAL_RCC_OscConfig+0xde>
 8005324:	4d60      	ldr	r5, [pc, #384]	@ (80054a8 <HAL_RCC_OscConfig+0x298>)
 8005326:	2b00      	cmp	r3, #0
 8005328:	d074      	beq.n	8005414 <HAL_RCC_OscConfig+0x204>
 800532a:	682b      	ldr	r3, [r5, #0]
 800532c:	f043 0301 	orr.w	r3, r3, #1
 8005330:	602b      	str	r3, [r5, #0]
 8005332:	f7fd fd0b 	bl	8002d4c <HAL_GetTick>
 8005336:	4680      	mov	r8, r0
 8005338:	682b      	ldr	r3, [r5, #0]
 800533a:	075a      	lsls	r2, r3, #29
 800533c:	d54e      	bpl.n	80053dc <HAL_RCC_OscConfig+0x1cc>
 800533e:	68ab      	ldr	r3, [r5, #8]
 8005340:	f443 0300 	orr.w	r3, r3, #8388608	@ 0x800000
 8005344:	60ab      	str	r3, [r5, #8]
 8005346:	68ab      	ldr	r3, [r5, #8]
 8005348:	6a61      	ldr	r1, [r4, #36]	@ 0x24
 800534a:	f023 4370 	bic.w	r3, r3, #4026531840	@ 0xf0000000
 800534e:	430b      	orrs	r3, r1
 8005350:	60ab      	str	r3, [r5, #8]
 8005352:	f1b1 4f40 	cmp.w	r1, #3221225472	@ 0xc0000000
 8005356:	6a22      	ldr	r2, [r4, #32]
 8005358:	68eb      	ldr	r3, [r5, #12]
 800535a:	d347      	bcc.n	80053ec <HAL_RCC_OscConfig+0x1dc>
 800535c:	f023 031f 	bic.w	r3, r3, #31
 8005360:	4313      	orrs	r3, r2
 8005362:	60eb      	str	r3, [r5, #12]
 8005364:	6823      	ldr	r3, [r4, #0]
 8005366:	07dd      	lsls	r5, r3, #31
 8005368:	d465      	bmi.n	8005436 <HAL_RCC_OscConfig+0x226>
 800536a:	6823      	ldr	r3, [r4, #0]
 800536c:	0798      	lsls	r0, r3, #30
 800536e:	f100 80bd 	bmi.w	80054ec <HAL_RCC_OscConfig+0x2dc>
 8005372:	6823      	ldr	r3, [r4, #0]
 8005374:	0718      	lsls	r0, r3, #28
 8005376:	f140 8138 	bpl.w	80055ea <HAL_RCC_OscConfig+0x3da>
 800537a:	4b4b      	ldr	r3, [pc, #300]	@ (80054a8 <HAL_RCC_OscConfig+0x298>)
 800537c:	f8d3 2094 	ldr.w	r2, [r3, #148]	@ 0x94
 8005380:	0751      	lsls	r1, r2, #29
 8005382:	f100 80f1 	bmi.w	8005568 <HAL_RCC_OscConfig+0x358>
 8005386:	2701      	movs	r7, #1
 8005388:	f8d3 2094 	ldr.w	r2, [r3, #148]	@ 0x94
 800538c:	f042 0204 	orr.w	r2, r2, #4
 8005390:	f8c3 2094 	str.w	r2, [r3, #148]	@ 0x94
 8005394:	f8d3 3094 	ldr.w	r3, [r3, #148]	@ 0x94
 8005398:	f003 0304 	and.w	r3, r3, #4
 800539c:	9301      	str	r3, [sp, #4]
 800539e:	9b01      	ldr	r3, [sp, #4]
 80053a0:	4d43      	ldr	r5, [pc, #268]	@ (80054b0 <HAL_RCC_OscConfig+0x2a0>)
 80053a2:	6aab      	ldr	r3, [r5, #40]	@ 0x28
 80053a4:	07da      	lsls	r2, r3, #31
 80053a6:	f140 80e1 	bpl.w	800556c <HAL_RCC_OscConfig+0x35c>
 80053aa:	6963      	ldr	r3, [r4, #20]
 80053ac:	4d3e      	ldr	r5, [pc, #248]	@ (80054a8 <HAL_RCC_OscConfig+0x298>)
 80053ae:	2b00      	cmp	r3, #0
 80053b0:	f040 80ed 	bne.w	800558e <HAL_RCC_OscConfig+0x37e>
 80053b4:	f8d5 30f0 	ldr.w	r3, [r5, #240]	@ 0xf0
 80053b8:	f023 53a0 	bic.w	r3, r3, #335544320	@ 0x14000000
 80053bc:	f8c5 30f0 	str.w	r3, [r5, #240]	@ 0xf0
 80053c0:	f7fd fcc4 	bl	8002d4c <HAL_GetTick>
 80053c4:	4606      	mov	r6, r0
 80053c6:	f8d5 30f0 	ldr.w	r3, [r5, #240]	@ 0xf0
 80053ca:	011b      	lsls	r3, r3, #4
 80053cc:	f140 8105 	bpl.w	80055da <HAL_RCC_OscConfig+0x3ca>
 80053d0:	f7fd fcbc 	bl	8002d4c <HAL_GetTick>
 80053d4:	1b80      	subs	r0, r0, r6
 80053d6:	2805      	cmp	r0, #5
 80053d8:	d9f5      	bls.n	80053c6 <HAL_RCC_OscConfig+0x1b6>
 80053da:	e005      	b.n	80053e8 <HAL_RCC_OscConfig+0x1d8>
 80053dc:	f7fd fcb6 	bl	8002d4c <HAL_GetTick>
 80053e0:	eba0 0008 	sub.w	r0, r0, r8
 80053e4:	2802      	cmp	r0, #2
 80053e6:	d9a7      	bls.n	8005338 <HAL_RCC_OscConfig+0x128>
 80053e8:	2003      	movs	r0, #3
 80053ea:	e75f      	b.n	80052ac <HAL_RCC_OscConfig+0x9c>
 80053ec:	2900      	cmp	r1, #0
 80053ee:	da04      	bge.n	80053fa <HAL_RCC_OscConfig+0x1ea>
 80053f0:	f423 7378 	bic.w	r3, r3, #992	@ 0x3e0
 80053f4:	ea43 1342 	orr.w	r3, r3, r2, lsl #5
 80053f8:	e7b3      	b.n	8005362 <HAL_RCC_OscConfig+0x152>
 80053fa:	f1b1 4f80 	cmp.w	r1, #1073741824	@ 0x40000000
 80053fe:	d304      	bcc.n	800540a <HAL_RCC_OscConfig+0x1fa>
 8005400:	f423 43f8 	bic.w	r3, r3, #31744	@ 0x7c00
 8005404:	ea43 2382 	orr.w	r3, r3, r2, lsl #10
 8005408:	e7ab      	b.n	8005362 <HAL_RCC_OscConfig+0x152>
 800540a:	f423 2378 	bic.w	r3, r3, #1015808	@ 0xf8000
 800540e:	ea43 33c2 	orr.w	r3, r3, r2, lsl #15
 8005412:	e7a6      	b.n	8005362 <HAL_RCC_OscConfig+0x152>
 8005414:	682b      	ldr	r3, [r5, #0]
 8005416:	f023 0301 	bic.w	r3, r3, #1
 800541a:	602b      	str	r3, [r5, #0]
 800541c:	f7fd fc96 	bl	8002d4c <HAL_GetTick>
 8005420:	4680      	mov	r8, r0
 8005422:	682b      	ldr	r3, [r5, #0]
 8005424:	075b      	lsls	r3, r3, #29
 8005426:	d59d      	bpl.n	8005364 <HAL_RCC_OscConfig+0x154>
 8005428:	f7fd fc90 	bl	8002d4c <HAL_GetTick>
 800542c:	eba0 0008 	sub.w	r0, r0, r8
 8005430:	2802      	cmp	r0, #2
 8005432:	d9f6      	bls.n	8005422 <HAL_RCC_OscConfig+0x212>
 8005434:	e7d8      	b.n	80053e8 <HAL_RCC_OscConfig+0x1d8>
 8005436:	2e08      	cmp	r6, #8
 8005438:	6863      	ldr	r3, [r4, #4]
 800543a:	d003      	beq.n	8005444 <HAL_RCC_OscConfig+0x234>
 800543c:	2e0c      	cmp	r6, #12
 800543e:	d104      	bne.n	800544a <HAL_RCC_OscConfig+0x23a>
 8005440:	2f03      	cmp	r7, #3
 8005442:	d102      	bne.n	800544a <HAL_RCC_OscConfig+0x23a>
 8005444:	2b00      	cmp	r3, #0
 8005446:	d190      	bne.n	800536a <HAL_RCC_OscConfig+0x15a>
 8005448:	e721      	b.n	800528e <HAL_RCC_OscConfig+0x7e>
 800544a:	f5b3 3f80 	cmp.w	r3, #65536	@ 0x10000
 800544e:	4d16      	ldr	r5, [pc, #88]	@ (80054a8 <HAL_RCC_OscConfig+0x298>)
 8005450:	d113      	bne.n	800547a <HAL_RCC_OscConfig+0x26a>
 8005452:	682b      	ldr	r3, [r5, #0]
 8005454:	f443 3380 	orr.w	r3, r3, #65536	@ 0x10000
 8005458:	602b      	str	r3, [r5, #0]
 800545a:	f7fd fc77 	bl	8002d4c <HAL_GetTick>
 800545e:	4605      	mov	r5, r0
 8005460:	f8df 8044 	ldr.w	r8, [pc, #68]	@ 80054a8 <HAL_RCC_OscConfig+0x298>
 8005464:	f8d8 3000 	ldr.w	r3, [r8]
 8005468:	0399      	lsls	r1, r3, #14
 800546a:	f53f af7e 	bmi.w	800536a <HAL_RCC_OscConfig+0x15a>
 800546e:	f7fd fc6d 	bl	8002d4c <HAL_GetTick>
 8005472:	1b40      	subs	r0, r0, r5
 8005474:	2864      	cmp	r0, #100	@ 0x64
 8005476:	d9f5      	bls.n	8005464 <HAL_RCC_OscConfig+0x254>
 8005478:	e7b6      	b.n	80053e8 <HAL_RCC_OscConfig+0x1d8>
 800547a:	f5b3 2fa0 	cmp.w	r3, #327680	@ 0x50000
 800547e:	d108      	bne.n	8005492 <HAL_RCC_OscConfig+0x282>
 8005480:	682b      	ldr	r3, [r5, #0]
 8005482:	f443 2380 	orr.w	r3, r3, #262144	@ 0x40000
 8005486:	602b      	str	r3, [r5, #0]
 8005488:	682b      	ldr	r3, [r5, #0]
 800548a:	f423 1380 	bic.w	r3, r3, #1048576	@ 0x100000
 800548e:	602b      	str	r3, [r5, #0]
 8005490:	e7df      	b.n	8005452 <HAL_RCC_OscConfig+0x242>
 8005492:	f5b3 1fa8 	cmp.w	r3, #1376256	@ 0x150000
 8005496:	d10d      	bne.n	80054b4 <HAL_RCC_OscConfig+0x2a4>
 8005498:	682b      	ldr	r3, [r5, #0]
 800549a:	f443 2380 	orr.w	r3, r3, #262144	@ 0x40000
 800549e:	602b      	str	r3, [r5, #0]
 80054a0:	682b      	ldr	r3, [r5, #0]
 80054a2:	f443 1380 	orr.w	r3, r3, #1048576	@ 0x100000
 80054a6:	e7f2      	b.n	800548e <HAL_RCC_OscConfig+0x27e>
 80054a8:	46020c00 	.word	0x46020c00
 80054ac:	200000fc 	.word	0x200000fc
 80054b0:	46020800 	.word	0x46020800
 80054b4:	682a      	ldr	r2, [r5, #0]
 80054b6:	f422 3280 	bic.w	r2, r2, #65536	@ 0x10000
 80054ba:	602a      	str	r2, [r5, #0]
 80054bc:	682a      	ldr	r2, [r5, #0]
 80054be:	f422 2280 	bic.w	r2, r2, #262144	@ 0x40000
 80054c2:	602a      	str	r2, [r5, #0]
 80054c4:	682a      	ldr	r2, [r5, #0]
 80054c6:	f422 1280 	bic.w	r2, r2, #1048576	@ 0x100000
 80054ca:	602a      	str	r2, [r5, #0]
 80054cc:	2b00      	cmp	r3, #0
 80054ce:	d1c4      	bne.n	800545a <HAL_RCC_OscConfig+0x24a>
 80054d0:	f7fd fc3c 	bl	8002d4c <HAL_GetTick>
 80054d4:	4680      	mov	r8, r0
 80054d6:	682b      	ldr	r3, [r5, #0]
 80054d8:	039a      	lsls	r2, r3, #14
 80054da:	f57f af46 	bpl.w	800536a <HAL_RCC_OscConfig+0x15a>
 80054de:	f7fd fc35 	bl	8002d4c <HAL_GetTick>
 80054e2:	eba0 0008 	sub.w	r0, r0, r8
 80054e6:	2864      	cmp	r0, #100	@ 0x64
 80054e8:	d9f5      	bls.n	80054d6 <HAL_RCC_OscConfig+0x2c6>
 80054ea:	e77d      	b.n	80053e8 <HAL_RCC_OscConfig+0x1d8>
 80054ec:	2e04      	cmp	r6, #4
 80054ee:	68e3      	ldr	r3, [r4, #12]
 80054f0:	d003      	beq.n	80054fa <HAL_RCC_OscConfig+0x2ea>
 80054f2:	2e0c      	cmp	r6, #12
 80054f4:	d10d      	bne.n	8005512 <HAL_RCC_OscConfig+0x302>
 80054f6:	2f02      	cmp	r7, #2
 80054f8:	d10b      	bne.n	8005512 <HAL_RCC_OscConfig+0x302>
 80054fa:	2b00      	cmp	r3, #0
 80054fc:	f43f aec7 	beq.w	800528e <HAL_RCC_OscConfig+0x7e>
 8005500:	4aa9      	ldr	r2, [pc, #676]	@ (80057a8 <HAL_RCC_OscConfig+0x598>)
 8005502:	6921      	ldr	r1, [r4, #16]
 8005504:	6913      	ldr	r3, [r2, #16]
 8005506:	f423 13f8 	bic.w	r3, r3, #2031616	@ 0x1f0000
 800550a:	ea43 4301 	orr.w	r3, r3, r1, lsl #16
 800550e:	6113      	str	r3, [r2, #16]
 8005510:	e72f      	b.n	8005372 <HAL_RCC_OscConfig+0x162>
 8005512:	4da5      	ldr	r5, [pc, #660]	@ (80057a8 <HAL_RCC_OscConfig+0x598>)
 8005514:	b1bb      	cbz	r3, 8005546 <HAL_RCC_OscConfig+0x336>
 8005516:	682b      	ldr	r3, [r5, #0]
 8005518:	f443 7380 	orr.w	r3, r3, #256	@ 0x100
 800551c:	602b      	str	r3, [r5, #0]
 800551e:	f7fd fc15 	bl	8002d4c <HAL_GetTick>
 8005522:	4606      	mov	r6, r0
 8005524:	682b      	ldr	r3, [r5, #0]
 8005526:	055b      	lsls	r3, r3, #21
 8005528:	d507      	bpl.n	800553a <HAL_RCC_OscConfig+0x32a>
 800552a:	692b      	ldr	r3, [r5, #16]
 800552c:	6922      	ldr	r2, [r4, #16]
 800552e:	f423 13f8 	bic.w	r3, r3, #2031616	@ 0x1f0000
 8005532:	ea43 4302 	orr.w	r3, r3, r2, lsl #16
 8005536:	612b      	str	r3, [r5, #16]
 8005538:	e71b      	b.n	8005372 <HAL_RCC_OscConfig+0x162>
 800553a:	f7fd fc07 	bl	8002d4c <HAL_GetTick>
 800553e:	1b80      	subs	r0, r0, r6
 8005540:	2802      	cmp	r0, #2
 8005542:	d9ef      	bls.n	8005524 <HAL_RCC_OscConfig+0x314>
 8005544:	e750      	b.n	80053e8 <HAL_RCC_OscConfig+0x1d8>
 8005546:	682b      	ldr	r3, [r5, #0]
 8005548:	f423 7380 	bic.w	r3, r3, #256	@ 0x100
 800554c:	602b      	str	r3, [r5, #0]
 800554e:	f7fd fbfd 	bl	8002d4c <HAL_GetTick>
 8005552:	4606      	mov	r6, r0
 8005554:	682b      	ldr	r3, [r5, #0]
 8005556:	055f      	lsls	r7, r3, #21
 8005558:	f57f af0b 	bpl.w	8005372 <HAL_RCC_OscConfig+0x162>
 800555c:	f7fd fbf6 	bl	8002d4c <HAL_GetTick>
 8005560:	1b80      	subs	r0, r0, r6
 8005562:	2802      	cmp	r0, #2
 8005564:	d9f6      	bls.n	8005554 <HAL_RCC_OscConfig+0x344>
 8005566:	e73f      	b.n	80053e8 <HAL_RCC_OscConfig+0x1d8>
 8005568:	2700      	movs	r7, #0
 800556a:	e719      	b.n	80053a0 <HAL_RCC_OscConfig+0x190>
 800556c:	6aab      	ldr	r3, [r5, #40]	@ 0x28
 800556e:	f043 0301 	orr.w	r3, r3, #1
 8005572:	62ab      	str	r3, [r5, #40]	@ 0x28
 8005574:	f7fd fbea 	bl	8002d4c <HAL_GetTick>
 8005578:	4606      	mov	r6, r0
 800557a:	6aab      	ldr	r3, [r5, #40]	@ 0x28
 800557c:	07db      	lsls	r3, r3, #31
 800557e:	f53f af14 	bmi.w	80053aa <HAL_RCC_OscConfig+0x19a>
 8005582:	f7fd fbe3 	bl	8002d4c <HAL_GetTick>
 8005586:	1b80      	subs	r0, r0, r6
 8005588:	2802      	cmp	r0, #2
 800558a:	d9f6      	bls.n	800557a <HAL_RCC_OscConfig+0x36a>
 800558c:	e72c      	b.n	80053e8 <HAL_RCC_OscConfig+0x1d8>
 800558e:	f8d5 30f0 	ldr.w	r3, [r5, #240]	@ 0xf0
 8005592:	69a1      	ldr	r1, [r4, #24]
 8005594:	f003 5280 	and.w	r2, r3, #268435456	@ 0x10000000
 8005598:	4291      	cmp	r1, r2
 800559a:	d010      	beq.n	80055be <HAL_RCC_OscConfig+0x3ae>
 800559c:	f003 6240 	and.w	r2, r3, #201326592	@ 0xc000000
 80055a0:	f1b2 6f00 	cmp.w	r2, #134217728	@ 0x8000000
 80055a4:	f43f ae73 	beq.w	800528e <HAL_RCC_OscConfig+0x7e>
 80055a8:	0158      	lsls	r0, r3, #5
 80055aa:	d46c      	bmi.n	8005686 <HAL_RCC_OscConfig+0x476>
 80055ac:	4a7e      	ldr	r2, [pc, #504]	@ (80057a8 <HAL_RCC_OscConfig+0x598>)
 80055ae:	69a1      	ldr	r1, [r4, #24]
 80055b0:	f8d2 30f0 	ldr.w	r3, [r2, #240]	@ 0xf0
 80055b4:	f023 5380 	bic.w	r3, r3, #268435456	@ 0x10000000
 80055b8:	430b      	orrs	r3, r1
 80055ba:	f8c2 30f0 	str.w	r3, [r2, #240]	@ 0xf0
 80055be:	4d7a      	ldr	r5, [pc, #488]	@ (80057a8 <HAL_RCC_OscConfig+0x598>)
 80055c0:	f8d5 30f0 	ldr.w	r3, [r5, #240]	@ 0xf0
 80055c4:	f043 6380 	orr.w	r3, r3, #67108864	@ 0x4000000
 80055c8:	f8c5 30f0 	str.w	r3, [r5, #240]	@ 0xf0
 80055cc:	f7fd fbbe 	bl	8002d4c <HAL_GetTick>
 80055d0:	4606      	mov	r6, r0
 80055d2:	f8d5 30f0 	ldr.w	r3, [r5, #240]	@ 0xf0
 80055d6:	011a      	lsls	r2, r3, #4
 80055d8:	d568      	bpl.n	80056ac <HAL_RCC_OscConfig+0x49c>
 80055da:	b137      	cbz	r7, 80055ea <HAL_RCC_OscConfig+0x3da>
 80055dc:	4a72      	ldr	r2, [pc, #456]	@ (80057a8 <HAL_RCC_OscConfig+0x598>)
 80055de:	f8d2 3094 	ldr.w	r3, [r2, #148]	@ 0x94
 80055e2:	f023 0304 	bic.w	r3, r3, #4
 80055e6:	f8c2 3094 	str.w	r3, [r2, #148]	@ 0x94
 80055ea:	6823      	ldr	r3, [r4, #0]
 80055ec:	075d      	lsls	r5, r3, #29
 80055ee:	f140 80a7 	bpl.w	8005740 <HAL_RCC_OscConfig+0x530>
 80055f2:	4b6d      	ldr	r3, [pc, #436]	@ (80057a8 <HAL_RCC_OscConfig+0x598>)
 80055f4:	f8d3 2094 	ldr.w	r2, [r3, #148]	@ 0x94
 80055f8:	0750      	lsls	r0, r2, #29
 80055fa:	d45d      	bmi.n	80056b8 <HAL_RCC_OscConfig+0x4a8>
 80055fc:	2701      	movs	r7, #1
 80055fe:	f8d3 2094 	ldr.w	r2, [r3, #148]	@ 0x94
 8005602:	f042 0204 	orr.w	r2, r2, #4
 8005606:	f8c3 2094 	str.w	r2, [r3, #148]	@ 0x94
 800560a:	f8d3 3094 	ldr.w	r3, [r3, #148]	@ 0x94
 800560e:	f003 0304 	and.w	r3, r3, #4
 8005612:	9302      	str	r3, [sp, #8]
 8005614:	9b02      	ldr	r3, [sp, #8]
 8005616:	4d65      	ldr	r5, [pc, #404]	@ (80057ac <HAL_RCC_OscConfig+0x59c>)
 8005618:	6aab      	ldr	r3, [r5, #40]	@ 0x28
 800561a:	07d9      	lsls	r1, r3, #31
 800561c:	d54e      	bpl.n	80056bc <HAL_RCC_OscConfig+0x4ac>
 800561e:	68a3      	ldr	r3, [r4, #8]
 8005620:	4d61      	ldr	r5, [pc, #388]	@ (80057a8 <HAL_RCC_OscConfig+0x598>)
 8005622:	f013 0f01 	tst.w	r3, #1
 8005626:	d159      	bne.n	80056dc <HAL_RCC_OscConfig+0x4cc>
 8005628:	f8d5 20f0 	ldr.w	r2, [r5, #240]	@ 0xf0
 800562c:	f022 0201 	bic.w	r2, r2, #1
 8005630:	f8c5 20f0 	str.w	r2, [r5, #240]	@ 0xf0
 8005634:	f8d5 20f0 	ldr.w	r2, [r5, #240]	@ 0xf0
 8005638:	f022 0204 	bic.w	r2, r2, #4
 800563c:	f8c5 20f0 	str.w	r2, [r5, #240]	@ 0xf0
 8005640:	2b00      	cmp	r3, #0
 8005642:	d15a      	bne.n	80056fa <HAL_RCC_OscConfig+0x4ea>
 8005644:	f7fd fb82 	bl	8002d4c <HAL_GetTick>
 8005648:	f241 3888 	movw	r8, #5000	@ 0x1388
 800564c:	4606      	mov	r6, r0
 800564e:	f8d5 30f0 	ldr.w	r3, [r5, #240]	@ 0xf0
 8005652:	079a      	lsls	r2, r3, #30
 8005654:	f100 80a0 	bmi.w	8005798 <HAL_RCC_OscConfig+0x588>
 8005658:	f8d5 30f0 	ldr.w	r3, [r5, #240]	@ 0xf0
 800565c:	061b      	lsls	r3, r3, #24
 800565e:	d567      	bpl.n	8005730 <HAL_RCC_OscConfig+0x520>
 8005660:	f241 3888 	movw	r8, #5000	@ 0x1388
 8005664:	f8d5 30f0 	ldr.w	r3, [r5, #240]	@ 0xf0
 8005668:	f023 0380 	bic.w	r3, r3, #128	@ 0x80
 800566c:	f8c5 30f0 	str.w	r3, [r5, #240]	@ 0xf0
 8005670:	4d4d      	ldr	r5, [pc, #308]	@ (80057a8 <HAL_RCC_OscConfig+0x598>)
 8005672:	f8d5 30f0 	ldr.w	r3, [r5, #240]	@ 0xf0
 8005676:	0518      	lsls	r0, r3, #20
 8005678:	d55a      	bpl.n	8005730 <HAL_RCC_OscConfig+0x520>
 800567a:	f7fd fb67 	bl	8002d4c <HAL_GetTick>
 800567e:	1b80      	subs	r0, r0, r6
 8005680:	4540      	cmp	r0, r8
 8005682:	d9f6      	bls.n	8005672 <HAL_RCC_OscConfig+0x462>
 8005684:	e6b0      	b.n	80053e8 <HAL_RCC_OscConfig+0x1d8>
 8005686:	f8d5 30f0 	ldr.w	r3, [r5, #240]	@ 0xf0
 800568a:	f023 53a0 	bic.w	r3, r3, #335544320	@ 0x14000000
 800568e:	f8c5 30f0 	str.w	r3, [r5, #240]	@ 0xf0
 8005692:	f7fd fb5b 	bl	8002d4c <HAL_GetTick>
 8005696:	4606      	mov	r6, r0
 8005698:	f8d5 30f0 	ldr.w	r3, [r5, #240]	@ 0xf0
 800569c:	0119      	lsls	r1, r3, #4
 800569e:	d585      	bpl.n	80055ac <HAL_RCC_OscConfig+0x39c>
 80056a0:	f7fd fb54 	bl	8002d4c <HAL_GetTick>
 80056a4:	1b80      	subs	r0, r0, r6
 80056a6:	2805      	cmp	r0, #5
 80056a8:	d9f6      	bls.n	8005698 <HAL_RCC_OscConfig+0x488>
 80056aa:	e69d      	b.n	80053e8 <HAL_RCC_OscConfig+0x1d8>
 80056ac:	f7fd fb4e 	bl	8002d4c <HAL_GetTick>
 80056b0:	1b80      	subs	r0, r0, r6
 80056b2:	2805      	cmp	r0, #5
 80056b4:	d98d      	bls.n	80055d2 <HAL_RCC_OscConfig+0x3c2>
 80056b6:	e697      	b.n	80053e8 <HAL_RCC_OscConfig+0x1d8>
 80056b8:	2700      	movs	r7, #0
 80056ba:	e7ac      	b.n	8005616 <HAL_RCC_OscConfig+0x406>
 80056bc:	6aab      	ldr	r3, [r5, #40]	@ 0x28
 80056be:	f043 0301 	orr.w	r3, r3, #1
 80056c2:	62ab      	str	r3, [r5, #40]	@ 0x28
 80056c4:	f7fd fb42 	bl	8002d4c <HAL_GetTick>
 80056c8:	4606      	mov	r6, r0
 80056ca:	6aab      	ldr	r3, [r5, #40]	@ 0x28
 80056cc:	07da      	lsls	r2, r3, #31
 80056ce:	d4a6      	bmi.n	800561e <HAL_RCC_OscConfig+0x40e>
 80056d0:	f7fd fb3c 	bl	8002d4c <HAL_GetTick>
 80056d4:	1b80      	subs	r0, r0, r6
 80056d6:	2802      	cmp	r0, #2
 80056d8:	d9f7      	bls.n	80056ca <HAL_RCC_OscConfig+0x4ba>
 80056da:	e685      	b.n	80053e8 <HAL_RCC_OscConfig+0x1d8>
 80056dc:	f013 0f04 	tst.w	r3, #4
 80056e0:	f8d5 30f0 	ldr.w	r3, [r5, #240]	@ 0xf0
 80056e4:	bf1e      	ittt	ne
 80056e6:	f043 0304 	orrne.w	r3, r3, #4
 80056ea:	f8c5 30f0 	strne.w	r3, [r5, #240]	@ 0xf0
 80056ee:	f8d5 30f0 	ldrne.w	r3, [r5, #240]	@ 0xf0
 80056f2:	f043 0301 	orr.w	r3, r3, #1
 80056f6:	f8c5 30f0 	str.w	r3, [r5, #240]	@ 0xf0
 80056fa:	f7fd fb27 	bl	8002d4c <HAL_GetTick>
 80056fe:	f241 3888 	movw	r8, #5000	@ 0x1388
 8005702:	4605      	mov	r5, r0
 8005704:	4e28      	ldr	r6, [pc, #160]	@ (80057a8 <HAL_RCC_OscConfig+0x598>)
 8005706:	f8d6 30f0 	ldr.w	r3, [r6, #240]	@ 0xf0
 800570a:	079b      	lsls	r3, r3, #30
 800570c:	d527      	bpl.n	800575e <HAL_RCC_OscConfig+0x54e>
 800570e:	68a3      	ldr	r3, [r4, #8]
 8005710:	f013 0f80 	tst.w	r3, #128	@ 0x80
 8005714:	f8d6 30f0 	ldr.w	r3, [r6, #240]	@ 0xf0
 8005718:	d02d      	beq.n	8005776 <HAL_RCC_OscConfig+0x566>
 800571a:	f241 3888 	movw	r8, #5000	@ 0x1388
 800571e:	f043 0380 	orr.w	r3, r3, #128	@ 0x80
 8005722:	f8c6 30f0 	str.w	r3, [r6, #240]	@ 0xf0
 8005726:	4e20      	ldr	r6, [pc, #128]	@ (80057a8 <HAL_RCC_OscConfig+0x598>)
 8005728:	f8d6 30f0 	ldr.w	r3, [r6, #240]	@ 0xf0
 800572c:	0518      	lsls	r0, r3, #20
 800572e:	d51c      	bpl.n	800576a <HAL_RCC_OscConfig+0x55a>
 8005730:	b137      	cbz	r7, 8005740 <HAL_RCC_OscConfig+0x530>
 8005732:	4a1d      	ldr	r2, [pc, #116]	@ (80057a8 <HAL_RCC_OscConfig+0x598>)
 8005734:	f8d2 3094 	ldr.w	r3, [r2, #148]	@ 0x94
 8005738:	f023 0304 	bic.w	r3, r3, #4
 800573c:	f8c2 3094 	str.w	r3, [r2, #148]	@ 0x94
 8005740:	6823      	ldr	r3, [r4, #0]
 8005742:	0699      	lsls	r1, r3, #26
 8005744:	d434      	bmi.n	80057b0 <HAL_RCC_OscConfig+0x5a0>
 8005746:	6823      	ldr	r3, [r4, #0]
 8005748:	061a      	lsls	r2, r3, #24
 800574a:	d454      	bmi.n	80057f6 <HAL_RCC_OscConfig+0x5e6>
 800574c:	6823      	ldr	r3, [r4, #0]
 800574e:	0658      	lsls	r0, r3, #25
 8005750:	d474      	bmi.n	800583c <HAL_RCC_OscConfig+0x62c>
 8005752:	6ba1      	ldr	r1, [r4, #56]	@ 0x38
 8005754:	2900      	cmp	r1, #0
 8005756:	f040 80c1 	bne.w	80058dc <HAL_RCC_OscConfig+0x6cc>
 800575a:	2000      	movs	r0, #0
 800575c:	e5a6      	b.n	80052ac <HAL_RCC_OscConfig+0x9c>
 800575e:	f7fd faf5 	bl	8002d4c <HAL_GetTick>
 8005762:	1b40      	subs	r0, r0, r5
 8005764:	4540      	cmp	r0, r8
 8005766:	d9ce      	bls.n	8005706 <HAL_RCC_OscConfig+0x4f6>
 8005768:	e63e      	b.n	80053e8 <HAL_RCC_OscConfig+0x1d8>
 800576a:	f7fd faef 	bl	8002d4c <HAL_GetTick>
 800576e:	1b40      	subs	r0, r0, r5
 8005770:	4540      	cmp	r0, r8
 8005772:	d9d9      	bls.n	8005728 <HAL_RCC_OscConfig+0x518>
 8005774:	e638      	b.n	80053e8 <HAL_RCC_OscConfig+0x1d8>
 8005776:	f241 3888 	movw	r8, #5000	@ 0x1388
 800577a:	f023 0380 	bic.w	r3, r3, #128	@ 0x80
 800577e:	f8c6 30f0 	str.w	r3, [r6, #240]	@ 0xf0
 8005782:	4e09      	ldr	r6, [pc, #36]	@ (80057a8 <HAL_RCC_OscConfig+0x598>)
 8005784:	f8d6 30f0 	ldr.w	r3, [r6, #240]	@ 0xf0
 8005788:	0519      	lsls	r1, r3, #20
 800578a:	d5d1      	bpl.n	8005730 <HAL_RCC_OscConfig+0x520>
 800578c:	f7fd fade 	bl	8002d4c <HAL_GetTick>
 8005790:	1b40      	subs	r0, r0, r5
 8005792:	4540      	cmp	r0, r8
 8005794:	d9f6      	bls.n	8005784 <HAL_RCC_OscConfig+0x574>
 8005796:	e627      	b.n	80053e8 <HAL_RCC_OscConfig+0x1d8>
 8005798:	f7fd fad8 	bl	8002d4c <HAL_GetTick>
 800579c:	1b80      	subs	r0, r0, r6
 800579e:	4540      	cmp	r0, r8
 80057a0:	f67f af55 	bls.w	800564e <HAL_RCC_OscConfig+0x43e>
 80057a4:	e620      	b.n	80053e8 <HAL_RCC_OscConfig+0x1d8>
 80057a6:	bf00      	nop
 80057a8:	46020c00 	.word	0x46020c00
 80057ac:	46020800 	.word	0x46020800
 80057b0:	6ae3      	ldr	r3, [r4, #44]	@ 0x2c
 80057b2:	4d9b      	ldr	r5, [pc, #620]	@ (8005a20 <HAL_RCC_OscConfig+0x810>)
 80057b4:	b17b      	cbz	r3, 80057d6 <HAL_RCC_OscConfig+0x5c6>
 80057b6:	682b      	ldr	r3, [r5, #0]
 80057b8:	f443 5380 	orr.w	r3, r3, #4096	@ 0x1000
 80057bc:	602b      	str	r3, [r5, #0]
 80057be:	f7fd fac5 	bl	8002d4c <HAL_GetTick>
 80057c2:	4606      	mov	r6, r0
 80057c4:	682b      	ldr	r3, [r5, #0]
 80057c6:	049b      	lsls	r3, r3, #18
 80057c8:	d4bd      	bmi.n	8005746 <HAL_RCC_OscConfig+0x536>
 80057ca:	f7fd fabf 	bl	8002d4c <HAL_GetTick>
 80057ce:	1b80      	subs	r0, r0, r6
 80057d0:	2802      	cmp	r0, #2
 80057d2:	d9f7      	bls.n	80057c4 <HAL_RCC_OscConfig+0x5b4>
 80057d4:	e608      	b.n	80053e8 <HAL_RCC_OscConfig+0x1d8>
 80057d6:	682b      	ldr	r3, [r5, #0]
 80057d8:	f423 5380 	bic.w	r3, r3, #4096	@ 0x1000
 80057dc:	602b      	str	r3, [r5, #0]
 80057de:	f7fd fab5 	bl	8002d4c <HAL_GetTick>
 80057e2:	4606      	mov	r6, r0
 80057e4:	682b      	ldr	r3, [r5, #0]
 80057e6:	049f      	lsls	r7, r3, #18
 80057e8:	d5ad      	bpl.n	8005746 <HAL_RCC_OscConfig+0x536>
 80057ea:	f7fd faaf 	bl	8002d4c <HAL_GetTick>
 80057ee:	1b80      	subs	r0, r0, r6
 80057f0:	2802      	cmp	r0, #2
 80057f2:	d9f7      	bls.n	80057e4 <HAL_RCC_OscConfig+0x5d4>
 80057f4:	e5f8      	b.n	80053e8 <HAL_RCC_OscConfig+0x1d8>
 80057f6:	6b23      	ldr	r3, [r4, #48]	@ 0x30
 80057f8:	4d89      	ldr	r5, [pc, #548]	@ (8005a20 <HAL_RCC_OscConfig+0x810>)
 80057fa:	b17b      	cbz	r3, 800581c <HAL_RCC_OscConfig+0x60c>
 80057fc:	682b      	ldr	r3, [r5, #0]
 80057fe:	f443 4380 	orr.w	r3, r3, #16384	@ 0x4000
 8005802:	602b      	str	r3, [r5, #0]
 8005804:	f7fd faa2 	bl	8002d4c <HAL_GetTick>
 8005808:	4606      	mov	r6, r0
 800580a:	682b      	ldr	r3, [r5, #0]
 800580c:	0419      	lsls	r1, r3, #16
 800580e:	d49d      	bmi.n	800574c <HAL_RCC_OscConfig+0x53c>
 8005810:	f7fd fa9c 	bl	8002d4c <HAL_GetTick>
 8005814:	1b80      	subs	r0, r0, r6
 8005816:	2802      	cmp	r0, #2
 8005818:	d9f7      	bls.n	800580a <HAL_RCC_OscConfig+0x5fa>
 800581a:	e5e5      	b.n	80053e8 <HAL_RCC_OscConfig+0x1d8>
 800581c:	682b      	ldr	r3, [r5, #0]
 800581e:	f423 4380 	bic.w	r3, r3, #16384	@ 0x4000
 8005822:	602b      	str	r3, [r5, #0]
 8005824:	f7fd fa92 	bl	8002d4c <HAL_GetTick>
 8005828:	4606      	mov	r6, r0
 800582a:	682b      	ldr	r3, [r5, #0]
 800582c:	041a      	lsls	r2, r3, #16
 800582e:	d58d      	bpl.n	800574c <HAL_RCC_OscConfig+0x53c>
 8005830:	f7fd fa8c 	bl	8002d4c <HAL_GetTick>
 8005834:	1b80      	subs	r0, r0, r6
 8005836:	2802      	cmp	r0, #2
 8005838:	d9f7      	bls.n	800582a <HAL_RCC_OscConfig+0x61a>
 800583a:	e5d5      	b.n	80053e8 <HAL_RCC_OscConfig+0x1d8>
 800583c:	6b63      	ldr	r3, [r4, #52]	@ 0x34
 800583e:	4d78      	ldr	r5, [pc, #480]	@ (8005a20 <HAL_RCC_OscConfig+0x810>)
 8005840:	2b00      	cmp	r3, #0
 8005842:	d03a      	beq.n	80058ba <HAL_RCC_OscConfig+0x6aa>
 8005844:	68ab      	ldr	r3, [r5, #8]
 8005846:	f443 0300 	orr.w	r3, r3, #8388608	@ 0x800000
 800584a:	60ab      	str	r3, [r5, #8]
 800584c:	68ab      	ldr	r3, [r5, #8]
 800584e:	6aa2      	ldr	r2, [r4, #40]	@ 0x28
 8005850:	f023 6370 	bic.w	r3, r3, #251658240	@ 0xf000000
 8005854:	4313      	orrs	r3, r2
 8005856:	60ab      	str	r3, [r5, #8]
 8005858:	e9d4 2308 	ldrd	r2, r3, [r4, #32]
 800585c:	f1b3 4f40 	cmp.w	r3, #3221225472	@ 0xc0000000
 8005860:	d316      	bcc.n	8005890 <HAL_RCC_OscConfig+0x680>
 8005862:	68eb      	ldr	r3, [r5, #12]
 8005864:	f023 031f 	bic.w	r3, r3, #31
 8005868:	4313      	orrs	r3, r2
 800586a:	60eb      	str	r3, [r5, #12]
 800586c:	4d6c      	ldr	r5, [pc, #432]	@ (8005a20 <HAL_RCC_OscConfig+0x810>)
 800586e:	682b      	ldr	r3, [r5, #0]
 8005870:	f043 0310 	orr.w	r3, r3, #16
 8005874:	602b      	str	r3, [r5, #0]
 8005876:	f7fd fa69 	bl	8002d4c <HAL_GetTick>
 800587a:	4606      	mov	r6, r0
 800587c:	682b      	ldr	r3, [r5, #0]
 800587e:	069b      	lsls	r3, r3, #26
 8005880:	f53f af67 	bmi.w	8005752 <HAL_RCC_OscConfig+0x542>
 8005884:	f7fd fa62 	bl	8002d4c <HAL_GetTick>
 8005888:	1b80      	subs	r0, r0, r6
 800588a:	2802      	cmp	r0, #2
 800588c:	d9f6      	bls.n	800587c <HAL_RCC_OscConfig+0x66c>
 800588e:	e5ab      	b.n	80053e8 <HAL_RCC_OscConfig+0x1d8>
 8005890:	2b00      	cmp	r3, #0
 8005892:	da05      	bge.n	80058a0 <HAL_RCC_OscConfig+0x690>
 8005894:	68eb      	ldr	r3, [r5, #12]
 8005896:	f423 7378 	bic.w	r3, r3, #992	@ 0x3e0
 800589a:	ea43 1342 	orr.w	r3, r3, r2, lsl #5
 800589e:	e7e4      	b.n	800586a <HAL_RCC_OscConfig+0x65a>
 80058a0:	f1b3 4f80 	cmp.w	r3, #1073741824	@ 0x40000000
 80058a4:	68eb      	ldr	r3, [r5, #12]
 80058a6:	bf2b      	itete	cs
 80058a8:	f423 43f8 	biccs.w	r3, r3, #31744	@ 0x7c00
 80058ac:	f423 2378 	biccc.w	r3, r3, #1015808	@ 0xf8000
 80058b0:	ea43 2382 	orrcs.w	r3, r3, r2, lsl #10
 80058b4:	ea43 33c2 	orrcc.w	r3, r3, r2, lsl #15
 80058b8:	e7d7      	b.n	800586a <HAL_RCC_OscConfig+0x65a>
 80058ba:	682b      	ldr	r3, [r5, #0]
 80058bc:	f023 0310 	bic.w	r3, r3, #16
 80058c0:	602b      	str	r3, [r5, #0]
 80058c2:	f7fd fa43 	bl	8002d4c <HAL_GetTick>
 80058c6:	4606      	mov	r6, r0
 80058c8:	682b      	ldr	r3, [r5, #0]
 80058ca:	069f      	lsls	r7, r3, #26
 80058cc:	f57f af41 	bpl.w	8005752 <HAL_RCC_OscConfig+0x542>
 80058d0:	f7fd fa3c 	bl	8002d4c <HAL_GetTick>
 80058d4:	1b80      	subs	r0, r0, r6
 80058d6:	2802      	cmp	r0, #2
 80058d8:	d9f6      	bls.n	80058c8 <HAL_RCC_OscConfig+0x6b8>
 80058da:	e585      	b.n	80053e8 <HAL_RCC_OscConfig+0x1d8>
 80058dc:	4d50      	ldr	r5, [pc, #320]	@ (8005a20 <HAL_RCC_OscConfig+0x810>)
 80058de:	69eb      	ldr	r3, [r5, #28]
 80058e0:	f003 030c 	and.w	r3, r3, #12
 80058e4:	2b0c      	cmp	r3, #12
 80058e6:	f000 80a1 	beq.w	8005a2c <HAL_RCC_OscConfig+0x81c>
 80058ea:	682b      	ldr	r3, [r5, #0]
 80058ec:	2902      	cmp	r1, #2
 80058ee:	f023 7380 	bic.w	r3, r3, #16777216	@ 0x1000000
 80058f2:	602b      	str	r3, [r5, #0]
 80058f4:	f040 8081 	bne.w	80059fa <HAL_RCC_OscConfig+0x7ea>
 80058f8:	f7fd fa28 	bl	8002d4c <HAL_GetTick>
 80058fc:	4606      	mov	r6, r0
 80058fe:	6829      	ldr	r1, [r5, #0]
 8005900:	f011 7100 	ands.w	r1, r1, #33554432	@ 0x2000000
 8005904:	d16d      	bne.n	80059e2 <HAL_RCC_OscConfig+0x7d2>
 8005906:	f8d5 3094 	ldr.w	r3, [r5, #148]	@ 0x94
 800590a:	075e      	lsls	r6, r3, #29
 800590c:	d40c      	bmi.n	8005928 <HAL_RCC_OscConfig+0x718>
 800590e:	2101      	movs	r1, #1
 8005910:	f8d5 3094 	ldr.w	r3, [r5, #148]	@ 0x94
 8005914:	f043 0304 	orr.w	r3, r3, #4
 8005918:	f8c5 3094 	str.w	r3, [r5, #148]	@ 0x94
 800591c:	f8d5 3094 	ldr.w	r3, [r5, #148]	@ 0x94
 8005920:	f003 0304 	and.w	r3, r3, #4
 8005924:	9303      	str	r3, [sp, #12]
 8005926:	9b03      	ldr	r3, [sp, #12]
 8005928:	4d3e      	ldr	r5, [pc, #248]	@ (8005a24 <HAL_RCC_OscConfig+0x814>)
 800592a:	68ee      	ldr	r6, [r5, #12]
 800592c:	68eb      	ldr	r3, [r5, #12]
 800592e:	f423 2380 	bic.w	r3, r3, #262144	@ 0x40000
 8005932:	60eb      	str	r3, [r5, #12]
 8005934:	4b3a      	ldr	r3, [pc, #232]	@ (8005a20 <HAL_RCC_OscConfig+0x810>)
 8005936:	6c67      	ldr	r7, [r4, #68]	@ 0x44
 8005938:	6a98      	ldr	r0, [r3, #40]	@ 0x28
 800593a:	6be2      	ldr	r2, [r4, #60]	@ 0x3c
 800593c:	f420 407f 	bic.w	r0, r0, #65280	@ 0xff00
 8005940:	433a      	orrs	r2, r7
 8005942:	f020 0003 	bic.w	r0, r0, #3
 8005946:	4302      	orrs	r2, r0
 8005948:	6c20      	ldr	r0, [r4, #64]	@ 0x40
 800594a:	3801      	subs	r0, #1
 800594c:	ea42 2200 	orr.w	r2, r2, r0, lsl #8
 8005950:	629a      	str	r2, [r3, #40]	@ 0x28
 8005952:	6ca2      	ldr	r2, [r4, #72]	@ 0x48
 8005954:	6b5f      	ldr	r7, [r3, #52]	@ 0x34
 8005956:	4834      	ldr	r0, [pc, #208]	@ (8005a28 <HAL_RCC_OscConfig+0x818>)
 8005958:	3a01      	subs	r2, #1
 800595a:	4038      	ands	r0, r7
 800595c:	f3c2 0208 	ubfx	r2, r2, #0, #9
 8005960:	4302      	orrs	r2, r0
 8005962:	6ce0      	ldr	r0, [r4, #76]	@ 0x4c
 8005964:	3801      	subs	r0, #1
 8005966:	0240      	lsls	r0, r0, #9
 8005968:	b280      	uxth	r0, r0
 800596a:	4302      	orrs	r2, r0
 800596c:	6d20      	ldr	r0, [r4, #80]	@ 0x50
 800596e:	3801      	subs	r0, #1
 8005970:	0400      	lsls	r0, r0, #16
 8005972:	f400 00fe 	and.w	r0, r0, #8323072	@ 0x7f0000
 8005976:	4302      	orrs	r2, r0
 8005978:	6d60      	ldr	r0, [r4, #84]	@ 0x54
 800597a:	3801      	subs	r0, #1
 800597c:	0600      	lsls	r0, r0, #24
 800597e:	f000 40fe 	and.w	r0, r0, #2130706432	@ 0x7f000000
 8005982:	4302      	orrs	r2, r0
 8005984:	635a      	str	r2, [r3, #52]	@ 0x34
 8005986:	6a9a      	ldr	r2, [r3, #40]	@ 0x28
 8005988:	f022 0210 	bic.w	r2, r2, #16
 800598c:	629a      	str	r2, [r3, #40]	@ 0x28
 800598e:	6de2      	ldr	r2, [r4, #92]	@ 0x5c
 8005990:	00d2      	lsls	r2, r2, #3
 8005992:	639a      	str	r2, [r3, #56]	@ 0x38
 8005994:	6a9a      	ldr	r2, [r3, #40]	@ 0x28
 8005996:	f042 0210 	orr.w	r2, r2, #16
 800599a:	629a      	str	r2, [r3, #40]	@ 0x28
 800599c:	6a9a      	ldr	r2, [r3, #40]	@ 0x28
 800599e:	6da0      	ldr	r0, [r4, #88]	@ 0x58
 80059a0:	f022 020c 	bic.w	r2, r2, #12
 80059a4:	4302      	orrs	r2, r0
 80059a6:	629a      	str	r2, [r3, #40]	@ 0x28
 80059a8:	0370      	lsls	r0, r6, #13
 80059aa:	bf42      	ittt	mi
 80059ac:	68ea      	ldrmi	r2, [r5, #12]
 80059ae:	f442 2280 	orrmi.w	r2, r2, #262144	@ 0x40000
 80059b2:	60ea      	strmi	r2, [r5, #12]
 80059b4:	b129      	cbz	r1, 80059c2 <HAL_RCC_OscConfig+0x7b2>
 80059b6:	f8d3 2094 	ldr.w	r2, [r3, #148]	@ 0x94
 80059ba:	f022 0204 	bic.w	r2, r2, #4
 80059be:	f8c3 2094 	str.w	r2, [r3, #148]	@ 0x94
 80059c2:	681a      	ldr	r2, [r3, #0]
 80059c4:	4c16      	ldr	r4, [pc, #88]	@ (8005a20 <HAL_RCC_OscConfig+0x810>)
 80059c6:	f042 7280 	orr.w	r2, r2, #16777216	@ 0x1000000
 80059ca:	601a      	str	r2, [r3, #0]
 80059cc:	f7fd f9be 	bl	8002d4c <HAL_GetTick>
 80059d0:	4605      	mov	r5, r0
 80059d2:	6823      	ldr	r3, [r4, #0]
 80059d4:	019a      	lsls	r2, r3, #6
 80059d6:	d50a      	bpl.n	80059ee <HAL_RCC_OscConfig+0x7de>
 80059d8:	6aa3      	ldr	r3, [r4, #40]	@ 0x28
 80059da:	f443 2380 	orr.w	r3, r3, #262144	@ 0x40000
 80059de:	62a3      	str	r3, [r4, #40]	@ 0x28
 80059e0:	e6bb      	b.n	800575a <HAL_RCC_OscConfig+0x54a>
 80059e2:	f7fd f9b3 	bl	8002d4c <HAL_GetTick>
 80059e6:	1b80      	subs	r0, r0, r6
 80059e8:	2802      	cmp	r0, #2
 80059ea:	d988      	bls.n	80058fe <HAL_RCC_OscConfig+0x6ee>
 80059ec:	e4fc      	b.n	80053e8 <HAL_RCC_OscConfig+0x1d8>
 80059ee:	f7fd f9ad 	bl	8002d4c <HAL_GetTick>
 80059f2:	1b40      	subs	r0, r0, r5
 80059f4:	2802      	cmp	r0, #2
 80059f6:	d9ec      	bls.n	80059d2 <HAL_RCC_OscConfig+0x7c2>
 80059f8:	e4f6      	b.n	80053e8 <HAL_RCC_OscConfig+0x1d8>
 80059fa:	f7fd f9a7 	bl	8002d4c <HAL_GetTick>
 80059fe:	4604      	mov	r4, r0
 8005a00:	682b      	ldr	r3, [r5, #0]
 8005a02:	019b      	lsls	r3, r3, #6
 8005a04:	d406      	bmi.n	8005a14 <HAL_RCC_OscConfig+0x804>
 8005a06:	6aab      	ldr	r3, [r5, #40]	@ 0x28
 8005a08:	f423 23e0 	bic.w	r3, r3, #458752	@ 0x70000
 8005a0c:	f023 0303 	bic.w	r3, r3, #3
 8005a10:	62ab      	str	r3, [r5, #40]	@ 0x28
 8005a12:	e6a2      	b.n	800575a <HAL_RCC_OscConfig+0x54a>
 8005a14:	f7fd f99a 	bl	8002d4c <HAL_GetTick>
 8005a18:	1b00      	subs	r0, r0, r4
 8005a1a:	2802      	cmp	r0, #2
 8005a1c:	d9f0      	bls.n	8005a00 <HAL_RCC_OscConfig+0x7f0>
 8005a1e:	e4e3      	b.n	80053e8 <HAL_RCC_OscConfig+0x1d8>
 8005a20:	46020c00 	.word	0x46020c00
 8005a24:	46020800 	.word	0x46020800
 8005a28:	80800000 	.word	0x80800000
 8005a2c:	2901      	cmp	r1, #1
 8005a2e:	6aaa      	ldr	r2, [r5, #40]	@ 0x28
 8005a30:	6b6b      	ldr	r3, [r5, #52]	@ 0x34
 8005a32:	f43f ac2c 	beq.w	800528e <HAL_RCC_OscConfig+0x7e>
 8005a36:	6be0      	ldr	r0, [r4, #60]	@ 0x3c
 8005a38:	f002 0103 	and.w	r1, r2, #3
 8005a3c:	4281      	cmp	r1, r0
 8005a3e:	f47f ac26 	bne.w	800528e <HAL_RCC_OscConfig+0x7e>
 8005a42:	6c21      	ldr	r1, [r4, #64]	@ 0x40
 8005a44:	f3c2 2003 	ubfx	r0, r2, #8, #4
 8005a48:	3901      	subs	r1, #1
 8005a4a:	4288      	cmp	r0, r1
 8005a4c:	f47f ac1f 	bne.w	800528e <HAL_RCC_OscConfig+0x7e>
 8005a50:	6c61      	ldr	r1, [r4, #68]	@ 0x44
 8005a52:	f402 4270 	and.w	r2, r2, #61440	@ 0xf000
 8005a56:	428a      	cmp	r2, r1
 8005a58:	f47f ac19 	bne.w	800528e <HAL_RCC_OscConfig+0x7e>
 8005a5c:	6ca2      	ldr	r2, [r4, #72]	@ 0x48
 8005a5e:	f3c3 0108 	ubfx	r1, r3, #0, #9
 8005a62:	3a01      	subs	r2, #1
 8005a64:	4291      	cmp	r1, r2
 8005a66:	f47f ac12 	bne.w	800528e <HAL_RCC_OscConfig+0x7e>
 8005a6a:	6ce2      	ldr	r2, [r4, #76]	@ 0x4c
 8005a6c:	f3c3 2146 	ubfx	r1, r3, #9, #7
 8005a70:	3a01      	subs	r2, #1
 8005a72:	4291      	cmp	r1, r2
 8005a74:	f47f ac0b 	bne.w	800528e <HAL_RCC_OscConfig+0x7e>
 8005a78:	6d22      	ldr	r2, [r4, #80]	@ 0x50
 8005a7a:	f3c3 4106 	ubfx	r1, r3, #16, #7
 8005a7e:	3a01      	subs	r2, #1
 8005a80:	4291      	cmp	r1, r2
 8005a82:	f47f ac04 	bne.w	800528e <HAL_RCC_OscConfig+0x7e>
 8005a86:	6d62      	ldr	r2, [r4, #84]	@ 0x54
 8005a88:	f3c3 6306 	ubfx	r3, r3, #24, #7
 8005a8c:	3a01      	subs	r2, #1
 8005a8e:	4293      	cmp	r3, r2
 8005a90:	f47f abfd 	bne.w	800528e <HAL_RCC_OscConfig+0x7e>
 8005a94:	4b0d      	ldr	r3, [pc, #52]	@ (8005acc <HAL_RCC_OscConfig+0x8bc>)
 8005a96:	6de1      	ldr	r1, [r4, #92]	@ 0x5c
 8005a98:	6b9a      	ldr	r2, [r3, #56]	@ 0x38
 8005a9a:	f3c2 02cc 	ubfx	r2, r2, #3, #13
 8005a9e:	428a      	cmp	r2, r1
 8005aa0:	f43f ae5b 	beq.w	800575a <HAL_RCC_OscConfig+0x54a>
 8005aa4:	6a9a      	ldr	r2, [r3, #40]	@ 0x28
 8005aa6:	f022 0210 	bic.w	r2, r2, #16
 8005aaa:	629a      	str	r2, [r3, #40]	@ 0x28
 8005aac:	f7fd f94e 	bl	8002d4c <HAL_GetTick>
 8005ab0:	4605      	mov	r5, r0
 8005ab2:	f7fd f94b 	bl	8002d4c <HAL_GetTick>
 8005ab6:	42a8      	cmp	r0, r5
 8005ab8:	d0fb      	beq.n	8005ab2 <HAL_RCC_OscConfig+0x8a2>
 8005aba:	6de2      	ldr	r2, [r4, #92]	@ 0x5c
 8005abc:	4b03      	ldr	r3, [pc, #12]	@ (8005acc <HAL_RCC_OscConfig+0x8bc>)
 8005abe:	00d2      	lsls	r2, r2, #3
 8005ac0:	639a      	str	r2, [r3, #56]	@ 0x38
 8005ac2:	6a9a      	ldr	r2, [r3, #40]	@ 0x28
 8005ac4:	f042 0210 	orr.w	r2, r2, #16
 8005ac8:	629a      	str	r2, [r3, #40]	@ 0x28
 8005aca:	e646      	b.n	800575a <HAL_RCC_OscConfig+0x54a>
 8005acc:	46020c00 	.word	0x46020c00

08005ad0 <RCCEx_PLL3_Config>:
 8005ad0:	b570      	push	{r4, r5, r6, lr}
 8005ad2:	4c33      	ldr	r4, [pc, #204]	@ (8005ba0 <RCCEx_PLL3_Config+0xd0>)
 8005ad4:	4605      	mov	r5, r0
 8005ad6:	6823      	ldr	r3, [r4, #0]
 8005ad8:	f023 5380 	bic.w	r3, r3, #268435456	@ 0x10000000
 8005adc:	6023      	str	r3, [r4, #0]
 8005ade:	f7fd f935 	bl	8002d4c <HAL_GetTick>
 8005ae2:	4606      	mov	r6, r0
 8005ae4:	6823      	ldr	r3, [r4, #0]
 8005ae6:	009a      	lsls	r2, r3, #2
 8005ae8:	d44d      	bmi.n	8005b86 <RCCEx_PLL3_Config+0xb6>
 8005aea:	6b23      	ldr	r3, [r4, #48]	@ 0x30
 8005aec:	6829      	ldr	r1, [r5, #0]
 8005aee:	686a      	ldr	r2, [r5, #4]
 8005af0:	f423 6370 	bic.w	r3, r3, #3840	@ 0xf00
 8005af4:	f023 0303 	bic.w	r3, r3, #3
 8005af8:	3a01      	subs	r2, #1
 8005afa:	430b      	orrs	r3, r1
 8005afc:	ea43 2302 	orr.w	r3, r3, r2, lsl #8
 8005b00:	6323      	str	r3, [r4, #48]	@ 0x30
 8005b02:	68ab      	ldr	r3, [r5, #8]
 8005b04:	6c61      	ldr	r1, [r4, #68]	@ 0x44
 8005b06:	4a27      	ldr	r2, [pc, #156]	@ (8005ba4 <RCCEx_PLL3_Config+0xd4>)
 8005b08:	3b01      	subs	r3, #1
 8005b0a:	400a      	ands	r2, r1
 8005b0c:	f3c3 0308 	ubfx	r3, r3, #0, #9
 8005b10:	4313      	orrs	r3, r2
 8005b12:	68ea      	ldr	r2, [r5, #12]
 8005b14:	3a01      	subs	r2, #1
 8005b16:	0252      	lsls	r2, r2, #9
 8005b18:	b292      	uxth	r2, r2
 8005b1a:	4313      	orrs	r3, r2
 8005b1c:	692a      	ldr	r2, [r5, #16]
 8005b1e:	3a01      	subs	r2, #1
 8005b20:	0412      	lsls	r2, r2, #16
 8005b22:	f402 02fe 	and.w	r2, r2, #8323072	@ 0x7f0000
 8005b26:	4313      	orrs	r3, r2
 8005b28:	696a      	ldr	r2, [r5, #20]
 8005b2a:	3a01      	subs	r2, #1
 8005b2c:	0612      	lsls	r2, r2, #24
 8005b2e:	f002 42fe 	and.w	r2, r2, #2130706432	@ 0x7f000000
 8005b32:	4313      	orrs	r3, r2
 8005b34:	6463      	str	r3, [r4, #68]	@ 0x44
 8005b36:	6b23      	ldr	r3, [r4, #48]	@ 0x30
 8005b38:	69aa      	ldr	r2, [r5, #24]
 8005b3a:	f023 030c 	bic.w	r3, r3, #12
 8005b3e:	4313      	orrs	r3, r2
 8005b40:	6323      	str	r3, [r4, #48]	@ 0x30
 8005b42:	6b23      	ldr	r3, [r4, #48]	@ 0x30
 8005b44:	6a2a      	ldr	r2, [r5, #32]
 8005b46:	4313      	orrs	r3, r2
 8005b48:	6323      	str	r3, [r4, #48]	@ 0x30
 8005b4a:	6b23      	ldr	r3, [r4, #48]	@ 0x30
 8005b4c:	f023 0310 	bic.w	r3, r3, #16
 8005b50:	6323      	str	r3, [r4, #48]	@ 0x30
 8005b52:	6ca3      	ldr	r3, [r4, #72]	@ 0x48
 8005b54:	69ea      	ldr	r2, [r5, #28]
 8005b56:	f423 437f 	bic.w	r3, r3, #65280	@ 0xff00
 8005b5a:	f023 03f8 	bic.w	r3, r3, #248	@ 0xf8
 8005b5e:	ea43 03c2 	orr.w	r3, r3, r2, lsl #3
 8005b62:	64a3      	str	r3, [r4, #72]	@ 0x48
 8005b64:	6b23      	ldr	r3, [r4, #48]	@ 0x30
 8005b66:	4d0e      	ldr	r5, [pc, #56]	@ (8005ba0 <RCCEx_PLL3_Config+0xd0>)
 8005b68:	f043 0310 	orr.w	r3, r3, #16
 8005b6c:	6323      	str	r3, [r4, #48]	@ 0x30
 8005b6e:	6823      	ldr	r3, [r4, #0]
 8005b70:	f043 5380 	orr.w	r3, r3, #268435456	@ 0x10000000
 8005b74:	6023      	str	r3, [r4, #0]
 8005b76:	f7fd f8e9 	bl	8002d4c <HAL_GetTick>
 8005b7a:	4604      	mov	r4, r0
 8005b7c:	682b      	ldr	r3, [r5, #0]
 8005b7e:	009b      	lsls	r3, r3, #2
 8005b80:	d508      	bpl.n	8005b94 <RCCEx_PLL3_Config+0xc4>
 8005b82:	2000      	movs	r0, #0
 8005b84:	e005      	b.n	8005b92 <RCCEx_PLL3_Config+0xc2>
 8005b86:	f7fd f8e1 	bl	8002d4c <HAL_GetTick>
 8005b8a:	1b80      	subs	r0, r0, r6
 8005b8c:	2802      	cmp	r0, #2
 8005b8e:	d9a9      	bls.n	8005ae4 <RCCEx_PLL3_Config+0x14>
 8005b90:	2003      	movs	r0, #3
 8005b92:	bd70      	pop	{r4, r5, r6, pc}
 8005b94:	f7fd f8da 	bl	8002d4c <HAL_GetTick>
 8005b98:	1b00      	subs	r0, r0, r4
 8005b9a:	2802      	cmp	r0, #2
 8005b9c:	d9ee      	bls.n	8005b7c <RCCEx_PLL3_Config+0xac>
 8005b9e:	e7f7      	b.n	8005b90 <RCCEx_PLL3_Config+0xc0>
 8005ba0:	46020c00 	.word	0x46020c00
 8005ba4:	80800000 	.word	0x80800000

08005ba8 <RCCEx_PLL2_Config>:
 8005ba8:	b570      	push	{r4, r5, r6, lr}
 8005baa:	4c33      	ldr	r4, [pc, #204]	@ (8005c78 <RCCEx_PLL2_Config+0xd0>)
 8005bac:	4605      	mov	r5, r0
 8005bae:	6823      	ldr	r3, [r4, #0]
 8005bb0:	f023 6380 	bic.w	r3, r3, #67108864	@ 0x4000000
 8005bb4:	6023      	str	r3, [r4, #0]
 8005bb6:	f7fd f8c9 	bl	8002d4c <HAL_GetTick>
 8005bba:	4606      	mov	r6, r0
 8005bbc:	6823      	ldr	r3, [r4, #0]
 8005bbe:	011a      	lsls	r2, r3, #4
 8005bc0:	d44d      	bmi.n	8005c5e <RCCEx_PLL2_Config+0xb6>
 8005bc2:	6ae3      	ldr	r3, [r4, #44]	@ 0x2c
 8005bc4:	6829      	ldr	r1, [r5, #0]
 8005bc6:	686a      	ldr	r2, [r5, #4]
 8005bc8:	f423 6370 	bic.w	r3, r3, #3840	@ 0xf00
 8005bcc:	f023 0303 	bic.w	r3, r3, #3
 8005bd0:	3a01      	subs	r2, #1
 8005bd2:	430b      	orrs	r3, r1
 8005bd4:	ea43 2302 	orr.w	r3, r3, r2, lsl #8
 8005bd8:	62e3      	str	r3, [r4, #44]	@ 0x2c
 8005bda:	68ab      	ldr	r3, [r5, #8]
 8005bdc:	6be1      	ldr	r1, [r4, #60]	@ 0x3c
 8005bde:	4a27      	ldr	r2, [pc, #156]	@ (8005c7c <RCCEx_PLL2_Config+0xd4>)
 8005be0:	3b01      	subs	r3, #1
 8005be2:	400a      	ands	r2, r1
 8005be4:	f3c3 0308 	ubfx	r3, r3, #0, #9
 8005be8:	4313      	orrs	r3, r2
 8005bea:	68ea      	ldr	r2, [r5, #12]
 8005bec:	3a01      	subs	r2, #1
 8005bee:	0252      	lsls	r2, r2, #9
 8005bf0:	b292      	uxth	r2, r2
 8005bf2:	4313      	orrs	r3, r2
 8005bf4:	692a      	ldr	r2, [r5, #16]
 8005bf6:	3a01      	subs	r2, #1
 8005bf8:	0412      	lsls	r2, r2, #16
 8005bfa:	f402 02fe 	and.w	r2, r2, #8323072	@ 0x7f0000
 8005bfe:	4313      	orrs	r3, r2
 8005c00:	696a      	ldr	r2, [r5, #20]
 8005c02:	3a01      	subs	r2, #1
 8005c04:	0612      	lsls	r2, r2, #24
 8005c06:	f002 42fe 	and.w	r2, r2, #2130706432	@ 0x7f000000
 8005c0a:	4313      	orrs	r3, r2
 8005c0c:	63e3      	str	r3, [r4, #60]	@ 0x3c
 8005c0e:	6ae3      	ldr	r3, [r4, #44]	@ 0x2c
 8005c10:	69aa      	ldr	r2, [r5, #24]
 8005c12:	f023 030c 	bic.w	r3, r3, #12
 8005c16:	4313      	orrs	r3, r2
 8005c18:	62e3      	str	r3, [r4, #44]	@ 0x2c
 8005c1a:	6ae3      	ldr	r3, [r4, #44]	@ 0x2c
 8005c1c:	6a2a      	ldr	r2, [r5, #32]
 8005c1e:	4313      	orrs	r3, r2
 8005c20:	62e3      	str	r3, [r4, #44]	@ 0x2c
 8005c22:	6ae3      	ldr	r3, [r4, #44]	@ 0x2c
 8005c24:	f023 0310 	bic.w	r3, r3, #16
 8005c28:	62e3      	str	r3, [r4, #44]	@ 0x2c
 8005c2a:	6c23      	ldr	r3, [r4, #64]	@ 0x40
 8005c2c:	69ea      	ldr	r2, [r5, #28]
 8005c2e:	f423 437f 	bic.w	r3, r3, #65280	@ 0xff00
 8005c32:	f023 03f8 	bic.w	r3, r3, #248	@ 0xf8
 8005c36:	ea43 03c2 	orr.w	r3, r3, r2, lsl #3
 8005c3a:	6423      	str	r3, [r4, #64]	@ 0x40
 8005c3c:	6ae3      	ldr	r3, [r4, #44]	@ 0x2c
 8005c3e:	4d0e      	ldr	r5, [pc, #56]	@ (8005c78 <RCCEx_PLL2_Config+0xd0>)
 8005c40:	f043 0310 	orr.w	r3, r3, #16
 8005c44:	62e3      	str	r3, [r4, #44]	@ 0x2c
 8005c46:	6823      	ldr	r3, [r4, #0]
 8005c48:	f043 6380 	orr.w	r3, r3, #67108864	@ 0x4000000
 8005c4c:	6023      	str	r3, [r4, #0]
 8005c4e:	f7fd f87d 	bl	8002d4c <HAL_GetTick>
 8005c52:	4604      	mov	r4, r0
 8005c54:	682b      	ldr	r3, [r5, #0]
 8005c56:	011b      	lsls	r3, r3, #4
 8005c58:	d508      	bpl.n	8005c6c <RCCEx_PLL2_Config+0xc4>
 8005c5a:	2000      	movs	r0, #0
 8005c5c:	e005      	b.n	8005c6a <RCCEx_PLL2_Config+0xc2>
 8005c5e:	f7fd f875 	bl	8002d4c <HAL_GetTick>
 8005c62:	1b80      	subs	r0, r0, r6
 8005c64:	2802      	cmp	r0, #2
 8005c66:	d9a9      	bls.n	8005bbc <RCCEx_PLL2_Config+0x14>
 8005c68:	2003      	movs	r0, #3
 8005c6a:	bd70      	pop	{r4, r5, r6, pc}
 8005c6c:	f7fd f86e 	bl	8002d4c <HAL_GetTick>
 8005c70:	1b00      	subs	r0, r0, r4
 8005c72:	2802      	cmp	r0, #2
 8005c74:	d9ee      	bls.n	8005c54 <RCCEx_PLL2_Config+0xac>
 8005c76:	e7f7      	b.n	8005c68 <RCCEx_PLL2_Config+0xc0>
 8005c78:	46020c00 	.word	0x46020c00
 8005c7c:	80800000 	.word	0x80800000

08005c80 <HAL_RCCEx_PeriphCLKConfig>:
 8005c80:	6803      	ldr	r3, [r0, #0]
 8005c82:	e92d 47f3 	stmdb	sp!, {r0, r1, r4, r5, r6, r7, r8, r9, sl, lr}
 8005c86:	07de      	lsls	r6, r3, #31
 8005c88:	4604      	mov	r4, r0
 8005c8a:	d508      	bpl.n	8005c9e <HAL_RCCEx_PeriphCLKConfig+0x1e>
 8005c8c:	49a6      	ldr	r1, [pc, #664]	@ (8005f28 <HAL_RCCEx_PeriphCLKConfig+0x2a8>)
 8005c8e:	6d00      	ldr	r0, [r0, #80]	@ 0x50
 8005c90:	f8d1 20e0 	ldr.w	r2, [r1, #224]	@ 0xe0
 8005c94:	f022 0203 	bic.w	r2, r2, #3
 8005c98:	4302      	orrs	r2, r0
 8005c9a:	f8c1 20e0 	str.w	r2, [r1, #224]	@ 0xe0
 8005c9e:	079d      	lsls	r5, r3, #30
 8005ca0:	d508      	bpl.n	8005cb4 <HAL_RCCEx_PeriphCLKConfig+0x34>
 8005ca2:	49a1      	ldr	r1, [pc, #644]	@ (8005f28 <HAL_RCCEx_PeriphCLKConfig+0x2a8>)
 8005ca4:	6d60      	ldr	r0, [r4, #84]	@ 0x54
 8005ca6:	f8d1 20e0 	ldr.w	r2, [r1, #224]	@ 0xe0
 8005caa:	f022 020c 	bic.w	r2, r2, #12
 8005cae:	4302      	orrs	r2, r0
 8005cb0:	f8c1 20e0 	str.w	r2, [r1, #224]	@ 0xe0
 8005cb4:	0758      	lsls	r0, r3, #29
 8005cb6:	d508      	bpl.n	8005cca <HAL_RCCEx_PeriphCLKConfig+0x4a>
 8005cb8:	499b      	ldr	r1, [pc, #620]	@ (8005f28 <HAL_RCCEx_PeriphCLKConfig+0x2a8>)
 8005cba:	6da0      	ldr	r0, [r4, #88]	@ 0x58
 8005cbc:	f8d1 20e0 	ldr.w	r2, [r1, #224]	@ 0xe0
 8005cc0:	f022 0230 	bic.w	r2, r2, #48	@ 0x30
 8005cc4:	4302      	orrs	r2, r0
 8005cc6:	f8c1 20e0 	str.w	r2, [r1, #224]	@ 0xe0
 8005cca:	0719      	lsls	r1, r3, #28
 8005ccc:	d508      	bpl.n	8005ce0 <HAL_RCCEx_PeriphCLKConfig+0x60>
 8005cce:	4996      	ldr	r1, [pc, #600]	@ (8005f28 <HAL_RCCEx_PeriphCLKConfig+0x2a8>)
 8005cd0:	6de0      	ldr	r0, [r4, #92]	@ 0x5c
 8005cd2:	f8d1 20e0 	ldr.w	r2, [r1, #224]	@ 0xe0
 8005cd6:	f022 02c0 	bic.w	r2, r2, #192	@ 0xc0
 8005cda:	4302      	orrs	r2, r0
 8005cdc:	f8c1 20e0 	str.w	r2, [r1, #224]	@ 0xe0
 8005ce0:	06da      	lsls	r2, r3, #27
 8005ce2:	d508      	bpl.n	8005cf6 <HAL_RCCEx_PeriphCLKConfig+0x76>
 8005ce4:	4990      	ldr	r1, [pc, #576]	@ (8005f28 <HAL_RCCEx_PeriphCLKConfig+0x2a8>)
 8005ce6:	6e20      	ldr	r0, [r4, #96]	@ 0x60
 8005ce8:	f8d1 20e0 	ldr.w	r2, [r1, #224]	@ 0xe0
 8005cec:	f422 7240 	bic.w	r2, r2, #768	@ 0x300
 8005cf0:	4302      	orrs	r2, r0
 8005cf2:	f8c1 20e0 	str.w	r2, [r1, #224]	@ 0xe0
 8005cf6:	069f      	lsls	r7, r3, #26
 8005cf8:	d508      	bpl.n	8005d0c <HAL_RCCEx_PeriphCLKConfig+0x8c>
 8005cfa:	498b      	ldr	r1, [pc, #556]	@ (8005f28 <HAL_RCCEx_PeriphCLKConfig+0x2a8>)
 8005cfc:	6e60      	ldr	r0, [r4, #100]	@ 0x64
 8005cfe:	f8d1 20e8 	ldr.w	r2, [r1, #232]	@ 0xe8
 8005d02:	f022 0207 	bic.w	r2, r2, #7
 8005d06:	4302      	orrs	r2, r0
 8005d08:	f8c1 20e8 	str.w	r2, [r1, #232]	@ 0xe8
 8005d0c:	065e      	lsls	r6, r3, #25
 8005d0e:	d508      	bpl.n	8005d22 <HAL_RCCEx_PeriphCLKConfig+0xa2>
 8005d10:	4985      	ldr	r1, [pc, #532]	@ (8005f28 <HAL_RCCEx_PeriphCLKConfig+0x2a8>)
 8005d12:	6ea0      	ldr	r0, [r4, #104]	@ 0x68
 8005d14:	f8d1 20e0 	ldr.w	r2, [r1, #224]	@ 0xe0
 8005d18:	f422 6240 	bic.w	r2, r2, #3072	@ 0xc00
 8005d1c:	4302      	orrs	r2, r0
 8005d1e:	f8c1 20e0 	str.w	r2, [r1, #224]	@ 0xe0
 8005d22:	061d      	lsls	r5, r3, #24
 8005d24:	d508      	bpl.n	8005d38 <HAL_RCCEx_PeriphCLKConfig+0xb8>
 8005d26:	4980      	ldr	r1, [pc, #512]	@ (8005f28 <HAL_RCCEx_PeriphCLKConfig+0x2a8>)
 8005d28:	6ee0      	ldr	r0, [r4, #108]	@ 0x6c
 8005d2a:	f8d1 20e0 	ldr.w	r2, [r1, #224]	@ 0xe0
 8005d2e:	f422 5240 	bic.w	r2, r2, #12288	@ 0x3000
 8005d32:	4302      	orrs	r2, r0
 8005d34:	f8c1 20e0 	str.w	r2, [r1, #224]	@ 0xe0
 8005d38:	05d8      	lsls	r0, r3, #23
 8005d3a:	d508      	bpl.n	8005d4e <HAL_RCCEx_PeriphCLKConfig+0xce>
 8005d3c:	497a      	ldr	r1, [pc, #488]	@ (8005f28 <HAL_RCCEx_PeriphCLKConfig+0x2a8>)
 8005d3e:	6f20      	ldr	r0, [r4, #112]	@ 0x70
 8005d40:	f8d1 20e8 	ldr.w	r2, [r1, #232]	@ 0xe8
 8005d44:	f022 02c0 	bic.w	r2, r2, #192	@ 0xc0
 8005d48:	4302      	orrs	r2, r0
 8005d4a:	f8c1 20e8 	str.w	r2, [r1, #232]	@ 0xe8
 8005d4e:	0259      	lsls	r1, r3, #9
 8005d50:	d508      	bpl.n	8005d64 <HAL_RCCEx_PeriphCLKConfig+0xe4>
 8005d52:	4975      	ldr	r1, [pc, #468]	@ (8005f28 <HAL_RCCEx_PeriphCLKConfig+0x2a8>)
 8005d54:	6f60      	ldr	r0, [r4, #116]	@ 0x74
 8005d56:	f8d1 20e0 	ldr.w	r2, [r1, #224]	@ 0xe0
 8005d5a:	f422 4240 	bic.w	r2, r2, #49152	@ 0xc000
 8005d5e:	4302      	orrs	r2, r0
 8005d60:	f8c1 20e0 	str.w	r2, [r1, #224]	@ 0xe0
 8005d64:	059a      	lsls	r2, r3, #22
 8005d66:	d508      	bpl.n	8005d7a <HAL_RCCEx_PeriphCLKConfig+0xfa>
 8005d68:	496f      	ldr	r1, [pc, #444]	@ (8005f28 <HAL_RCCEx_PeriphCLKConfig+0x2a8>)
 8005d6a:	6fa0      	ldr	r0, [r4, #120]	@ 0x78
 8005d6c:	f8d1 20e8 	ldr.w	r2, [r1, #232]	@ 0xe8
 8005d70:	f422 6240 	bic.w	r2, r2, #3072	@ 0xc00
 8005d74:	4302      	orrs	r2, r0
 8005d76:	f8c1 20e8 	str.w	r2, [r1, #232]	@ 0xe8
 8005d7a:	055f      	lsls	r7, r3, #21
 8005d7c:	d508      	bpl.n	8005d90 <HAL_RCCEx_PeriphCLKConfig+0x110>
 8005d7e:	496a      	ldr	r1, [pc, #424]	@ (8005f28 <HAL_RCCEx_PeriphCLKConfig+0x2a8>)
 8005d80:	6fe0      	ldr	r0, [r4, #124]	@ 0x7c
 8005d82:	f8d1 20e0 	ldr.w	r2, [r1, #224]	@ 0xe0
 8005d86:	f422 2240 	bic.w	r2, r2, #786432	@ 0xc0000
 8005d8a:	4302      	orrs	r2, r0
 8005d8c:	f8c1 20e0 	str.w	r2, [r1, #224]	@ 0xe0
 8005d90:	051e      	lsls	r6, r3, #20
 8005d92:	d509      	bpl.n	8005da8 <HAL_RCCEx_PeriphCLKConfig+0x128>
 8005d94:	4964      	ldr	r1, [pc, #400]	@ (8005f28 <HAL_RCCEx_PeriphCLKConfig+0x2a8>)
 8005d96:	f8d4 0080 	ldr.w	r0, [r4, #128]	@ 0x80
 8005d9a:	f8d1 20e8 	ldr.w	r2, [r1, #232]	@ 0xe8
 8005d9e:	f422 7240 	bic.w	r2, r2, #768	@ 0x300
 8005da2:	4302      	orrs	r2, r0
 8005da4:	f8c1 20e8 	str.w	r2, [r1, #232]	@ 0xe8
 8005da8:	049d      	lsls	r5, r3, #18
 8005daa:	d527      	bpl.n	8005dfc <HAL_RCCEx_PeriphCLKConfig+0x17c>
 8005dac:	f8d4 3090 	ldr.w	r3, [r4, #144]	@ 0x90
 8005db0:	2b40      	cmp	r3, #64	@ 0x40
 8005db2:	d025      	beq.n	8005e00 <HAL_RCCEx_PeriphCLKConfig+0x180>
 8005db4:	d814      	bhi.n	8005de0 <HAL_RCCEx_PeriphCLKConfig+0x160>
 8005db6:	b34b      	cbz	r3, 8005e0c <HAL_RCCEx_PeriphCLKConfig+0x18c>
 8005db8:	2b20      	cmp	r3, #32
 8005dba:	d02f      	beq.n	8005e1c <HAL_RCCEx_PeriphCLKConfig+0x19c>
 8005dbc:	2601      	movs	r6, #1
 8005dbe:	6823      	ldr	r3, [r4, #0]
 8005dc0:	0458      	lsls	r0, r3, #17
 8005dc2:	d50b      	bpl.n	8005ddc <HAL_RCCEx_PeriphCLKConfig+0x15c>
 8005dc4:	f8d4 3094 	ldr.w	r3, [r4, #148]	@ 0x94
 8005dc8:	f5b3 7f00 	cmp.w	r3, #512	@ 0x200
 8005dcc:	d058      	beq.n	8005e80 <HAL_RCCEx_PeriphCLKConfig+0x200>
 8005dce:	d82a      	bhi.n	8005e26 <HAL_RCCEx_PeriphCLKConfig+0x1a6>
 8005dd0:	2b00      	cmp	r3, #0
 8005dd2:	d05b      	beq.n	8005e8c <HAL_RCCEx_PeriphCLKConfig+0x20c>
 8005dd4:	f5b3 7f80 	cmp.w	r3, #256	@ 0x100
 8005dd8:	d05e      	beq.n	8005e98 <HAL_RCCEx_PeriphCLKConfig+0x218>
 8005dda:	2601      	movs	r6, #1
 8005ddc:	4635      	mov	r5, r6
 8005dde:	e035      	b.n	8005e4c <HAL_RCCEx_PeriphCLKConfig+0x1cc>
 8005de0:	2b60      	cmp	r3, #96	@ 0x60
 8005de2:	d001      	beq.n	8005de8 <HAL_RCCEx_PeriphCLKConfig+0x168>
 8005de4:	2b80      	cmp	r3, #128	@ 0x80
 8005de6:	d1e9      	bne.n	8005dbc <HAL_RCCEx_PeriphCLKConfig+0x13c>
 8005de8:	4a4f      	ldr	r2, [pc, #316]	@ (8005f28 <HAL_RCCEx_PeriphCLKConfig+0x2a8>)
 8005dea:	f8d4 1090 	ldr.w	r1, [r4, #144]	@ 0x90
 8005dee:	f8d2 30e4 	ldr.w	r3, [r2, #228]	@ 0xe4
 8005df2:	f023 03e0 	bic.w	r3, r3, #224	@ 0xe0
 8005df6:	430b      	orrs	r3, r1
 8005df8:	f8c2 30e4 	str.w	r3, [r2, #228]	@ 0xe4
 8005dfc:	2600      	movs	r6, #0
 8005dfe:	e7de      	b.n	8005dbe <HAL_RCCEx_PeriphCLKConfig+0x13e>
 8005e00:	4a49      	ldr	r2, [pc, #292]	@ (8005f28 <HAL_RCCEx_PeriphCLKConfig+0x2a8>)
 8005e02:	6a93      	ldr	r3, [r2, #40]	@ 0x28
 8005e04:	f443 3380 	orr.w	r3, r3, #65536	@ 0x10000
 8005e08:	6293      	str	r3, [r2, #40]	@ 0x28
 8005e0a:	e7ed      	b.n	8005de8 <HAL_RCCEx_PeriphCLKConfig+0x168>
 8005e0c:	f104 0008 	add.w	r0, r4, #8
 8005e10:	f7ff feca 	bl	8005ba8 <RCCEx_PLL2_Config>
 8005e14:	4606      	mov	r6, r0
 8005e16:	2800      	cmp	r0, #0
 8005e18:	d1d1      	bne.n	8005dbe <HAL_RCCEx_PeriphCLKConfig+0x13e>
 8005e1a:	e7e5      	b.n	8005de8 <HAL_RCCEx_PeriphCLKConfig+0x168>
 8005e1c:	f104 002c 	add.w	r0, r4, #44	@ 0x2c
 8005e20:	f7ff fe56 	bl	8005ad0 <RCCEx_PLL3_Config>
 8005e24:	e7f6      	b.n	8005e14 <HAL_RCCEx_PeriphCLKConfig+0x194>
 8005e26:	f5b3 7f40 	cmp.w	r3, #768	@ 0x300
 8005e2a:	d002      	beq.n	8005e32 <HAL_RCCEx_PeriphCLKConfig+0x1b2>
 8005e2c:	f5b3 6f80 	cmp.w	r3, #1024	@ 0x400
 8005e30:	d1d3      	bne.n	8005dda <HAL_RCCEx_PeriphCLKConfig+0x15a>
 8005e32:	4635      	mov	r5, r6
 8005e34:	2d00      	cmp	r5, #0
 8005e36:	d134      	bne.n	8005ea2 <HAL_RCCEx_PeriphCLKConfig+0x222>
 8005e38:	4a3b      	ldr	r2, [pc, #236]	@ (8005f28 <HAL_RCCEx_PeriphCLKConfig+0x2a8>)
 8005e3a:	f8d4 1094 	ldr.w	r1, [r4, #148]	@ 0x94
 8005e3e:	f8d2 30e4 	ldr.w	r3, [r2, #228]	@ 0xe4
 8005e42:	f423 63e0 	bic.w	r3, r3, #1792	@ 0x700
 8005e46:	430b      	orrs	r3, r1
 8005e48:	f8c2 30e4 	str.w	r3, [r2, #228]	@ 0xe4
 8005e4c:	6823      	ldr	r3, [r4, #0]
 8005e4e:	0419      	lsls	r1, r3, #16
 8005e50:	d50a      	bpl.n	8005e68 <HAL_RCCEx_PeriphCLKConfig+0x1e8>
 8005e52:	f8d4 30a4 	ldr.w	r3, [r4, #164]	@ 0xa4
 8005e56:	f5b3 5f00 	cmp.w	r3, #8192	@ 0x2000
 8005e5a:	d036      	beq.n	8005eca <HAL_RCCEx_PeriphCLKConfig+0x24a>
 8005e5c:	f423 5280 	bic.w	r2, r3, #4096	@ 0x1000
 8005e60:	d821      	bhi.n	8005ea6 <HAL_RCCEx_PeriphCLKConfig+0x226>
 8005e62:	b332      	cbz	r2, 8005eb2 <HAL_RCCEx_PeriphCLKConfig+0x232>
 8005e64:	2601      	movs	r6, #1
 8005e66:	4635      	mov	r5, r6
 8005e68:	6823      	ldr	r3, [r4, #0]
 8005e6a:	03da      	lsls	r2, r3, #15
 8005e6c:	d545      	bpl.n	8005efa <HAL_RCCEx_PeriphCLKConfig+0x27a>
 8005e6e:	f8d4 3088 	ldr.w	r3, [r4, #136]	@ 0x88
 8005e72:	2b04      	cmp	r3, #4
 8005e74:	d85a      	bhi.n	8005f2c <HAL_RCCEx_PeriphCLKConfig+0x2ac>
 8005e76:	e8df f003 	tbb	[pc, r3]
 8005e7a:	3035      	.short	0x3035
 8005e7c:	3551      	.short	0x3551
 8005e7e:	35          	.byte	0x35
 8005e7f:	00          	.byte	0x00
 8005e80:	4a29      	ldr	r2, [pc, #164]	@ (8005f28 <HAL_RCCEx_PeriphCLKConfig+0x2a8>)
 8005e82:	6a93      	ldr	r3, [r2, #40]	@ 0x28
 8005e84:	f443 3380 	orr.w	r3, r3, #65536	@ 0x10000
 8005e88:	6293      	str	r3, [r2, #40]	@ 0x28
 8005e8a:	e7d2      	b.n	8005e32 <HAL_RCCEx_PeriphCLKConfig+0x1b2>
 8005e8c:	f104 0008 	add.w	r0, r4, #8
 8005e90:	f7ff fe8a 	bl	8005ba8 <RCCEx_PLL2_Config>
 8005e94:	4605      	mov	r5, r0
 8005e96:	e7cd      	b.n	8005e34 <HAL_RCCEx_PeriphCLKConfig+0x1b4>
 8005e98:	f104 002c 	add.w	r0, r4, #44	@ 0x2c
 8005e9c:	f7ff fe18 	bl	8005ad0 <RCCEx_PLL3_Config>
 8005ea0:	e7f8      	b.n	8005e94 <HAL_RCCEx_PeriphCLKConfig+0x214>
 8005ea2:	462e      	mov	r6, r5
 8005ea4:	e7d2      	b.n	8005e4c <HAL_RCCEx_PeriphCLKConfig+0x1cc>
 8005ea6:	f5b2 4f80 	cmp.w	r2, #16384	@ 0x4000
 8005eaa:	d002      	beq.n	8005eb2 <HAL_RCCEx_PeriphCLKConfig+0x232>
 8005eac:	f5b3 5f40 	cmp.w	r3, #12288	@ 0x3000
 8005eb0:	d1d8      	bne.n	8005e64 <HAL_RCCEx_PeriphCLKConfig+0x1e4>
 8005eb2:	b985      	cbnz	r5, 8005ed6 <HAL_RCCEx_PeriphCLKConfig+0x256>
 8005eb4:	4a1c      	ldr	r2, [pc, #112]	@ (8005f28 <HAL_RCCEx_PeriphCLKConfig+0x2a8>)
 8005eb6:	f8d4 10a4 	ldr.w	r1, [r4, #164]	@ 0xa4
 8005eba:	f8d2 30e8 	ldr.w	r3, [r2, #232]	@ 0xe8
 8005ebe:	f423 43e0 	bic.w	r3, r3, #28672	@ 0x7000
 8005ec2:	430b      	orrs	r3, r1
 8005ec4:	f8c2 30e8 	str.w	r3, [r2, #232]	@ 0xe8
 8005ec8:	e7ce      	b.n	8005e68 <HAL_RCCEx_PeriphCLKConfig+0x1e8>
 8005eca:	f104 0008 	add.w	r0, r4, #8
 8005ece:	f7ff fe6b 	bl	8005ba8 <RCCEx_PLL2_Config>
 8005ed2:	4605      	mov	r5, r0
 8005ed4:	e7ed      	b.n	8005eb2 <HAL_RCCEx_PeriphCLKConfig+0x232>
 8005ed6:	462e      	mov	r6, r5
 8005ed8:	e7c6      	b.n	8005e68 <HAL_RCCEx_PeriphCLKConfig+0x1e8>
 8005eda:	4a13      	ldr	r2, [pc, #76]	@ (8005f28 <HAL_RCCEx_PeriphCLKConfig+0x2a8>)
 8005edc:	6a93      	ldr	r3, [r2, #40]	@ 0x28
 8005ede:	f443 3380 	orr.w	r3, r3, #65536	@ 0x10000
 8005ee2:	6293      	str	r3, [r2, #40]	@ 0x28
 8005ee4:	bb2d      	cbnz	r5, 8005f32 <HAL_RCCEx_PeriphCLKConfig+0x2b2>
 8005ee6:	4a10      	ldr	r2, [pc, #64]	@ (8005f28 <HAL_RCCEx_PeriphCLKConfig+0x2a8>)
 8005ee8:	f8d4 1088 	ldr.w	r1, [r4, #136]	@ 0x88
 8005eec:	f8d2 30e4 	ldr.w	r3, [r2, #228]	@ 0xe4
 8005ef0:	f023 0307 	bic.w	r3, r3, #7
 8005ef4:	430b      	orrs	r3, r1
 8005ef6:	f8c2 30e4 	str.w	r3, [r2, #228]	@ 0xe4
 8005efa:	6823      	ldr	r3, [r4, #0]
 8005efc:	039b      	lsls	r3, r3, #14
 8005efe:	d52c      	bpl.n	8005f5a <HAL_RCCEx_PeriphCLKConfig+0x2da>
 8005f00:	f8d4 308c 	ldr.w	r3, [r4, #140]	@ 0x8c
 8005f04:	f5b3 3f00 	cmp.w	r3, #131072	@ 0x20000
 8005f08:	f000 8080 	beq.w	800600c <HAL_RCCEx_PeriphCLKConfig+0x38c>
 8005f0c:	d813      	bhi.n	8005f36 <HAL_RCCEx_PeriphCLKConfig+0x2b6>
 8005f0e:	b1c3      	cbz	r3, 8005f42 <HAL_RCCEx_PeriphCLKConfig+0x2c2>
 8005f10:	f5b3 3f80 	cmp.w	r3, #65536	@ 0x10000
 8005f14:	d074      	beq.n	8006000 <HAL_RCCEx_PeriphCLKConfig+0x380>
 8005f16:	2601      	movs	r6, #1
 8005f18:	4635      	mov	r5, r6
 8005f1a:	e01e      	b.n	8005f5a <HAL_RCCEx_PeriphCLKConfig+0x2da>
 8005f1c:	f104 002c 	add.w	r0, r4, #44	@ 0x2c
 8005f20:	f7ff fdd6 	bl	8005ad0 <RCCEx_PLL3_Config>
 8005f24:	4605      	mov	r5, r0
 8005f26:	e7dd      	b.n	8005ee4 <HAL_RCCEx_PeriphCLKConfig+0x264>
 8005f28:	46020c00 	.word	0x46020c00
 8005f2c:	2601      	movs	r6, #1
 8005f2e:	4635      	mov	r5, r6
 8005f30:	e7e3      	b.n	8005efa <HAL_RCCEx_PeriphCLKConfig+0x27a>
 8005f32:	462e      	mov	r6, r5
 8005f34:	e7e1      	b.n	8005efa <HAL_RCCEx_PeriphCLKConfig+0x27a>
 8005f36:	f5b3 3f40 	cmp.w	r3, #196608	@ 0x30000
 8005f3a:	d002      	beq.n	8005f42 <HAL_RCCEx_PeriphCLKConfig+0x2c2>
 8005f3c:	f5b3 2f80 	cmp.w	r3, #262144	@ 0x40000
 8005f40:	d1e9      	bne.n	8005f16 <HAL_RCCEx_PeriphCLKConfig+0x296>
 8005f42:	2d00      	cmp	r5, #0
 8005f44:	d168      	bne.n	8006018 <HAL_RCCEx_PeriphCLKConfig+0x398>
 8005f46:	4ab5      	ldr	r2, [pc, #724]	@ (800621c <HAL_RCCEx_PeriphCLKConfig+0x59c>)
 8005f48:	f8d4 108c 	ldr.w	r1, [r4, #140]	@ 0x8c
 8005f4c:	f8d2 30e8 	ldr.w	r3, [r2, #232]	@ 0xe8
 8005f50:	f423 23e0 	bic.w	r3, r3, #458752	@ 0x70000
 8005f54:	430b      	orrs	r3, r1
 8005f56:	f8c2 30e8 	str.w	r3, [r2, #232]	@ 0xe8
 8005f5a:	6823      	ldr	r3, [r4, #0]
 8005f5c:	035f      	lsls	r7, r3, #13
 8005f5e:	d53c      	bpl.n	8005fda <HAL_RCCEx_PeriphCLKConfig+0x35a>
 8005f60:	4bae      	ldr	r3, [pc, #696]	@ (800621c <HAL_RCCEx_PeriphCLKConfig+0x59c>)
 8005f62:	f8d3 2094 	ldr.w	r2, [r3, #148]	@ 0x94
 8005f66:	0750      	lsls	r0, r2, #29
 8005f68:	d458      	bmi.n	800601c <HAL_RCCEx_PeriphCLKConfig+0x39c>
 8005f6a:	2701      	movs	r7, #1
 8005f6c:	f8d3 2094 	ldr.w	r2, [r3, #148]	@ 0x94
 8005f70:	f042 0204 	orr.w	r2, r2, #4
 8005f74:	f8c3 2094 	str.w	r2, [r3, #148]	@ 0x94
 8005f78:	f8d3 3094 	ldr.w	r3, [r3, #148]	@ 0x94
 8005f7c:	f003 0304 	and.w	r3, r3, #4
 8005f80:	9301      	str	r3, [sp, #4]
 8005f82:	9b01      	ldr	r3, [sp, #4]
 8005f84:	f8df 8298 	ldr.w	r8, [pc, #664]	@ 8006220 <HAL_RCCEx_PeriphCLKConfig+0x5a0>
 8005f88:	f8d8 3028 	ldr.w	r3, [r8, #40]	@ 0x28
 8005f8c:	f043 0301 	orr.w	r3, r3, #1
 8005f90:	f8c8 3028 	str.w	r3, [r8, #40]	@ 0x28
 8005f94:	f7fc feda 	bl	8002d4c <HAL_GetTick>
 8005f98:	4681      	mov	r9, r0
 8005f9a:	f8d8 3028 	ldr.w	r3, [r8, #40]	@ 0x28
 8005f9e:	07d9      	lsls	r1, r3, #31
 8005fa0:	d53e      	bpl.n	8006020 <HAL_RCCEx_PeriphCLKConfig+0x3a0>
 8005fa2:	2d00      	cmp	r5, #0
 8005fa4:	d16d      	bne.n	8006082 <HAL_RCCEx_PeriphCLKConfig+0x402>
 8005fa6:	4b9d      	ldr	r3, [pc, #628]	@ (800621c <HAL_RCCEx_PeriphCLKConfig+0x59c>)
 8005fa8:	f8d4 20bc 	ldr.w	r2, [r4, #188]	@ 0xbc
 8005fac:	f8d3 10f0 	ldr.w	r1, [r3, #240]	@ 0xf0
 8005fb0:	f411 7140 	ands.w	r1, r1, #768	@ 0x300
 8005fb4:	d13d      	bne.n	8006032 <HAL_RCCEx_PeriphCLKConfig+0x3b2>
 8005fb6:	4a99      	ldr	r2, [pc, #612]	@ (800621c <HAL_RCCEx_PeriphCLKConfig+0x59c>)
 8005fb8:	f8d4 10bc 	ldr.w	r1, [r4, #188]	@ 0xbc
 8005fbc:	f8d2 30f0 	ldr.w	r3, [r2, #240]	@ 0xf0
 8005fc0:	f423 7340 	bic.w	r3, r3, #768	@ 0x300
 8005fc4:	430b      	orrs	r3, r1
 8005fc6:	f8c2 30f0 	str.w	r3, [r2, #240]	@ 0xf0
 8005fca:	b137      	cbz	r7, 8005fda <HAL_RCCEx_PeriphCLKConfig+0x35a>
 8005fcc:	4a93      	ldr	r2, [pc, #588]	@ (800621c <HAL_RCCEx_PeriphCLKConfig+0x59c>)
 8005fce:	f8d2 3094 	ldr.w	r3, [r2, #148]	@ 0x94
 8005fd2:	f023 0304 	bic.w	r3, r3, #4
 8005fd6:	f8c2 3094 	str.w	r3, [r2, #148]	@ 0x94
 8005fda:	6823      	ldr	r3, [r4, #0]
 8005fdc:	02df      	lsls	r7, r3, #11
 8005fde:	d562      	bpl.n	80060a6 <HAL_RCCEx_PeriphCLKConfig+0x426>
 8005fe0:	f8d4 309c 	ldr.w	r3, [r4, #156]	@ 0x9c
 8005fe4:	f1b3 6f00 	cmp.w	r3, #134217728	@ 0x8000000
 8005fe8:	f000 80e7 	beq.w	80061ba <HAL_RCCEx_PeriphCLKConfig+0x53a>
 8005fec:	d84b      	bhi.n	8006086 <HAL_RCCEx_PeriphCLKConfig+0x406>
 8005fee:	2b00      	cmp	r3, #0
 8005ff0:	d04c      	beq.n	800608c <HAL_RCCEx_PeriphCLKConfig+0x40c>
 8005ff2:	f1b3 6f80 	cmp.w	r3, #67108864	@ 0x4000000
 8005ff6:	f000 80da 	beq.w	80061ae <HAL_RCCEx_PeriphCLKConfig+0x52e>
 8005ffa:	2601      	movs	r6, #1
 8005ffc:	4635      	mov	r5, r6
 8005ffe:	e052      	b.n	80060a6 <HAL_RCCEx_PeriphCLKConfig+0x426>
 8006000:	4a86      	ldr	r2, [pc, #536]	@ (800621c <HAL_RCCEx_PeriphCLKConfig+0x59c>)
 8006002:	6a93      	ldr	r3, [r2, #40]	@ 0x28
 8006004:	f443 3380 	orr.w	r3, r3, #65536	@ 0x10000
 8006008:	6293      	str	r3, [r2, #40]	@ 0x28
 800600a:	e79a      	b.n	8005f42 <HAL_RCCEx_PeriphCLKConfig+0x2c2>
 800600c:	f104 002c 	add.w	r0, r4, #44	@ 0x2c
 8006010:	f7ff fd5e 	bl	8005ad0 <RCCEx_PLL3_Config>
 8006014:	4605      	mov	r5, r0
 8006016:	e794      	b.n	8005f42 <HAL_RCCEx_PeriphCLKConfig+0x2c2>
 8006018:	462e      	mov	r6, r5
 800601a:	e79e      	b.n	8005f5a <HAL_RCCEx_PeriphCLKConfig+0x2da>
 800601c:	2700      	movs	r7, #0
 800601e:	e7b1      	b.n	8005f84 <HAL_RCCEx_PeriphCLKConfig+0x304>
 8006020:	f7fc fe94 	bl	8002d4c <HAL_GetTick>
 8006024:	eba0 0009 	sub.w	r0, r0, r9
 8006028:	2802      	cmp	r0, #2
 800602a:	d9b6      	bls.n	8005f9a <HAL_RCCEx_PeriphCLKConfig+0x31a>
 800602c:	2603      	movs	r6, #3
 800602e:	4635      	mov	r5, r6
 8006030:	e7cb      	b.n	8005fca <HAL_RCCEx_PeriphCLKConfig+0x34a>
 8006032:	4291      	cmp	r1, r2
 8006034:	d011      	beq.n	800605a <HAL_RCCEx_PeriphCLKConfig+0x3da>
 8006036:	f8d3 20f0 	ldr.w	r2, [r3, #240]	@ 0xf0
 800603a:	f8d3 10f0 	ldr.w	r1, [r3, #240]	@ 0xf0
 800603e:	f422 7240 	bic.w	r2, r2, #768	@ 0x300
 8006042:	f441 3180 	orr.w	r1, r1, #65536	@ 0x10000
 8006046:	f8c3 10f0 	str.w	r1, [r3, #240]	@ 0xf0
 800604a:	f8d3 10f0 	ldr.w	r1, [r3, #240]	@ 0xf0
 800604e:	f421 3180 	bic.w	r1, r1, #65536	@ 0x10000
 8006052:	f8c3 10f0 	str.w	r1, [r3, #240]	@ 0xf0
 8006056:	f8c3 20f0 	str.w	r2, [r3, #240]	@ 0xf0
 800605a:	07d2      	lsls	r2, r2, #31
 800605c:	d5ab      	bpl.n	8005fb6 <HAL_RCCEx_PeriphCLKConfig+0x336>
 800605e:	f7fc fe75 	bl	8002d4c <HAL_GetTick>
 8006062:	f241 3a88 	movw	sl, #5000	@ 0x1388
 8006066:	4680      	mov	r8, r0
 8006068:	f8df 91b0 	ldr.w	r9, [pc, #432]	@ 800621c <HAL_RCCEx_PeriphCLKConfig+0x59c>
 800606c:	f8d9 30f0 	ldr.w	r3, [r9, #240]	@ 0xf0
 8006070:	079b      	lsls	r3, r3, #30
 8006072:	d4a0      	bmi.n	8005fb6 <HAL_RCCEx_PeriphCLKConfig+0x336>
 8006074:	f7fc fe6a 	bl	8002d4c <HAL_GetTick>
 8006078:	eba0 0008 	sub.w	r0, r0, r8
 800607c:	4550      	cmp	r0, sl
 800607e:	d9f5      	bls.n	800606c <HAL_RCCEx_PeriphCLKConfig+0x3ec>
 8006080:	e7d4      	b.n	800602c <HAL_RCCEx_PeriphCLKConfig+0x3ac>
 8006082:	462e      	mov	r6, r5
 8006084:	e7a1      	b.n	8005fca <HAL_RCCEx_PeriphCLKConfig+0x34a>
 8006086:	f1b3 6f40 	cmp.w	r3, #201326592	@ 0xc000000
 800608a:	d1b6      	bne.n	8005ffa <HAL_RCCEx_PeriphCLKConfig+0x37a>
 800608c:	2d00      	cmp	r5, #0
 800608e:	f040 809a 	bne.w	80061c6 <HAL_RCCEx_PeriphCLKConfig+0x546>
 8006092:	4a62      	ldr	r2, [pc, #392]	@ (800621c <HAL_RCCEx_PeriphCLKConfig+0x59c>)
 8006094:	f8d4 109c 	ldr.w	r1, [r4, #156]	@ 0x9c
 8006098:	f8d2 30e0 	ldr.w	r3, [r2, #224]	@ 0xe0
 800609c:	f023 6340 	bic.w	r3, r3, #201326592	@ 0xc000000
 80060a0:	430b      	orrs	r3, r1
 80060a2:	f8c2 30e0 	str.w	r3, [r2, #224]	@ 0xe0
 80060a6:	6823      	ldr	r3, [r4, #0]
 80060a8:	0318      	lsls	r0, r3, #12
 80060aa:	d513      	bpl.n	80060d4 <HAL_RCCEx_PeriphCLKConfig+0x454>
 80060ac:	f8d4 1098 	ldr.w	r1, [r4, #152]	@ 0x98
 80060b0:	f431 5280 	bics.w	r2, r1, #4096	@ 0x1000
 80060b4:	d003      	beq.n	80060be <HAL_RCCEx_PeriphCLKConfig+0x43e>
 80060b6:	f5b1 5f00 	cmp.w	r1, #8192	@ 0x2000
 80060ba:	f040 8086 	bne.w	80061ca <HAL_RCCEx_PeriphCLKConfig+0x54a>
 80060be:	2d00      	cmp	r5, #0
 80060c0:	f040 8086 	bne.w	80061d0 <HAL_RCCEx_PeriphCLKConfig+0x550>
 80060c4:	4855      	ldr	r0, [pc, #340]	@ (800621c <HAL_RCCEx_PeriphCLKConfig+0x59c>)
 80060c6:	f8d0 20e4 	ldr.w	r2, [r0, #228]	@ 0xe4
 80060ca:	f422 5240 	bic.w	r2, r2, #12288	@ 0x3000
 80060ce:	430a      	orrs	r2, r1
 80060d0:	f8c0 20e4 	str.w	r2, [r0, #228]	@ 0xe4
 80060d4:	0299      	lsls	r1, r3, #10
 80060d6:	d510      	bpl.n	80060fa <HAL_RCCEx_PeriphCLKConfig+0x47a>
 80060d8:	f8d4 00a0 	ldr.w	r0, [r4, #160]	@ 0xa0
 80060dc:	494f      	ldr	r1, [pc, #316]	@ (800621c <HAL_RCCEx_PeriphCLKConfig+0x59c>)
 80060de:	f5b0 4f80 	cmp.w	r0, #16384	@ 0x4000
 80060e2:	bf02      	ittt	eq
 80060e4:	6a8a      	ldreq	r2, [r1, #40]	@ 0x28
 80060e6:	f442 3280 	orreq.w	r2, r2, #65536	@ 0x10000
 80060ea:	628a      	streq	r2, [r1, #40]	@ 0x28
 80060ec:	f8d1 20e4 	ldr.w	r2, [r1, #228]	@ 0xe4
 80060f0:	f422 4280 	bic.w	r2, r2, #16384	@ 0x4000
 80060f4:	4302      	orrs	r2, r0
 80060f6:	f8c1 20e4 	str.w	r2, [r1, #228]	@ 0xe4
 80060fa:	021a      	lsls	r2, r3, #8
 80060fc:	d509      	bpl.n	8006112 <HAL_RCCEx_PeriphCLKConfig+0x492>
 80060fe:	4947      	ldr	r1, [pc, #284]	@ (800621c <HAL_RCCEx_PeriphCLKConfig+0x59c>)
 8006100:	f8d4 00b0 	ldr.w	r0, [r4, #176]	@ 0xb0
 8006104:	f8d1 20e0 	ldr.w	r2, [r1, #224]	@ 0xe0
 8006108:	f422 1240 	bic.w	r2, r2, #3145728	@ 0x300000
 800610c:	4302      	orrs	r2, r0
 800610e:	f8c1 20e0 	str.w	r2, [r1, #224]	@ 0xe0
 8006112:	01df      	lsls	r7, r3, #7
 8006114:	d509      	bpl.n	800612a <HAL_RCCEx_PeriphCLKConfig+0x4aa>
 8006116:	4941      	ldr	r1, [pc, #260]	@ (800621c <HAL_RCCEx_PeriphCLKConfig+0x59c>)
 8006118:	f8d4 00b4 	ldr.w	r0, [r4, #180]	@ 0xb4
 800611c:	f8d1 20e0 	ldr.w	r2, [r1, #224]	@ 0xe0
 8006120:	f422 3240 	bic.w	r2, r2, #196608	@ 0x30000
 8006124:	4302      	orrs	r2, r0
 8006126:	f8c1 20e0 	str.w	r2, [r1, #224]	@ 0xe0
 800612a:	0198      	lsls	r0, r3, #6
 800612c:	d509      	bpl.n	8006142 <HAL_RCCEx_PeriphCLKConfig+0x4c2>
 800612e:	493b      	ldr	r1, [pc, #236]	@ (800621c <HAL_RCCEx_PeriphCLKConfig+0x59c>)
 8006130:	f8d4 00b8 	ldr.w	r0, [r4, #184]	@ 0xb8
 8006134:	f8d1 20e8 	ldr.w	r2, [r1, #232]	@ 0xe8
 8006138:	f022 0218 	bic.w	r2, r2, #24
 800613c:	4302      	orrs	r2, r0
 800613e:	f8c1 20e8 	str.w	r2, [r1, #232]	@ 0xe8
 8006142:	0159      	lsls	r1, r3, #5
 8006144:	d515      	bpl.n	8006172 <HAL_RCCEx_PeriphCLKConfig+0x4f2>
 8006146:	f8d4 30ac 	ldr.w	r3, [r4, #172]	@ 0xac
 800614a:	f5b3 1f00 	cmp.w	r3, #2097152	@ 0x200000
 800614e:	d141      	bne.n	80061d4 <HAL_RCCEx_PeriphCLKConfig+0x554>
 8006150:	4a32      	ldr	r2, [pc, #200]	@ (800621c <HAL_RCCEx_PeriphCLKConfig+0x59c>)
 8006152:	6a93      	ldr	r3, [r2, #40]	@ 0x28
 8006154:	f443 3300 	orr.w	r3, r3, #131072	@ 0x20000
 8006158:	6293      	str	r3, [r2, #40]	@ 0x28
 800615a:	2d00      	cmp	r5, #0
 800615c:	d143      	bne.n	80061e6 <HAL_RCCEx_PeriphCLKConfig+0x566>
 800615e:	4a2f      	ldr	r2, [pc, #188]	@ (800621c <HAL_RCCEx_PeriphCLKConfig+0x59c>)
 8006160:	f8d4 10ac 	ldr.w	r1, [r4, #172]	@ 0xac
 8006164:	f8d2 30e4 	ldr.w	r3, [r2, #228]	@ 0xe4
 8006168:	f423 1340 	bic.w	r3, r3, #3145728	@ 0x300000
 800616c:	430b      	orrs	r3, r1
 800616e:	f8c2 30e4 	str.w	r3, [r2, #228]	@ 0xe4
 8006172:	6823      	ldr	r3, [r4, #0]
 8006174:	011a      	lsls	r2, r3, #4
 8006176:	d549      	bpl.n	800620c <HAL_RCCEx_PeriphCLKConfig+0x58c>
 8006178:	f8d4 3084 	ldr.w	r3, [r4, #132]	@ 0x84
 800617c:	f1b3 7f80 	cmp.w	r3, #16777216	@ 0x1000000
 8006180:	d033      	beq.n	80061ea <HAL_RCCEx_PeriphCLKConfig+0x56a>
 8006182:	f1b3 7f00 	cmp.w	r3, #33554432	@ 0x2000000
 8006186:	d043      	beq.n	8006210 <HAL_RCCEx_PeriphCLKConfig+0x590>
 8006188:	b3a3      	cbz	r3, 80061f4 <HAL_RCCEx_PeriphCLKConfig+0x574>
 800618a:	2501      	movs	r5, #1
 800618c:	6823      	ldr	r3, [r4, #0]
 800618e:	00db      	lsls	r3, r3, #3
 8006190:	d509      	bpl.n	80061a6 <HAL_RCCEx_PeriphCLKConfig+0x526>
 8006192:	4a22      	ldr	r2, [pc, #136]	@ (800621c <HAL_RCCEx_PeriphCLKConfig+0x59c>)
 8006194:	f8d4 10a8 	ldr.w	r1, [r4, #168]	@ 0xa8
 8006198:	f8d2 30e8 	ldr.w	r3, [r2, #232]	@ 0xe8
 800619c:	f423 4300 	bic.w	r3, r3, #32768	@ 0x8000
 80061a0:	430b      	orrs	r3, r1
 80061a2:	f8c2 30e8 	str.w	r3, [r2, #232]	@ 0xe8
 80061a6:	4628      	mov	r0, r5
 80061a8:	b002      	add	sp, #8
 80061aa:	e8bd 87f0 	ldmia.w	sp!, {r4, r5, r6, r7, r8, r9, sl, pc}
 80061ae:	f104 0008 	add.w	r0, r4, #8
 80061b2:	f7ff fcf9 	bl	8005ba8 <RCCEx_PLL2_Config>
 80061b6:	4605      	mov	r5, r0
 80061b8:	e768      	b.n	800608c <HAL_RCCEx_PeriphCLKConfig+0x40c>
 80061ba:	4a18      	ldr	r2, [pc, #96]	@ (800621c <HAL_RCCEx_PeriphCLKConfig+0x59c>)
 80061bc:	6a93      	ldr	r3, [r2, #40]	@ 0x28
 80061be:	f443 3300 	orr.w	r3, r3, #131072	@ 0x20000
 80061c2:	6293      	str	r3, [r2, #40]	@ 0x28
 80061c4:	e762      	b.n	800608c <HAL_RCCEx_PeriphCLKConfig+0x40c>
 80061c6:	462e      	mov	r6, r5
 80061c8:	e76d      	b.n	80060a6 <HAL_RCCEx_PeriphCLKConfig+0x426>
 80061ca:	2601      	movs	r6, #1
 80061cc:	4635      	mov	r5, r6
 80061ce:	e781      	b.n	80060d4 <HAL_RCCEx_PeriphCLKConfig+0x454>
 80061d0:	462e      	mov	r6, r5
 80061d2:	e77f      	b.n	80060d4 <HAL_RCCEx_PeriphCLKConfig+0x454>
 80061d4:	f5b3 1f40 	cmp.w	r3, #3145728	@ 0x300000
 80061d8:	d1bf      	bne.n	800615a <HAL_RCCEx_PeriphCLKConfig+0x4da>
 80061da:	f104 0008 	add.w	r0, r4, #8
 80061de:	f7ff fce3 	bl	8005ba8 <RCCEx_PLL2_Config>
 80061e2:	4605      	mov	r5, r0
 80061e4:	e7b9      	b.n	800615a <HAL_RCCEx_PeriphCLKConfig+0x4da>
 80061e6:	462e      	mov	r6, r5
 80061e8:	e7c3      	b.n	8006172 <HAL_RCCEx_PeriphCLKConfig+0x4f2>
 80061ea:	4a0c      	ldr	r2, [pc, #48]	@ (800621c <HAL_RCCEx_PeriphCLKConfig+0x59c>)
 80061ec:	6a93      	ldr	r3, [r2, #40]	@ 0x28
 80061ee:	f443 3300 	orr.w	r3, r3, #131072	@ 0x20000
 80061f2:	6293      	str	r3, [r2, #40]	@ 0x28
 80061f4:	2d00      	cmp	r5, #0
 80061f6:	d1c9      	bne.n	800618c <HAL_RCCEx_PeriphCLKConfig+0x50c>
 80061f8:	4a08      	ldr	r2, [pc, #32]	@ (800621c <HAL_RCCEx_PeriphCLKConfig+0x59c>)
 80061fa:	f8d4 1084 	ldr.w	r1, [r4, #132]	@ 0x84
 80061fe:	f8d2 30e0 	ldr.w	r3, [r2, #224]	@ 0xe0
 8006202:	f023 7340 	bic.w	r3, r3, #50331648	@ 0x3000000
 8006206:	430b      	orrs	r3, r1
 8006208:	f8c2 30e0 	str.w	r3, [r2, #224]	@ 0xe0
 800620c:	4635      	mov	r5, r6
 800620e:	e7bd      	b.n	800618c <HAL_RCCEx_PeriphCLKConfig+0x50c>
 8006210:	f104 0008 	add.w	r0, r4, #8
 8006214:	f7ff fcc8 	bl	8005ba8 <RCCEx_PLL2_Config>
 8006218:	4605      	mov	r5, r0
 800621a:	e7eb      	b.n	80061f4 <HAL_RCCEx_PeriphCLKConfig+0x574>
 800621c:	46020c00 	.word	0x46020c00
 8006220:	46020800 	.word	0x46020800

08006224 <HAL_SRAM_Init>:
 8006224:	b570      	push	{r4, r5, r6, lr}
 8006226:	460e      	mov	r6, r1
 8006228:	4615      	mov	r5, r2
 800622a:	4604      	mov	r4, r0
 800622c:	b350      	cbz	r0, 8006284 <HAL_SRAM_Init+0x60>
 800622e:	f890 3051 	ldrb.w	r3, [r0, #81]	@ 0x51
 8006232:	f003 02ff 	and.w	r2, r3, #255	@ 0xff
 8006236:	b91b      	cbnz	r3, 8006240 <HAL_SRAM_Init+0x1c>
 8006238:	f880 2050 	strb.w	r2, [r0, #80]	@ 0x50
 800623c:	f7fa fade 	bl	80007fc <HAL_SRAM_MspInit>
 8006240:	f104 0108 	add.w	r1, r4, #8
 8006244:	6820      	ldr	r0, [r4, #0]
 8006246:	f000 f82f 	bl	80062a8 <FMC_NORSRAM_Init>
 800624a:	4631      	mov	r1, r6
 800624c:	68a2      	ldr	r2, [r4, #8]
 800624e:	6820      	ldr	r0, [r4, #0]
 8006250:	f000 f88c 	bl	800636c <FMC_NORSRAM_Timing_Init>
 8006254:	4629      	mov	r1, r5
 8006256:	6ae3      	ldr	r3, [r4, #44]	@ 0x2c
 8006258:	68a2      	ldr	r2, [r4, #8]
 800625a:	6860      	ldr	r0, [r4, #4]
 800625c:	f000 f8ae 	bl	80063bc <FMC_NORSRAM_Extended_Timing_Init>
 8006260:	6822      	ldr	r2, [r4, #0]
 8006262:	68a1      	ldr	r1, [r4, #8]
 8006264:	2000      	movs	r0, #0
 8006266:	f852 3021 	ldr.w	r3, [r2, r1, lsl #2]
 800626a:	f043 0301 	orr.w	r3, r3, #1
 800626e:	f842 3021 	str.w	r3, [r2, r1, lsl #2]
 8006272:	4a05      	ldr	r2, [pc, #20]	@ (8006288 <HAL_SRAM_Init+0x64>)
 8006274:	6813      	ldr	r3, [r2, #0]
 8006276:	f043 4300 	orr.w	r3, r3, #2147483648	@ 0x80000000
 800627a:	6013      	str	r3, [r2, #0]
 800627c:	2301      	movs	r3, #1
 800627e:	f884 3051 	strb.w	r3, [r4, #81]	@ 0x51
 8006282:	bd70      	pop	{r4, r5, r6, pc}
 8006284:	2001      	movs	r0, #1
 8006286:	e7fc      	b.n	8006282 <HAL_SRAM_Init+0x5e>
 8006288:	420d0400 	.word	0x420d0400

0800628c <LL_DLYB_SetDelay>:
 800628c:	6803      	ldr	r3, [r0, #0]
 800628e:	f043 0302 	orr.w	r3, r3, #2
 8006292:	6003      	str	r3, [r0, #0]
 8006294:	e9d1 2300 	ldrd	r2, r3, [r1]
 8006298:	ea43 2302 	orr.w	r3, r3, r2, lsl #8
 800629c:	6043      	str	r3, [r0, #4]
 800629e:	6803      	ldr	r3, [r0, #0]
 80062a0:	f023 0302 	bic.w	r3, r3, #2
 80062a4:	6003      	str	r3, [r0, #0]
 80062a6:	4770      	bx	lr

080062a8 <FMC_NORSRAM_Init>:
 80062a8:	680a      	ldr	r2, [r1, #0]
 80062aa:	b5f0      	push	{r4, r5, r6, r7, lr}
 80062ac:	e9d1 640c 	ldrd	r6, r4, [r1, #48]	@ 0x30
 80062b0:	f850 3022 	ldr.w	r3, [r0, r2, lsl #2]
 80062b4:	688d      	ldr	r5, [r1, #8]
 80062b6:	f023 0301 	bic.w	r3, r3, #1
 80062ba:	f840 3022 	str.w	r3, [r0, r2, lsl #2]
 80062be:	684b      	ldr	r3, [r1, #4]
 80062c0:	68cf      	ldr	r7, [r1, #12]
 80062c2:	432b      	orrs	r3, r5
 80062c4:	433b      	orrs	r3, r7
 80062c6:	690f      	ldr	r7, [r1, #16]
 80062c8:	f850 c022 	ldr.w	ip, [r0, r2, lsl #2]
 80062cc:	433b      	orrs	r3, r7
 80062ce:	694f      	ldr	r7, [r1, #20]
 80062d0:	433b      	orrs	r3, r7
 80062d2:	698f      	ldr	r7, [r1, #24]
 80062d4:	433b      	orrs	r3, r7
 80062d6:	69cf      	ldr	r7, [r1, #28]
 80062d8:	433b      	orrs	r3, r7
 80062da:	6a0f      	ldr	r7, [r1, #32]
 80062dc:	433b      	orrs	r3, r7
 80062de:	6a4f      	ldr	r7, [r1, #36]	@ 0x24
 80062e0:	433b      	orrs	r3, r7
 80062e2:	6a8f      	ldr	r7, [r1, #40]	@ 0x28
 80062e4:	433b      	orrs	r3, r7
 80062e6:	6acf      	ldr	r7, [r1, #44]	@ 0x2c
 80062e8:	433b      	orrs	r3, r7
 80062ea:	4333      	orrs	r3, r6
 80062ec:	6bcf      	ldr	r7, [r1, #60]	@ 0x3c
 80062ee:	4323      	orrs	r3, r4
 80062f0:	433b      	orrs	r3, r7
 80062f2:	6b8f      	ldr	r7, [r1, #56]	@ 0x38
 80062f4:	433b      	orrs	r3, r7
 80062f6:	4f1c      	ldr	r7, [pc, #112]	@ (8006368 <FMC_NORSRAM_Init+0xc0>)
 80062f8:	ea0c 0707 	and.w	r7, ip, r7
 80062fc:	433b      	orrs	r3, r7
 80062fe:	f1a5 0708 	sub.w	r7, r5, #8
 8006302:	427d      	negs	r5, r7
 8006304:	417d      	adcs	r5, r7
 8006306:	ea43 1385 	orr.w	r3, r3, r5, lsl #6
 800630a:	f5b6 1f80 	cmp.w	r6, #1048576	@ 0x100000
 800630e:	f840 3022 	str.w	r3, [r0, r2, lsl #2]
 8006312:	d108      	bne.n	8006326 <FMC_NORSRAM_Init+0x7e>
 8006314:	b14a      	cbz	r2, 800632a <FMC_NORSRAM_Init+0x82>
 8006316:	6803      	ldr	r3, [r0, #0]
 8006318:	f443 1380 	orr.w	r3, r3, #1048576	@ 0x100000
 800631c:	6003      	str	r3, [r0, #0]
 800631e:	6803      	ldr	r3, [r0, #0]
 8006320:	431c      	orrs	r4, r3
 8006322:	6004      	str	r4, [r0, #0]
 8006324:	e001      	b.n	800632a <FMC_NORSRAM_Init+0x82>
 8006326:	2a00      	cmp	r2, #0
 8006328:	d1f9      	bne.n	800631e <FMC_NORSRAM_Init+0x76>
 800632a:	f891 3040 	ldrb.w	r3, [r1, #64]	@ 0x40
 800632e:	2b01      	cmp	r3, #1
 8006330:	d10e      	bne.n	8006350 <FMC_NORSRAM_Init+0xa8>
 8006332:	6a03      	ldr	r3, [r0, #32]
 8006334:	6c49      	ldr	r1, [r1, #68]	@ 0x44
 8006336:	0c1b      	lsrs	r3, r3, #16
 8006338:	041b      	lsls	r3, r3, #16
 800633a:	430b      	orrs	r3, r1
 800633c:	6203      	str	r3, [r0, #32]
 800633e:	2a02      	cmp	r2, #2
 8006340:	6a03      	ldr	r3, [r0, #32]
 8006342:	d007      	beq.n	8006354 <FMC_NORSRAM_Init+0xac>
 8006344:	2a04      	cmp	r2, #4
 8006346:	d008      	beq.n	800635a <FMC_NORSRAM_Init+0xb2>
 8006348:	b952      	cbnz	r2, 8006360 <FMC_NORSRAM_Init+0xb8>
 800634a:	f443 3380 	orr.w	r3, r3, #65536	@ 0x10000
 800634e:	6203      	str	r3, [r0, #32]
 8006350:	2000      	movs	r0, #0
 8006352:	bdf0      	pop	{r4, r5, r6, r7, pc}
 8006354:	f443 3300 	orr.w	r3, r3, #131072	@ 0x20000
 8006358:	e7f9      	b.n	800634e <FMC_NORSRAM_Init+0xa6>
 800635a:	f443 2380 	orr.w	r3, r3, #262144	@ 0x40000
 800635e:	e7f6      	b.n	800634e <FMC_NORSRAM_Init+0xa6>
 8006360:	f443 2300 	orr.w	r3, r3, #524288	@ 0x80000
 8006364:	e7f3      	b.n	800634e <FMC_NORSRAM_Init+0xa6>
 8006366:	bf00      	nop
 8006368:	ff000480 	.word	0xff000480

0800636c <FMC_NORSRAM_Timing_Init>:
 800636c:	b570      	push	{r4, r5, r6, lr}
 800636e:	680b      	ldr	r3, [r1, #0]
 8006370:	69ce      	ldr	r6, [r1, #28]
 8006372:	694d      	ldr	r5, [r1, #20]
 8006374:	4333      	orrs	r3, r6
 8006376:	684e      	ldr	r6, [r1, #4]
 8006378:	3d01      	subs	r5, #1
 800637a:	ea43 1306 	orr.w	r3, r3, r6, lsl #4
 800637e:	688e      	ldr	r6, [r1, #8]
 8006380:	3201      	adds	r2, #1
 8006382:	ea43 2306 	orr.w	r3, r3, r6, lsl #8
 8006386:	68ce      	ldr	r6, [r1, #12]
 8006388:	052c      	lsls	r4, r5, #20
 800638a:	ea43 7386 	orr.w	r3, r3, r6, lsl #30
 800638e:	690e      	ldr	r6, [r1, #16]
 8006390:	6989      	ldr	r1, [r1, #24]
 8006392:	ea43 4306 	orr.w	r3, r3, r6, lsl #16
 8006396:	ea43 5305 	orr.w	r3, r3, r5, lsl #20
 800639a:	3902      	subs	r1, #2
 800639c:	ea43 6301 	orr.w	r3, r3, r1, lsl #24
 80063a0:	f840 3022 	str.w	r3, [r0, r2, lsl #2]
 80063a4:	6803      	ldr	r3, [r0, #0]
 80063a6:	02db      	lsls	r3, r3, #11
 80063a8:	d506      	bpl.n	80063b8 <FMC_NORSRAM_Timing_Init+0x4c>
 80063aa:	6843      	ldr	r3, [r0, #4]
 80063ac:	6842      	ldr	r2, [r0, #4]
 80063ae:	4313      	orrs	r3, r2
 80063b0:	f423 0370 	bic.w	r3, r3, #15728640	@ 0xf00000
 80063b4:	4323      	orrs	r3, r4
 80063b6:	6043      	str	r3, [r0, #4]
 80063b8:	2000      	movs	r0, #0
 80063ba:	bd70      	pop	{r4, r5, r6, pc}

080063bc <FMC_NORSRAM_Extended_Timing_Init>:
 80063bc:	f5b3 4f80 	cmp.w	r3, #16384	@ 0x4000
 80063c0:	b530      	push	{r4, r5, lr}
 80063c2:	d117      	bne.n	80063f4 <FMC_NORSRAM_Extended_Timing_Init+0x38>
 80063c4:	69cd      	ldr	r5, [r1, #28]
 80063c6:	680b      	ldr	r3, [r1, #0]
 80063c8:	f850 4022 	ldr.w	r4, [r0, r2, lsl #2]
 80063cc:	432b      	orrs	r3, r5
 80063ce:	684d      	ldr	r5, [r1, #4]
 80063d0:	ea43 1305 	orr.w	r3, r3, r5, lsl #4
 80063d4:	688d      	ldr	r5, [r1, #8]
 80063d6:	ea43 2305 	orr.w	r3, r3, r5, lsl #8
 80063da:	68cd      	ldr	r5, [r1, #12]
 80063dc:	6909      	ldr	r1, [r1, #16]
 80063de:	ea43 7385 	orr.w	r3, r3, r5, lsl #30
 80063e2:	ea43 4301 	orr.w	r3, r3, r1, lsl #16
 80063e6:	f004 617f 	and.w	r1, r4, #267386880	@ 0xff00000
 80063ea:	430b      	orrs	r3, r1
 80063ec:	f840 3022 	str.w	r3, [r0, r2, lsl #2]
 80063f0:	2000      	movs	r0, #0
 80063f2:	bd30      	pop	{r4, r5, pc}
 80063f4:	f06f 4370 	mvn.w	r3, #4026531840	@ 0xf0000000
 80063f8:	e7f8      	b.n	80063ec <FMC_NORSRAM_Extended_Timing_Init+0x30>

080063fa <memset>:
 80063fa:	4402      	add	r2, r0
 80063fc:	4603      	mov	r3, r0
 80063fe:	4293      	cmp	r3, r2
 8006400:	d100      	bne.n	8006404 <memset+0xa>
 8006402:	4770      	bx	lr
 8006404:	f803 1b01 	strb.w	r1, [r3], #1
 8006408:	e7f9      	b.n	80063fe <memset+0x4>
	...

0800640c <__libc_init_array>:
 800640c:	b570      	push	{r4, r5, r6, lr}
 800640e:	4d0d      	ldr	r5, [pc, #52]	@ (8006444 <__libc_init_array+0x38>)
 8006410:	2600      	movs	r6, #0
 8006412:	4c0d      	ldr	r4, [pc, #52]	@ (8006448 <__libc_init_array+0x3c>)
 8006414:	1b64      	subs	r4, r4, r5
 8006416:	10a4      	asrs	r4, r4, #2
 8006418:	42a6      	cmp	r6, r4
 800641a:	d109      	bne.n	8006430 <__libc_init_array+0x24>
 800641c:	4d0b      	ldr	r5, [pc, #44]	@ (800644c <__libc_init_array+0x40>)
 800641e:	2600      	movs	r6, #0
 8006420:	4c0b      	ldr	r4, [pc, #44]	@ (8006450 <__libc_init_array+0x44>)
 8006422:	f000 f817 	bl	8006454 <_init>
 8006426:	1b64      	subs	r4, r4, r5
 8006428:	10a4      	asrs	r4, r4, #2
 800642a:	42a6      	cmp	r6, r4
 800642c:	d105      	bne.n	800643a <__libc_init_array+0x2e>
 800642e:	bd70      	pop	{r4, r5, r6, pc}
 8006430:	f855 3b04 	ldr.w	r3, [r5], #4
 8006434:	3601      	adds	r6, #1
 8006436:	4798      	blx	r3
 8006438:	e7ee      	b.n	8006418 <__libc_init_array+0xc>
 800643a:	f855 3b04 	ldr.w	r3, [r5], #4
 800643e:	3601      	adds	r6, #1
 8006440:	4798      	blx	r3
 8006442:	e7f2      	b.n	800642a <__libc_init_array+0x1e>
 8006444:	080cd728 	.word	0x080cd728
 8006448:	080cd728 	.word	0x080cd728
 800644c:	080cd728 	.word	0x080cd728
 8006450:	080cd72c 	.word	0x080cd72c

08006454 <_init>:
 8006454:	b5f8      	push	{r3, r4, r5, r6, r7, lr}
 8006456:	bf00      	nop
 8006458:	bcf8      	pop	{r3, r4, r5, r6, r7}
 800645a:	bc08      	pop	{r3}
 800645c:	469e      	mov	lr, r3
 800645e:	4770      	bx	lr

08006460 <_fini>:
 8006460:	b5f8      	push	{r3, r4, r5, r6, r7, lr}
 8006462:	bf00      	nop
 8006464:	bcf8      	pop	{r3, r4, r5, r6, r7}
 8006466:	bc08      	pop	{r3}
 8006468:	469e      	mov	lr, r3
 800646a:	4770      	bx	lr
